---
triple:          'arm64-apple-darwin'
binary-path:     mainffa2aleak
relocations:
  - { offsetInCU: 0x44, offset: 0x44, size: 0x8, addend: 0x0, symName: __ZN2ffL13empty_svectorE, symObjAddr: 0x17FB80, symBinAddr: 0x100074140, symSize: 0x0 }
  - { offsetInCU: 0x34F6, offset: 0x34F6, size: 0x8, addend: 0x0, symName: __ZN2ffL6ffTimeEi, symObjAddr: 0x1C20, symBinAddr: 0x100005C94, symSize: 0x100 }
  - { offsetInCU: 0x351F, offset: 0x351F, size: 0x8, addend: 0x0, symName: __ZZN2ffL6ffTimeEiE8tv_start, symObjAddr: 0x17FBB8, symBinAddr: 0x100074178, symSize: 0x0 }
  - { offsetInCU: 0x3534, offset: 0x3534, size: 0x8, addend: 0x0, symName: __ZZN2ffL6ffTimeEiE7tv_stop, symObjAddr: 0x17FBC8, symBinAddr: 0x100074188, symSize: 0x0 }
  - { offsetInCU: 0x3549, offset: 0x3549, size: 0x8, addend: 0x0, symName: __ZZN2ffL6ffTimeEiE1L, symObjAddr: 0x17FC00, symBinAddr: 0x1000741C0, symSize: 0x0 }
  - { offsetInCU: 0x3587, offset: 0x3587, size: 0x8, addend: 0x0, symName: __ZN2ffL10FF_TAG_MINE, symObjAddr: 0x46290, symBinAddr: 0x100074038, symSize: 0x0 }
  - { offsetInCU: 0x35A0, offset: 0x35A0, size: 0x8, addend: 0x0, symName: __ZN2ffL22internal_threadCounterE, symObjAddr: 0x17FC40, symBinAddr: 0x100074200, symSize: 0x0 }
  - { offsetInCU: 0x35B9, offset: 0x35B9, size: 0x8, addend: 0x0, symName: __ZN2ffL32internal_threadCounter_noBarrierE, symObjAddr: 0x46298, symBinAddr: 0x100074040, symSize: 0x0 }
  - { offsetInCU: 0x35D2, offset: 0x35D2, size: 0x8, addend: 0x0, symName: __ZN2ffL8FF_GO_ONE, symObjAddr: 0x46268, symBinAddr: 0x100074010, symSize: 0x0 }
  - { offsetInCU: 0x35EB, offset: 0x35EB, size: 0x8, addend: 0x0, symName: __ZN2ffL6FF_EOSE, symObjAddr: 0x46270, symBinAddr: 0x100074018, symSize: 0x0 }
  - { offsetInCU: 0x3604, offset: 0x3604, size: 0x8, addend: 0x0, symName: __ZN2ffL7FF_EOSWE, symObjAddr: 0x46278, symBinAddr: 0x100074020, symSize: 0x0 }
  - { offsetInCU: 0x361D, offset: 0x361D, size: 0x8, addend: 0x0, symName: __ZN2ffL9FF_GO_OUTE, symObjAddr: 0x46280, symBinAddr: 0x100074028, symSize: 0x0 }
  - { offsetInCU: 0x3636, offset: 0x3636, size: 0x8, addend: 0x0, symName: __ZN2ffL15FF_EOS_NOFREEZEE, symObjAddr: 0x46288, symBinAddr: 0x100074030, symSize: 0x0 }
  - { offsetInCU: 0x730A, offset: 0x730A, size: 0x8, addend: 0x0, symName: __ZN2ffL5errorEPKcz, symObjAddr: 0x2BEC, symBinAddr: 0x100006C60, symSize: 0xE4 }
  - { offsetInCU: 0x735D, offset: 0x735D, size: 0x8, addend: 0x0, symName: __ZN2ffL9spin_lockEPNS_17AtomicFlagWrapperE, symObjAddr: 0xAF60, symBinAddr: 0x10000EFD4, symSize: 0x38 }
  - { offsetInCU: 0x7385, offset: 0x7385, size: 0x8, addend: 0x0, symName: __ZN2ffL11spin_unlockEPNS_17AtomicFlagWrapperE, symObjAddr: 0xAF98, symBinAddr: 0x10000F00C, symSize: 0x28 }
  - { offsetInCU: 0x73AD, offset: 0x73AD, size: 0x8, addend: 0x0, symName: __ZN2ffL8diffmsecERK7timevalS2_, symObjAddr: 0xAFC0, symBinAddr: 0x10000F034, symSize: 0xAC }
  - { offsetInCU: 0x7403, offset: 0x7403, size: 0x8, addend: 0x0, symName: __ZN2ffL12time_setzeroER7timeval, symObjAddr: 0x10150, symBinAddr: 0x1000141C4, symSize: 0x20 }
  - { offsetInCU: 0x742B, offset: 0x742B, size: 0x8, addend: 0x0, symName: __ZN2ffL13init_unlockedEPNS_17AtomicFlagWrapperE, symObjAddr: 0x1123C, symBinAddr: 0x1000152B0, symSize: 0x10 }
  - { offsetInCU: 0x744F, offset: 0x744F, size: 0x8, addend: 0x0, symName: __ZN2ffL20init_thread_affinityEP22_opaque_pthread_attr_ti, symObjAddr: 0x13558, symBinAddr: 0x1000175CC, symSize: 0x18 }
  - { offsetInCU: 0x7481, offset: 0x7481, size: 0x8, addend: 0x0, symName: __ZN2ffL20proxy_thread_routineEPv, symObjAddr: 0x135A4, symBinAddr: 0x100017618, symSize: 0x28 }
  - { offsetInCU: 0x74BE, offset: 0x74BE, size: 0x8, addend: 0x0, symName: __ZN2ffL17timedwait_timeoutER8timespec, symObjAddr: 0x183E4, symBinAddr: 0x10001C458, symSize: 0x98 }
  - { offsetInCU: 0x74E6, offset: 0x74E6, size: 0x8, addend: 0x0, symName: __ZN2ffL10ticks_waitEy, symObjAddr: 0x1E7D4, symBinAddr: 0x100022848, symSize: 0x60 }
  - { offsetInCU: 0x768C, offset: 0x768C, size: 0x8, addend: 0x0, symName: __ZN2ffL10isPowerOf2Ej, symObjAddr: 0x21174, symBinAddr: 0x1000251E8, symSize: 0x50 }
  - { offsetInCU: 0x76B8, offset: 0x76B8, size: 0x8, addend: 0x0, symName: __ZN2ffL12nextPowerOf2Em, symObjAddr: 0x21300, symBinAddr: 0x100025374, symSize: 0x94 }
  - { offsetInCU: 0x76F2, offset: 0x76F2, size: 0x8, addend: 0x0, symName: __ZN2ffL14ispipe_getlastEPNS_7ff_nodeE, symObjAddr: 0x37484, symBinAddr: 0x10003B4F8, symSize: 0x58 }
  - { offsetInCU: 0x773A, offset: 0x773A, size: 0x8, addend: 0x0, symName: __ZN2ffL20isfarm_withcollectorEPNS_7ff_nodeE, symObjAddr: 0x374DC, symBinAddr: 0x10003B550, symSize: 0x70 }
  - { offsetInCU: 0x7A2A, offset: 0x7A2A, size: 0x8, addend: 0x0, symName: __ZN2ffL12time_compareER7timevalS1_, symObjAddr: 0x38E98, symBinAddr: 0x10003CF0C, symSize: 0x94 }
  - { offsetInCU: 0x7A80, offset: 0x7A80, size: 0x8, addend: 0x0, symName: __ZN2ffL17isa2a_getfirstsetEPNS_7ff_nodeE, symObjAddr: 0x42018, symBinAddr: 0x10004608C, symSize: 0x60 }
  - { offsetInCU: 0x7AC8, offset: 0x7AC8, size: 0x8, addend: 0x0, symName: __ZN2ffL18isa2a_getsecondsetEPNS_7ff_nodeE, symObjAddr: 0x424A8, symBinAddr: 0x10004651C, symSize: 0x60 }
  - { offsetInCU: 0x7B10, offset: 0x7B10, size: 0x8, addend: 0x0, symName: __ZN2ffL17isfarm_getworkersEPNS_7ff_nodeE, symObjAddr: 0x42508, symBinAddr: 0x10004657C, symSize: 0x60 }
  - { offsetInCU: 0x7B58, offset: 0x7B58, size: 0x8, addend: 0x0, symName: __ZN2ffL23isfarm_multimultioutputEPNS_7ff_nodeE, symObjAddr: 0x42568, symBinAddr: 0x1000465DC, symSize: 0xC4 }
  - { offsetInCU: 0xD85A, offset: 0xD85A, size: 0x8, addend: 0x0, symName: __ZNSt3__16ranges5__cpo9iter_moveE, symObjAddr: 0x4635C, symBinAddr: 0x10006AC64, symSize: 0x0 }
  - { offsetInCU: 0xF03C, offset: 0xF03C, size: 0x8, addend: 0x0, symName: __ZNSt3__119piecewise_constructE, symObjAddr: 0x463C4, symBinAddr: 0x10006ACCC, symSize: 0x0 }
  - { offsetInCU: 0x1B25A, offset: 0x1B25A, size: 0x8, addend: 0x0, symName: __ZNSt3__17advanceB8ue170006IP8FileDatallvEEvRT_T0_, symObjAddr: 0x43A8, symBinAddr: 0x10000841C, symSize: 0x38 }
  - { offsetInCU: 0x1B2C6, offset: 0x1B2C6, size: 0x8, addend: 0x0, symName: __ZNSt3__111__introsortINS_17_ClassicAlgPolicyERPFbRK8FileDataS4_EPS2_Lb0EEEvT1_S9_T0_NS_15iterator_traitsIS9_E15difference_typeEb, symObjAddr: 0x4A88, symBinAddr: 0x100008AFC, symSize: 0x478 }
  - { offsetInCU: 0x1B3F2, offset: 0x1B3F2, size: 0x8, addend: 0x0, symName: __ZNSt3__126__insertion_sort_unguardedB8ue170006INS_17_ClassicAlgPolicyERPFbRK8FileDataS4_EPS2_EEvT1_S9_T0_, symObjAddr: 0x51D0, symBinAddr: 0x100009244, symSize: 0x16C }
  - { offsetInCU: 0x1B4CE, offset: 0x1B4CE, size: 0x8, addend: 0x0, symName: __ZNSt3__111__sift_downB8ue170006INS_17_ClassicAlgPolicyERPFbRK8FileDataS4_EPS2_EEvT1_OT0_NS_15iterator_traitsIS9_E15difference_typeES9_, symObjAddr: 0x6C1C, symBinAddr: 0x10000AC90, symSize: 0x27C }
  - { offsetInCU: 0x1B57C, offset: 0x1B57C, size: 0x8, addend: 0x0, symName: __ZNSt3__117__floyd_sift_downB8ue170006INS_17_ClassicAlgPolicyERPFbRK8FileDataS4_EPS2_EET1_S9_OT0_NS_15iterator_traitsIS9_E15difference_typeE, symObjAddr: 0x7078, symBinAddr: 0x10000B0EC, symSize: 0x10C }
  - { offsetInCU: 0x1B615, offset: 0x1B615, size: 0x8, addend: 0x0, symName: __ZNSt3__131__partition_with_equals_on_leftB8ue170006INS_17_ClassicAlgPolicyEP8FileDataRPFbRKS2_S5_EEET0_S9_S9_T1_, symObjAddr: 0x555C, symBinAddr: 0x1000095D0, symSize: 0x2B0 }
  - { offsetInCU: 0x1B6D3, offset: 0x1B6D3, size: 0x8, addend: 0x0, symName: __ZNSt3__118__bitset_partitionB8ue170006INS_17_ClassicAlgPolicyEP8FileDataRPFbRKS2_S5_EEENS_4pairIT0_bEESA_SA_T1_, symObjAddr: 0x580C, symBinAddr: 0x100009880, symSize: 0x3C4 }
  - { offsetInCU: 0x1B7D1, offset: 0x1B7D1, size: 0x8, addend: 0x0, symName: __ZNSt3__124__swap_bitmap_pos_withinB8ue170006INS_17_ClassicAlgPolicyEP8FileDataEEvRT0_S5_RyS6_, symObjAddr: 0x7848, symBinAddr: 0x10000B8BC, symSize: 0x1E8 }
  - { offsetInCU: 0x1B89F, offset: 0x1B89F, size: 0x8, addend: 0x0, symName: __ZNSt3__132__partition_with_equals_on_rightB8ue170006INS_17_ClassicAlgPolicyEP8FileDataRPFbRKS2_S5_EEENS_4pairIT0_bEESA_SA_T1_, symObjAddr: 0x5BD0, symBinAddr: 0x100009C44, symSize: 0x2B0 }
  - { offsetInCU: 0x1B96C, offset: 0x1B96C, size: 0x8, addend: 0x0, symName: __ZNSt3__127__insertion_sort_incompleteB8ue170006INS_17_ClassicAlgPolicyERPFbRK8FileDataS4_EPS2_EEbT1_S9_T0_, symObjAddr: 0x5E80, symBinAddr: 0x100009EF4, symSize: 0x378 }
  - { offsetInCU: 0x1CE03, offset: 0x1CE03, size: 0x8, addend: 0x0, symName: __ZNSt3__17advanceB8ue170006INS_16reverse_iteratorIP8FileDataEEllvEEvRT_T0_, symObjAddr: 0xA8B0, symBinAddr: 0x10000E924, symSize: 0x38 }
  - { offsetInCU: 0x1ECA2, offset: 0x1ECA2, size: 0x8, addend: 0x0, symName: __ZNSt3__17advanceB8ue170006INS_16__deque_iteratorIPN2ff7ff_nodeEPS4_RS4_PS5_lLl512EEEllvEEvRT_T0_, symObjAddr: 0x1D704, symBinAddr: 0x100021778, symSize: 0x38 }
  - { offsetInCU: 0x1F16E, offset: 0x1F16E, size: 0x8, addend: 0x0, symName: __ZNSt3__16copy_nB8ue170006IPKcmPcEENS_9enable_ifIXsr37__has_random_access_iterator_categoryIT_EE5valueET1_E4typeES5_T0_S6_, symObjAddr: 0x272D8, symBinAddr: 0x10002B34C, symSize: 0x44 }
  - { offsetInCU: 0x25DD1, offset: 0x25DD1, size: 0x8, addend: 0x0, symName: __ZNSt3__111__introsortINS_17_ClassicAlgPolicyERZN6Merger13regroupAndZipERKNS_12basic_stringIcNS_11char_traitsIcEENS_9allocatorIcEEEERNS2_10FileMergerEEUlRK9PartitionSF_E_PSD_Lb0EEEvT1_SJ_T0_NS_15iterator_traitsISJ_E15difference_typeEb, symObjAddr: 0x2E8A8, symBinAddr: 0x10003291C, symSize: 0x434 }
  - { offsetInCU: 0x25EFD, offset: 0x25EFD, size: 0x8, addend: 0x0, symName: __ZNSt3__126__insertion_sort_unguardedB8ue170006INS_17_ClassicAlgPolicyERZN6Merger13regroupAndZipERKNS_12basic_stringIcNS_11char_traitsIcEENS_9allocatorIcEEEERNS2_10FileMergerEEUlRK9PartitionSF_E_PSD_EEvT1_SJ_T0_, symObjAddr: 0x2EF90, symBinAddr: 0x100033004, symSize: 0x138 }
  - { offsetInCU: 0x25FEE, offset: 0x25FEE, size: 0x8, addend: 0x0, symName: __ZNSt3__111__sift_downB8ue170006INS_17_ClassicAlgPolicyERZN6Merger13regroupAndZipERKNS_12basic_stringIcNS_11char_traitsIcEENS_9allocatorIcEEEERNS2_10FileMergerEEUlRK9PartitionSF_E_PSD_EEvT1_OT0_NS_15iterator_traitsISJ_E15difference_typeESJ_, symObjAddr: 0x301DC, symBinAddr: 0x100034250, symSize: 0x224 }
  - { offsetInCU: 0x2609C, offset: 0x2609C, size: 0x8, addend: 0x0, symName: __ZNSt3__117__floyd_sift_downB8ue170006INS_17_ClassicAlgPolicyERZN6Merger13regroupAndZipERKNS_12basic_stringIcNS_11char_traitsIcEENS_9allocatorIcEEEERNS2_10FileMergerEEUlRK9PartitionSF_E_PSD_EET1_SJ_OT0_NS_15iterator_traitsISJ_E15difference_typeE, symObjAddr: 0x305BC, symBinAddr: 0x100034630, symSize: 0x108 }
  - { offsetInCU: 0x26135, offset: 0x26135, size: 0x8, addend: 0x0, symName: __ZNSt3__131__partition_with_equals_on_leftB8ue170006INS_17_ClassicAlgPolicyEP9PartitionRZN6Merger13regroupAndZipERKNS_12basic_stringIcNS_11char_traitsIcEENS_9allocatorIcEEEERNS4_10FileMergerEEUlRKS2_SG_E_EET0_SJ_SJ_T1_, symObjAddr: 0x2F2D4, symBinAddr: 0x100033348, symSize: 0x224 }
  - { offsetInCU: 0x261F1, offset: 0x261F1, size: 0x8, addend: 0x0, symName: __ZNSt3__118__bitset_partitionB8ue170006INS_17_ClassicAlgPolicyEP9PartitionRZN6Merger13regroupAndZipERKNS_12basic_stringIcNS_11char_traitsIcEENS_9allocatorIcEEEERNS4_10FileMergerEEUlRKS2_SG_E_EENS_4pairIT0_bEESK_SK_T1_, symObjAddr: 0x2F4F8, symBinAddr: 0x10003356C, symSize: 0x33C }
  - { offsetInCU: 0x262EC, offset: 0x262EC, size: 0x8, addend: 0x0, symName: __ZNSt3__124__swap_bitmap_pos_withinB8ue170006INS_17_ClassicAlgPolicyEP9PartitionEEvRT0_S5_RyS6_, symObjAddr: 0x30D28, symBinAddr: 0x100034D9C, symSize: 0x1E0 }
  - { offsetInCU: 0x263BA, offset: 0x263BA, size: 0x8, addend: 0x0, symName: __ZNSt3__132__partition_with_equals_on_rightB8ue170006INS_17_ClassicAlgPolicyEP9PartitionRZN6Merger13regroupAndZipERKNS_12basic_stringIcNS_11char_traitsIcEENS_9allocatorIcEEEERNS4_10FileMergerEEUlRKS2_SG_E_EENS_4pairIT0_bEESK_SK_T1_, symObjAddr: 0x2F834, symBinAddr: 0x1000338A8, symSize: 0x234 }
  - { offsetInCU: 0x26485, offset: 0x26485, size: 0x8, addend: 0x0, symName: __ZNSt3__127__insertion_sort_incompleteB8ue170006INS_17_ClassicAlgPolicyERZN6Merger13regroupAndZipERKNS_12basic_stringIcNS_11char_traitsIcEENS_9allocatorIcEEEERNS2_10FileMergerEEUlRK9PartitionSF_E_PSD_EEbT1_SJ_T0_, symObjAddr: 0x2FA68, symBinAddr: 0x100033ADC, symSize: 0x31C }
  - { offsetInCU: 0x2657B, offset: 0x2657B, size: 0x8, addend: 0x0, symName: __ZNSt3__111__introsortINS_17_ClassicAlgPolicyERZN6Merger15regroupAndWriteERKNS_12basic_stringIcNS_11char_traitsIcEENS_9allocatorIcEEEERNS2_10FileMergerEEUlRK9PartitionSF_E_PSD_Lb0EEEvT1_SJ_T0_NS_15iterator_traitsISJ_E15difference_typeEb, symObjAddr: 0x312D8, symBinAddr: 0x10003534C, symSize: 0x434 }
  - { offsetInCU: 0x266A7, offset: 0x266A7, size: 0x8, addend: 0x0, symName: __ZNSt3__126__insertion_sort_unguardedB8ue170006INS_17_ClassicAlgPolicyERZN6Merger15regroupAndWriteERKNS_12basic_stringIcNS_11char_traitsIcEENS_9allocatorIcEEEERNS2_10FileMergerEEUlRK9PartitionSF_E_PSD_EEvT1_SJ_T0_, symObjAddr: 0x3198C, symBinAddr: 0x100035A00, symSize: 0x138 }
  - { offsetInCU: 0x26798, offset: 0x26798, size: 0x8, addend: 0x0, symName: __ZNSt3__111__sift_downB8ue170006INS_17_ClassicAlgPolicyERZN6Merger15regroupAndWriteERKNS_12basic_stringIcNS_11char_traitsIcEENS_9allocatorIcEEEERNS2_10FileMergerEEUlRK9PartitionSF_E_PSD_EEvT1_OT0_NS_15iterator_traitsISJ_E15difference_typeESJ_, symObjAddr: 0x32ACC, symBinAddr: 0x100036B40, symSize: 0x224 }
  - { offsetInCU: 0x26846, offset: 0x26846, size: 0x8, addend: 0x0, symName: __ZNSt3__117__floyd_sift_downB8ue170006INS_17_ClassicAlgPolicyERZN6Merger15regroupAndWriteERKNS_12basic_stringIcNS_11char_traitsIcEENS_9allocatorIcEEEERNS2_10FileMergerEEUlRK9PartitionSF_E_PSD_EET1_SJ_OT0_NS_15iterator_traitsISJ_E15difference_typeE, symObjAddr: 0x32EAC, symBinAddr: 0x100036F20, symSize: 0x108 }
  - { offsetInCU: 0x268DF, offset: 0x268DF, size: 0x8, addend: 0x0, symName: __ZNSt3__131__partition_with_equals_on_leftB8ue170006INS_17_ClassicAlgPolicyEP9PartitionRZN6Merger15regroupAndWriteERKNS_12basic_stringIcNS_11char_traitsIcEENS_9allocatorIcEEEERNS4_10FileMergerEEUlRKS2_SG_E_EET0_SJ_SJ_T1_, symObjAddr: 0x31C9C, symBinAddr: 0x100035D10, symSize: 0x224 }
  - { offsetInCU: 0x2699B, offset: 0x2699B, size: 0x8, addend: 0x0, symName: __ZNSt3__118__bitset_partitionB8ue170006INS_17_ClassicAlgPolicyEP9PartitionRZN6Merger15regroupAndWriteERKNS_12basic_stringIcNS_11char_traitsIcEENS_9allocatorIcEEEERNS4_10FileMergerEEUlRKS2_SG_E_EENS_4pairIT0_bEESK_SK_T1_, symObjAddr: 0x31EC0, symBinAddr: 0x100035F34, symSize: 0x33C }
  - { offsetInCU: 0x26A96, offset: 0x26A96, size: 0x8, addend: 0x0, symName: __ZNSt3__132__partition_with_equals_on_rightB8ue170006INS_17_ClassicAlgPolicyEP9PartitionRZN6Merger15regroupAndWriteERKNS_12basic_stringIcNS_11char_traitsIcEENS_9allocatorIcEEEERNS4_10FileMergerEEUlRKS2_SG_E_EENS_4pairIT0_bEESK_SK_T1_, symObjAddr: 0x321FC, symBinAddr: 0x100036270, symSize: 0x234 }
  - { offsetInCU: 0x26B61, offset: 0x26B61, size: 0x8, addend: 0x0, symName: __ZNSt3__127__insertion_sort_incompleteB8ue170006INS_17_ClassicAlgPolicyERZN6Merger15regroupAndWriteERKNS_12basic_stringIcNS_11char_traitsIcEENS_9allocatorIcEEEERNS2_10FileMergerEEUlRK9PartitionSF_E_PSD_EEbT1_SJ_T0_, symObjAddr: 0x32430, symBinAddr: 0x1000364A4, symSize: 0x31C }
  - { offsetInCU: 0x27FA9, offset: 0x27FA9, size: 0x8, addend: 0x0, symName: __ZNSt3__124__put_character_sequenceB8ue170006IcNS_11char_traitsIcEEEERNS_13basic_ostreamIT_T0_EES7_PKS4_m, symObjAddr: 0x3A60C, symBinAddr: 0x10003E680, symSize: 0x1EC }
  - { offsetInCU: 0x2966A, offset: 0x2966A, size: 0x8, addend: 0x0, symName: __ZNSt3__14sortB8ue170006INS_11__wrap_iterIP8FileDataEEPFbRKS2_S6_EEEvT_S9_T0_, symObjAddr: 0x2A0, symBinAddr: 0x100004314, symSize: 0x48 }
  - { offsetInCU: 0x296C5, offset: 0x296C5, size: 0x8, addend: 0x0, symName: __ZNSt3__1neB8ue170006IP8FileDataEEbRKNS_11__wrap_iterIT_EES7_, symObjAddr: 0x3B8, symBinAddr: 0x10000442C, symSize: 0x34 }
  - { offsetInCU: 0x29709, offset: 0x29709, size: 0x8, addend: 0x0, symName: __ZNSt3__111min_elementB8ue170006INS_11__wrap_iterIPmEEEET_S4_S4_, symObjAddr: 0x404, symBinAddr: 0x100004478, symSize: 0x44 }
  - { offsetInCU: 0x2974D, offset: 0x2974D, size: 0x8, addend: 0x0, symName: __ZNSt3__18distanceB8ue170006INS_11__wrap_iterIPmEEEENS_15iterator_traitsIT_E15difference_typeES5_S5_, symObjAddr: 0x4A8, symBinAddr: 0x10000451C, symSize: 0x3C }
  - { offsetInCU: 0x29791, offset: 0x29791, size: 0x8, addend: 0x0, symName: __ZNSt3__13minB8ue170006IlEERKT_S3_S3_, symObjAddr: 0x122C, symBinAddr: 0x1000052A0, symSize: 0x2C }
  - { offsetInCU: 0x297D5, offset: 0x297D5, size: 0x8, addend: 0x0, symName: __ZNSt3__1lsB8ue170006INS_11char_traitsIcEEEERNS_13basic_ostreamIcT_EES6_PKc, symObjAddr: 0x24FC, symBinAddr: 0x100006570, symSize: 0x48 }
  - { offsetInCU: 0x2981C, offset: 0x2981C, size: 0x8, addend: 0x0, symName: __ZNSt3__14endlB8ue170006IcNS_11char_traitsIcEEEERNS_13basic_ostreamIT_T0_EES7_, symObjAddr: 0x2570, symBinAddr: 0x1000065E4, symSize: 0x58 }
  - { offsetInCU: 0x2985D, offset: 0x2985D, size: 0x8, addend: 0x0, symName: __ZNSt3__1lsB8ue170006IcNS_11char_traitsIcEENS_9allocatorIcEEEERNS_13basic_ostreamIT_T0_EES9_RKNS_12basic_stringIS6_S7_T1_EE, symObjAddr: 0x25C8, symBinAddr: 0x10000663C, symSize: 0x4C }
  - { offsetInCU: 0x29C50, offset: 0x29C50, size: 0x8, addend: 0x0, symName: __ZNSt3__122__make_exception_guardB8ue170006INS_6vectorI8FileDataNS_9allocatorIS2_EEE16__destroy_vectorEEENS_28__exception_guard_exceptionsIT_EES8_, symObjAddr: 0x3130, symBinAddr: 0x1000071A4, symSize: 0x40 }
  - { offsetInCU: 0x29C86, offset: 0x29C86, size: 0x8, addend: 0x0, symName: __ZNSt3__119__allocate_at_leastB8ue170006INS_9allocatorI8FileDataEEEENS_19__allocation_resultINS_16allocator_traitsIT_E7pointerEEERS6_m, symObjAddr: 0x3420, symBinAddr: 0x100007494, symSize: 0x40 }
  - { offsetInCU: 0x29CCA, offset: 0x29CCA, size: 0x8, addend: 0x0, symName: __ZNSt3__13minB8ue170006ImEERKT_S3_S3_, symObjAddr: 0x3578, symBinAddr: 0x1000075EC, symSize: 0x2C }
  - { offsetInCU: 0x29F18, offset: 0x29F18, size: 0x8, addend: 0x0, symName: __ZNSt3__13minB8ue170006ImNS_6__lessIvvEEEERKT_S5_S5_T0_, symObjAddr: 0x35EC, symBinAddr: 0x100007660, symSize: 0x54 }
  - { offsetInCU: 0x29FEB, offset: 0x29FEB, size: 0x8, addend: 0x0, symName: __ZNSt3__120__throw_length_errorB8ue170006EPKc, symObjAddr: 0x3698, symBinAddr: 0x10000770C, symSize: 0x64 }
  - { offsetInCU: 0x2A016, offset: 0x2A016, size: 0x8, addend: 0x0, symName: __ZNSt3__117__libcpp_allocateB8ue170006Emm, symObjAddr: 0x380C, symBinAddr: 0x100007880, symSize: 0x60 }
  - { offsetInCU: 0x2A071, offset: 0x2A071, size: 0x8, addend: 0x0, symName: __ZNSt3__124__is_overaligned_for_newB8ue170006Em, symObjAddr: 0x386C, symBinAddr: 0x1000078E0, symSize: 0x20 }
  - { offsetInCU: 0x2A0A0, offset: 0x2A0A0, size: 0x8, addend: 0x0, symName: __ZNSt3__121__libcpp_operator_newB8ue170006IJmSt11align_val_tEEEPvDpT_, symObjAddr: 0x388C, symBinAddr: 0x100007900, symSize: 0x2C }
  - { offsetInCU: 0x2A0EE, offset: 0x2A0EE, size: 0x8, addend: 0x0, symName: __ZNSt3__121__libcpp_operator_newB8ue170006IJmEEEPvDpT_, symObjAddr: 0x38B8, symBinAddr: 0x10000792C, symSize: 0x24 }
  - { offsetInCU: 0x2A128, offset: 0x2A128, size: 0x8, addend: 0x0, symName: __ZNSt3__112__to_addressB8ue170006I8FileDataEEPT_S3_, symObjAddr: 0x39D4, symBinAddr: 0x100007A48, symSize: 0x14 }
  - { offsetInCU: 0x2A15E, offset: 0x2A15E, size: 0x8, addend: 0x0, symName: __ZNSt3__130__uninitialized_allocator_copyB8ue170006INS_9allocatorI8FileDataEEPS2_S4_S4_EET2_RT_T0_T1_S5_, symObjAddr: 0x3A84, symBinAddr: 0x100007AF8, symSize: 0x80 }
  - { offsetInCU: 0x2A1FC, offset: 0x2A1FC, size: 0x8, addend: 0x0, symName: __ZNSt3__114__unwrap_rangeB8ue170006IP8FileDataS2_EEDaT_T0_, symObjAddr: 0x3B7C, symBinAddr: 0x100007BF0, symSize: 0x3C }
  - { offsetInCU: 0x2A249, offset: 0x2A249, size: 0x8, addend: 0x0, symName: __ZNSt3__135__uninitialized_allocator_copy_implB8ue170006INS_9allocatorI8FileDataEEPS2_S4_S4_EET2_RT_T0_T1_S5_, symObjAddr: 0x3BB8, symBinAddr: 0x100007C2C, symSize: 0xF4 }
  - { offsetInCU: 0x2A2E8, offset: 0x2A2E8, size: 0x8, addend: 0x0, symName: __ZNSt3__113__unwrap_iterB8ue170006IP8FileDataNS_18__unwrap_iter_implIS2_Lb1EEELi0EEEDTclsrT0_8__unwrapclsr3stdE7declvalIT_EEEES6_, symObjAddr: 0x3CAC, symBinAddr: 0x100007D20, symSize: 0x24 }
  - { offsetInCU: 0x2A32E, offset: 0x2A32E, size: 0x8, addend: 0x0, symName: __ZNSt3__113__rewrap_iterB8ue170006IP8FileDataS2_NS_18__unwrap_iter_implIS2_Lb1EEEEET_S5_T0_, symObjAddr: 0x3CD0, symBinAddr: 0x100007D44, symSize: 0x3C }
  - { offsetInCU: 0x2A486, offset: 0x2A486, size: 0x8, addend: 0x0, symName: __ZNSt3__122__make_exception_guardB8ue170006INS_29_AllocatorDestroyRangeReverseINS_9allocatorI8FileDataEEPS3_EEEENS_28__exception_guard_exceptionsIT_EES8_, symObjAddr: 0x3DD4, symBinAddr: 0x100007E48, symSize: 0x4C }
  - { offsetInCU: 0x2A4E4, offset: 0x2A4E4, size: 0x8, addend: 0x0, symName: __ZNSt3__112construct_atB8ue170006I8FileDataJRS1_EPS1_EEPT_S5_DpOT0_, symObjAddr: 0x3F78, symBinAddr: 0x100007FEC, symSize: 0x3C }
  - { offsetInCU: 0x2A557, offset: 0x2A557, size: 0x8, addend: 0x0, symName: __ZNSt3__119__allocator_destroyB8ue170006INS_9allocatorI8FileDataEENS_16reverse_iteratorIPS2_EES6_EEvRT_T0_T1_, symObjAddr: 0x40F4, symBinAddr: 0x100008168, symSize: 0x70 }
  - { offsetInCU: 0x2A5BB, offset: 0x2A5BB, size: 0x8, addend: 0x0, symName: __ZNSt3__1neB8ue170006IP8FileDataS2_EEbRKNS_16reverse_iteratorIT_EERKNS3_IT0_EE, symObjAddr: 0x4198, symBinAddr: 0x10000820C, symSize: 0x48 }
  - { offsetInCU: 0x2A608, offset: 0x2A608, size: 0x8, addend: 0x0, symName: __ZNSt3__112__to_addressB8ue170006INS_16reverse_iteratorIP8FileDataEEvEEu7__decayIDTclsr19__to_address_helperIT_EE6__callclsr3stdE7declvalIRKS5_EEEEES7_, symObjAddr: 0x4208, symBinAddr: 0x10000827C, symSize: 0x24 }
  - { offsetInCU: 0x2A63F, offset: 0x2A63F, size: 0x8, addend: 0x0, symName: __ZNSt3__110destroy_atB8ue170006I8FileDataLi0EEEvPT_, symObjAddr: 0x4264, symBinAddr: 0x1000082D8, symSize: 0x24 }
  - { offsetInCU: 0x2A678, offset: 0x2A678, size: 0x8, addend: 0x0, symName: __ZNSt3__112__destroy_atB8ue170006I8FileDataLi0EEEvPT_, symObjAddr: 0x4288, symBinAddr: 0x1000082FC, symSize: 0x24 }
  - { offsetInCU: 0x2A6DB, offset: 0x2A6DB, size: 0x8, addend: 0x0, symName: __ZNSt3__14prevB8ue170006IP8FileDataEENS_9enable_ifIXsr29__has_input_iterator_categoryIT_EE5valueES4_E4typeES4_NS_15iterator_traitsIS4_E15difference_typeE, symObjAddr: 0x436C, symBinAddr: 0x1000083E0, symSize: 0x3C }
  - { offsetInCU: 0x2A71F, offset: 0x2A71F, size: 0x8, addend: 0x0, symName: __ZNSt3__121__convert_to_integralB8ue170006El, symObjAddr: 0x43E0, symBinAddr: 0x100008454, symSize: 0x14 }
  - { offsetInCU: 0x2A74C, offset: 0x2A74C, size: 0x8, addend: 0x0, symName: __ZNSt3__19__advanceB8ue170006IP8FileDataEEvRT_NS_15iterator_traitsIS3_E15difference_typeENS_26random_access_iterator_tagE, symObjAddr: 0x43F4, symBinAddr: 0x100008468, symSize: 0x30 }
  - { offsetInCU: 0x2A7E9, offset: 0x2A7E9, size: 0x8, addend: 0x0, symName: __ZNSt3__119__libcpp_deallocateB8ue170006EPvmm, symObjAddr: 0x47C8, symBinAddr: 0x10000883C, symSize: 0x60 }
  - { offsetInCU: 0x2A84F, offset: 0x2A84F, size: 0x8, addend: 0x0, symName: __ZNSt3__127__do_deallocate_handle_sizeB8ue170006IJSt11align_val_tEEEvPvmDpT_, symObjAddr: 0x4828, symBinAddr: 0x10000889C, symSize: 0x30 }
  - { offsetInCU: 0x2A8A3, offset: 0x2A8A3, size: 0x8, addend: 0x0, symName: __ZNSt3__127__do_deallocate_handle_sizeB8ue170006IJEEEvPvmDpT_, symObjAddr: 0x4858, symBinAddr: 0x1000088CC, symSize: 0x28 }
  - { offsetInCU: 0x2A8E2, offset: 0x2A8E2, size: 0x8, addend: 0x0, symName: __ZNSt3__124__libcpp_operator_deleteB8ue170006IJPvSt11align_val_tEEEvDpT_, symObjAddr: 0x4880, symBinAddr: 0x1000088F4, symSize: 0x2C }
  - { offsetInCU: 0x2A92C, offset: 0x2A92C, size: 0x8, addend: 0x0, symName: __ZNSt3__124__libcpp_operator_deleteB8ue170006IJPvEEEvDpT_, symObjAddr: 0x48AC, symBinAddr: 0x100008920, symSize: 0x24 }
  - { offsetInCU: 0x2A962, offset: 0x2A962, size: 0x8, addend: 0x0, symName: __ZNSt3__111__sort_implB8ue170006INS_17_ClassicAlgPolicyENS_11__wrap_iterIP8FileDataEEPFbRKS3_S7_EEEvT0_SA_RT1_, symObjAddr: 0x48D0, symBinAddr: 0x100008944, symSize: 0xA8 }
  - { offsetInCU: 0x2A9C6, offset: 0x2A9C6, size: 0x8, addend: 0x0, symName: __ZNSt3__123__debug_randomize_rangeB8ue170006INS_17_ClassicAlgPolicyENS_11__wrap_iterIP8FileDataEES5_EEvT0_T1_, symObjAddr: 0x4978, symBinAddr: 0x1000089EC, symSize: 0x14 }
  - { offsetInCU: 0x2AA18, offset: 0x2AA18, size: 0x8, addend: 0x0, symName: __ZNSt3__115__sort_dispatchB8ue170006INS_17_ClassicAlgPolicyEP8FileDataPFbRKS2_S5_EEEvT0_S8_RT1_, symObjAddr: 0x498C, symBinAddr: 0x100008A00, symSize: 0x64 }
  - { offsetInCU: 0x2AA97, offset: 0x2AA97, size: 0x8, addend: 0x0, symName: __ZNSt3__113__unwrap_iterB8ue170006INS_11__wrap_iterIP8FileDataEENS_18__unwrap_iter_implIS4_Lb1EEELi0EEEDTclsrT0_8__unwrapclsr3stdE7declvalIT_EEEES8_, symObjAddr: 0x49F0, symBinAddr: 0x100008A64, symSize: 0x2C }
  - { offsetInCU: 0x2AADD, offset: 0x2AADD, size: 0x8, addend: 0x0, symName: __ZNSt3__135__check_strict_weak_ordering_sortedB8ue170006IP8FileDataPFbRKS1_S4_EEEvT_S7_RT0_, symObjAddr: 0x4A1C, symBinAddr: 0x100008A90, symSize: 0x18 }
  - { offsetInCU: 0x2AB34, offset: 0x2AB34, size: 0x8, addend: 0x0, symName: __ZNSt3__17__log2iB8ue170006IlEET_S1_, symObjAddr: 0x4A34, symBinAddr: 0x100008AA8, symSize: 0x54 }
  - { offsetInCU: 0x2AB6C, offset: 0x2AB6C, size: 0x8, addend: 0x0, symName: __ZNSt3__112__libcpp_clzB8ue170006Em, symObjAddr: 0x4F18, symBinAddr: 0x100008F8C, symSize: 0x1C }
  - { offsetInCU: 0x2ADE1, offset: 0x2ADE1, size: 0x8, addend: 0x0, symName: __ZNSt3__124__sort3_maybe_branchlessB8ue170006INS_17_ClassicAlgPolicyERPFbRK8FileDataS4_EPS2_EENS_9enable_ifIXntsr21__use_branchless_sortIT0_T1_EE5valueEvE4typeESB_SB_SB_SA_, symObjAddr: 0x4F68, symBinAddr: 0x100008FDC, symSize: 0x3C }
  - { offsetInCU: 0x2AE53, offset: 0x2AE53, size: 0x8, addend: 0x0, symName: __ZNSt3__124__sort4_maybe_branchlessB8ue170006INS_17_ClassicAlgPolicyERPFbRK8FileDataS4_EPS2_EENS_9enable_ifIXntsr21__use_branchless_sortIT0_T1_EE5valueEvE4typeESB_SB_SB_SB_SA_, symObjAddr: 0x4FA4, symBinAddr: 0x100009018, symSize: 0x44 }
  - { offsetInCU: 0x2AED3, offset: 0x2AED3, size: 0x8, addend: 0x0, symName: __ZNSt3__124__sort5_maybe_branchlessB8ue170006INS_17_ClassicAlgPolicyERPFbRK8FileDataS4_EPS2_EENS_9enable_ifIXntsr21__use_branchless_sortIT0_T1_EE5valueEvE4typeESB_SB_SB_SB_SB_SA_, symObjAddr: 0x4FE8, symBinAddr: 0x10000905C, symSize: 0x4C }
  - { offsetInCU: 0x2AF61, offset: 0x2AF61, size: 0x8, addend: 0x0, symName: __ZNSt3__116__insertion_sortB8ue170006INS_17_ClassicAlgPolicyERPFbRK8FileDataS4_EPS2_EEvT1_S9_T0_, symObjAddr: 0x5034, symBinAddr: 0x1000090A8, symSize: 0x19C }
  - { offsetInCU: 0x2B017, offset: 0x2B017, size: 0x8, addend: 0x0, symName: __ZNSt3__114__partial_sortB8ue170006INS_17_ClassicAlgPolicyERPFbRK8FileDataS4_EPS2_S8_EET1_S9_S9_T2_RT0_, symObjAddr: 0x533C, symBinAddr: 0x1000093B0, symSize: 0x94 }
  - { offsetInCU: 0x2B0A0, offset: 0x2B0A0, size: 0x8, addend: 0x0, symName: __ZNSt3__17__sort3B8ue170006INS_17_ClassicAlgPolicyERPFbRK8FileDataS4_EPS2_EEjT1_S9_S9_T0_, symObjAddr: 0x53D0, symBinAddr: 0x100009444, symSize: 0x158 }
  - { offsetInCU: 0x2B120, offset: 0x2B120, size: 0x8, addend: 0x0, symName: __ZNSt3__19iter_swapB8ue170006IP8FileDataS2_EEvT_T0_, symObjAddr: 0x6210, symBinAddr: 0x10000A284, symSize: 0x2C }
  - { offsetInCU: 0x2B169, offset: 0x2B169, size: 0x8, addend: 0x0, symName: __ZNSt3__14swapB8ue170006I8FileDataEENS_9enable_ifIXaasr21is_move_constructibleIT_EE5valuesr18is_move_assignableIS3_EE5valueEvE4typeERS3_S6_, symObjAddr: 0x623C, symBinAddr: 0x10000A2B0, symSize: 0x50 }
  - { offsetInCU: 0x2B1BB, offset: 0x2B1BB, size: 0x8, addend: 0x0, symName: __ZNSt3__17__sort4B8ue170006INS_17_ClassicAlgPolicyERPFbRK8FileDataS4_EPS2_EEvT1_S9_S9_S9_T0_, symObjAddr: 0x6834, symBinAddr: 0x10000A8A8, symSize: 0xC4 }
  - { offsetInCU: 0x2B237, offset: 0x2B237, size: 0x8, addend: 0x0, symName: __ZNSt3__17__sort5B8ue170006INS_17_ClassicAlgPolicyERPFbRK8FileDataS4_EPS2_EEvT1_S9_S9_S9_S9_T0_, symObjAddr: 0x68F8, symBinAddr: 0x10000A96C, symSize: 0xF8 }
  - { offsetInCU: 0x2B2E5, offset: 0x2B2E5, size: 0x8, addend: 0x0, symName: __ZNSt3__123__debug_randomize_rangeB8ue170006INS_17_ClassicAlgPolicyEP8FileDataS3_EEvT0_T1_, symObjAddr: 0x6A34, symBinAddr: 0x10000AAA8, symSize: 0x14 }
  - { offsetInCU: 0x2B337, offset: 0x2B337, size: 0x8, addend: 0x0, symName: __ZNSt3__119__partial_sort_implB8ue170006INS_17_ClassicAlgPolicyERPFbRK8FileDataS4_EPS2_S8_EET1_S9_S9_T2_OT0_, symObjAddr: 0x6A48, symBinAddr: 0x10000AABC, symSize: 0x114 }
  - { offsetInCU: 0x2B3CE, offset: 0x2B3CE, size: 0x8, addend: 0x0, symName: __ZNSt3__111__make_heapB8ue170006INS_17_ClassicAlgPolicyERPFbRK8FileDataS4_EPS2_EEvT1_S9_OT0_, symObjAddr: 0x6B5C, symBinAddr: 0x10000ABD0, symSize: 0xC0 }
  - { offsetInCU: 0x2B471, offset: 0x2B471, size: 0x8, addend: 0x0, symName: __ZNSt3__111__sort_heapB8ue170006INS_17_ClassicAlgPolicyERPFbRK8FileDataS4_EPS2_EEvT1_S9_OT0_, symObjAddr: 0x6E98, symBinAddr: 0x10000AF0C, symSize: 0xA8 }
  - { offsetInCU: 0x2B514, offset: 0x2B514, size: 0x8, addend: 0x0, symName: __ZNSt3__110__pop_heapB8ue170006INS_17_ClassicAlgPolicyEPFbRK8FileDataS4_EPS2_EEvT1_S8_RT0_NS_15iterator_traitsIS8_E15difference_typeE, symObjAddr: 0x6F40, symBinAddr: 0x10000AFB4, symSize: 0x138 }
  - { offsetInCU: 0x2B5BE, offset: 0x2B5BE, size: 0x8, addend: 0x0, symName: __ZNSt3__19__sift_upB8ue170006INS_17_ClassicAlgPolicyERPFbRK8FileDataS4_EPS2_EEvT1_S9_OT0_NS_15iterator_traitsIS9_E15difference_typeE, symObjAddr: 0x7184, symBinAddr: 0x10000B1F8, symSize: 0x178 }
  - { offsetInCU: 0x2B661, offset: 0x2B661, size: 0x8, addend: 0x0, symName: __ZNSt3__122__populate_left_bitsetB8ue170006IRPFbRK8FileDataS3_EPS1_S1_EEvT0_T_RT1_Ry, symObjAddr: 0x72FC, symBinAddr: 0x10000B370, symSize: 0xAC }
  - { offsetInCU: 0x2B71D, offset: 0x2B71D, size: 0x8, addend: 0x0, symName: __ZNSt3__123__populate_right_bitsetB8ue170006IRPFbRK8FileDataS3_EPS1_S1_EEvT0_T_RT1_Ry, symObjAddr: 0x73A8, symBinAddr: 0x10000B41C, symSize: 0xA4 }
  - { offsetInCU: 0x2B7D9, offset: 0x2B7D9, size: 0x8, addend: 0x0, symName: __ZNSt3__117__swap_bitmap_posB8ue170006INS_17_ClassicAlgPolicyEP8FileDataEEvT0_S4_RyS5_, symObjAddr: 0x744C, symBinAddr: 0x10000B4C0, symSize: 0x104 }
  - { offsetInCU: 0x2B87B, offset: 0x2B87B, size: 0x8, addend: 0x0, symName: __ZNSt3__133__bitset_partition_partial_blocksB8ue170006INS_17_ClassicAlgPolicyERPFbRK8FileDataS4_EPS2_S2_EEvRT1_SA_T0_RT2_RySE_, symObjAddr: 0x7550, symBinAddr: 0x10000B5C4, symSize: 0x2F8 }
  - { offsetInCU: 0x2B9FD, offset: 0x2B9FD, size: 0x8, addend: 0x0, symName: __ZNSt3__19make_pairB8ue170006IRP8FileDataRbEENS_4pairINS_18__unwrap_ref_decayIT_E4typeENS6_IT0_E4typeEEEOS7_OSA_, symObjAddr: 0x7A30, symBinAddr: 0x10000BAA4, symSize: 0x38 }
  - { offsetInCU: 0x2BA4D, offset: 0x2BA4D, size: 0x8, addend: 0x0, symName: __ZNSt3__112__libcpp_ctzB8ue170006Ey, symObjAddr: 0x7A68, symBinAddr: 0x10000BADC, symSize: 0x20 }
  - { offsetInCU: 0x2BA7A, offset: 0x2BA7A, size: 0x8, addend: 0x0, symName: __ZNSt3__113__libcpp_blsrB8ue170006Ey, symObjAddr: 0x7A88, symBinAddr: 0x10000BAFC, symSize: 0x2C }
  - { offsetInCU: 0x2BAA7, offset: 0x2BAA7, size: 0x8, addend: 0x0, symName: __ZNSt3__112__libcpp_clzB8ue170006Ey, symObjAddr: 0x7AE8, symBinAddr: 0x10000BB5C, symSize: 0x1C }
  - { offsetInCU: 0x2BBFB, offset: 0x2BBFB, size: 0x8, addend: 0x0, symName: __ZNSt3__112__to_addressB8ue170006INS_11__wrap_iterIP8FileDataEEvEEu7__decayIDTclsr19__to_address_helperIT_EE6__callclsr3stdE7declvalIRKS5_EEEEES7_, symObjAddr: 0x7BA0, symBinAddr: 0x10000BC14, symSize: 0x24 }
  - { offsetInCU: 0x2BC9A, offset: 0x2BC9A, size: 0x8, addend: 0x0, symName: __ZNSt3__122__make_exception_guardB8ue170006INS_6vectorINS1_I8FileDataNS_9allocatorIS2_EEEENS3_IS5_EEE16__destroy_vectorEEENS_28__exception_guard_exceptionsIT_EESA_, symObjAddr: 0x7DCC, symBinAddr: 0x10000BE40, symSize: 0x40 }
  - { offsetInCU: 0x2BCD0, offset: 0x2BCD0, size: 0x8, addend: 0x0, symName: __ZNSt3__119__allocate_at_leastB8ue170006INS_9allocatorINS_6vectorI8FileDataNS1_IS3_EEEEEEEENS_19__allocation_resultINS_16allocator_traitsIT_E7pointerEEERS9_m, symObjAddr: 0x81C0, symBinAddr: 0x10000C234, symSize: 0x40 }
  - { offsetInCU: 0x2BD14, offset: 0x2BD14, size: 0x8, addend: 0x0, symName: __ZNSt3__112__to_addressB8ue170006INS_6vectorI8FileDataNS_9allocatorIS2_EEEEEEPT_S7_, symObjAddr: 0x84F4, symBinAddr: 0x10000C568, symSize: 0x14 }
  - { offsetInCU: 0x2BD71, offset: 0x2BD71, size: 0x8, addend: 0x0, symName: __ZNSt3__112construct_atB8ue170006INS_6vectorI8FileDataNS_9allocatorIS2_EEEEJEPS5_EEPT_S8_DpOT0_, symObjAddr: 0x8644, symBinAddr: 0x10000C6B8, symSize: 0x34 }
  - { offsetInCU: 0x2BDD0, offset: 0x2BDD0, size: 0x8, addend: 0x0, symName: __ZNSt3__110destroy_atB8ue170006INS_6vectorI8FileDataNS_9allocatorIS2_EEEELi0EEEvPT_, symObjAddr: 0x895C, symBinAddr: 0x10000C9D0, symSize: 0x24 }
  - { offsetInCU: 0x2BE09, offset: 0x2BE09, size: 0x8, addend: 0x0, symName: __ZNSt3__112__destroy_atB8ue170006INS_6vectorI8FileDataNS_9allocatorIS2_EEEELi0EEEvPT_, symObjAddr: 0x8980, symBinAddr: 0x10000C9F4, symSize: 0x24 }
  - { offsetInCU: 0x2BE42, offset: 0x2BE42, size: 0x8, addend: 0x0, symName: __ZNSt3__122__make_exception_guardB8ue170006INS_6vectorImNS_9allocatorImEEE16__destroy_vectorEEENS_28__exception_guard_exceptionsIT_EES7_, symObjAddr: 0x8B28, symBinAddr: 0x10000CB9C, symSize: 0x40 }
  - { offsetInCU: 0x2BE78, offset: 0x2BE78, size: 0x8, addend: 0x0, symName: __ZNSt3__119__allocate_at_leastB8ue170006INS_9allocatorImEEEENS_19__allocation_resultINS_16allocator_traitsIT_E7pointerEEERS5_m, symObjAddr: 0x8F1C, symBinAddr: 0x10000CF90, symSize: 0x40 }
  - { offsetInCU: 0x2BEBC, offset: 0x2BEBC, size: 0x8, addend: 0x0, symName: __ZNSt3__112__to_addressB8ue170006ImEEPT_S2_, symObjAddr: 0x9230, symBinAddr: 0x10000D2A4, symSize: 0x14 }
  - { offsetInCU: 0x2BF19, offset: 0x2BF19, size: 0x8, addend: 0x0, symName: __ZNSt3__112construct_atB8ue170006ImJRKmEPmEEPT_S5_DpOT0_, symObjAddr: 0x9380, symBinAddr: 0x10000D3F4, symSize: 0x2C }
  - { offsetInCU: 0x2BF8C, offset: 0x2BF8C, size: 0x8, addend: 0x0, symName: __ZNSt3__110destroy_atB8ue170006ImLi0EEEvPT_, symObjAddr: 0x9674, symBinAddr: 0x10000D6E8, symSize: 0x24 }
  - { offsetInCU: 0x2BFC5, offset: 0x2BFC5, size: 0x8, addend: 0x0, symName: __ZNSt3__112__destroy_atB8ue170006ImLi0EEEvPT_, symObjAddr: 0x9698, symBinAddr: 0x10000D70C, symSize: 0x10 }
  - { offsetInCU: 0x2BFFE, offset: 0x2BFFE, size: 0x8, addend: 0x0, symName: __ZNSt3__1eqB8ue170006IP8FileDataEEbRKNS_11__wrap_iterIT_EES7_, symObjAddr: 0x9710, symBinAddr: 0x10000D784, symSize: 0x48 }
  - { offsetInCU: 0x2C042, offset: 0x2C042, size: 0x8, addend: 0x0, symName: __ZNSt3__111min_elementB8ue170006INS_11__wrap_iterIPmEENS_6__lessIvvEEEET_S6_S6_T0_, symObjAddr: 0x9758, symBinAddr: 0x10000D7CC, symSize: 0x48 }
  - { offsetInCU: 0x2C09D, offset: 0x2C09D, size: 0x8, addend: 0x0, symName: __ZNSt3__113__min_elementB8ue170006IRNS_6__lessIvvEENS_11__wrap_iterIPmEES6_EET0_S7_T1_T_, symObjAddr: 0x97A0, symBinAddr: 0x10000D814, symSize: 0x5C }
  - { offsetInCU: 0x2C10F, offset: 0x2C10F, size: 0x8, addend: 0x0, symName: __ZNSt3__113__min_elementB8ue170006IRNS_6__lessIvvEENS_11__wrap_iterIPmEES6_NS_10__identityEEET0_S8_T1_T_RT2_, symObjAddr: 0x97FC, symBinAddr: 0x10000D870, symSize: 0xF0 }
  - { offsetInCU: 0x2C198, offset: 0x2C198, size: 0x8, addend: 0x0, symName: __ZNSt3__1eqB8ue170006IPmEEbRKNS_11__wrap_iterIT_EES6_, symObjAddr: 0x98EC, symBinAddr: 0x10000D960, symSize: 0x48 }
  - { offsetInCU: 0x2C1DC, offset: 0x2C1DC, size: 0x8, addend: 0x0, symName: __ZNSt3__1neB8ue170006IPmEEbRKNS_11__wrap_iterIT_EES6_, symObjAddr: 0x9934, symBinAddr: 0x10000D9A8, symSize: 0x34 }
  - { offsetInCU: 0x2C220, offset: 0x2C220, size: 0x8, addend: 0x0, symName: __ZNSt3__18__invokeB8ue170006IRNS_6__lessIvvEEJRmS4_EEEDTclclsr3stdE7declvalIT_EEspclsr3stdE7declvalIT0_EEEEOS5_DpOS6_, symObjAddr: 0x9988, symBinAddr: 0x10000D9FC, symSize: 0x38 }
  - { offsetInCU: 0x2C286, offset: 0x2C286, size: 0x8, addend: 0x0, symName: __ZNSt3__18__invokeB8ue170006IRNS_10__identityEJRmEEEDTclclsr3stdE7declvalIT_EEspclsr3stdE7declvalIT0_EEEEOS4_DpOS5_, symObjAddr: 0x99C0, symBinAddr: 0x10000DA34, symSize: 0x2C }
  - { offsetInCU: 0x2C305, offset: 0x2C305, size: 0x8, addend: 0x0, symName: __ZNSt3__110__distanceB8ue170006INS_11__wrap_iterIPmEEEENS_15iterator_traitsIT_E15difference_typeES5_S5_NS_26random_access_iterator_tagE, symObjAddr: 0x9AB8, symBinAddr: 0x10000DB2C, symSize: 0x30 }
  - { offsetInCU: 0x2C353, offset: 0x2C353, size: 0x8, addend: 0x0, symName: __ZNSt3__1miB8ue170006IPmS1_EEDTmicldtfp_4baseEcldtfp0_4baseEERKNS_11__wrap_iterIT_EERKNS3_IT0_EE, symObjAddr: 0x9AE8, symBinAddr: 0x10000DB5C, symSize: 0x48 }
  - { offsetInCU: 0x2C3A0, offset: 0x2C3A0, size: 0x8, addend: 0x0, symName: __ZNSt3__112construct_atB8ue170006I8FileDataJRKS1_EPS1_EEPT_S6_DpOT0_, symObjAddr: 0x9CC8, symBinAddr: 0x10000DD3C, symSize: 0x3C }
  - { offsetInCU: 0x2C413, offset: 0x2C413, size: 0x8, addend: 0x0, symName: __ZNSt3__13maxB8ue170006ImEERKT_S3_S3_, symObjAddr: 0x9F38, symBinAddr: 0x10000DFAC, symSize: 0x2C }
  - { offsetInCU: 0x2C457, offset: 0x2C457, size: 0x8, addend: 0x0, symName: __ZNSt3__13maxB8ue170006ImNS_6__lessIvvEEEERKT_S5_S5_T0_, symObjAddr: 0x9F64, symBinAddr: 0x10000DFD8, symSize: 0x54 }
  - { offsetInCU: 0x2C4B2, offset: 0x2C4B2, size: 0x8, addend: 0x0, symName: __ZNSt3__142__uninitialized_allocator_move_if_noexceptB8ue170006INS_9allocatorI8FileDataEENS_16reverse_iteratorIPS2_EES6_S6_EET2_RT_T0_T1_S7_, symObjAddr: 0xA1F0, symBinAddr: 0x10000E264, symSize: 0x124 }
  - { offsetInCU: 0x2C553, offset: 0x2C553, size: 0x8, addend: 0x0, symName: __ZNSt3__14swapB8ue170006IP8FileDataEENS_9enable_ifIXaasr21is_move_constructibleIT_EE5valuesr18is_move_assignableIS4_EE5valueEvE4typeERS4_S7_, symObjAddr: 0xA314, symBinAddr: 0x10000E388, symSize: 0x3C }
  - { offsetInCU: 0x2C5A5, offset: 0x2C5A5, size: 0x8, addend: 0x0, symName: __ZNSt3__122__make_exception_guardB8ue170006INS_29_AllocatorDestroyRangeReverseINS_9allocatorI8FileDataEENS_16reverse_iteratorIPS3_EEEEEENS_28__exception_guard_exceptionsIT_EESA_, symObjAddr: 0xA350, symBinAddr: 0x10000E3C4, symSize: 0x4C }
  - { offsetInCU: 0x2C5DC, offset: 0x2C5DC, size: 0x8, addend: 0x0, symName: __ZNSt3__112construct_atB8ue170006I8FileDataJS1_EPS1_EEPT_S4_DpOT0_, symObjAddr: 0xA51C, symBinAddr: 0x10000E590, symSize: 0x3C }
  - { offsetInCU: 0x2C64F, offset: 0x2C64F, size: 0x8, addend: 0x0, symName: __ZNSt3__119__allocator_destroyB8ue170006INS_9allocatorI8FileDataEENS_16reverse_iteratorINS4_IPS2_EEEES7_EEvRT_T0_T1_, symObjAddr: 0xA65C, symBinAddr: 0x10000E6D0, symSize: 0x70 }
  - { offsetInCU: 0x2C6B5, offset: 0x2C6B5, size: 0x8, addend: 0x0, symName: __ZNSt3__1neB8ue170006INS_16reverse_iteratorIP8FileDataEES4_EEbRKNS1_IT_EERKNS1_IT0_EE, symObjAddr: 0xA708, symBinAddr: 0x10000E77C, symSize: 0x60 }
  - { offsetInCU: 0x2C702, offset: 0x2C702, size: 0x8, addend: 0x0, symName: __ZNSt3__112__to_addressB8ue170006INS_16reverse_iteratorINS1_IP8FileDataEEEEvEEu7__decayIDTclsr19__to_address_helperIT_EE6__callclsr3stdE7declvalIRKS6_EEEEES8_, symObjAddr: 0xA768, symBinAddr: 0x10000E7DC, symSize: 0x24 }
  - { offsetInCU: 0x2C763, offset: 0x2C763, size: 0x8, addend: 0x0, symName: __ZNSt3__14prevB8ue170006INS_16reverse_iteratorIP8FileDataEEEENS_9enable_ifIXsr29__has_input_iterator_categoryIT_EE5valueES6_E4typeES6_NS_15iterator_traitsIS6_E15difference_typeE, symObjAddr: 0xA864, symBinAddr: 0x10000E8D8, symSize: 0x4C }
  - { offsetInCU: 0x2C7A7, offset: 0x2C7A7, size: 0x8, addend: 0x0, symName: __ZNSt3__19__advanceB8ue170006INS_16reverse_iteratorIP8FileDataEEEEvRT_NS_15iterator_traitsIS5_E15difference_typeENS_26random_access_iterator_tagE, symObjAddr: 0xA8E8, symBinAddr: 0x10000E95C, symSize: 0x2C }
  - { offsetInCU: 0x2C7F1, offset: 0x2C7F1, size: 0x8, addend: 0x0, symName: __ZNSt3__118__constexpr_strlenB8ue170006EPKc, symObjAddr: 0xADC0, symBinAddr: 0x10000EE34, symSize: 0x24 }
  - { offsetInCU: 0x2C81E, offset: 0x2C81E, size: 0x8, addend: 0x0, symName: __ZNSt3__112__to_addressB8ue170006IKcEEPT_S3_, symObjAddr: 0xAE0C, symBinAddr: 0x10000EE80, symSize: 0x14 }
  - { offsetInCU: 0x2C887, offset: 0x2C887, size: 0x8, addend: 0x0, symName: __ZNSt3__13minB8ue170006IlNS_6__lessIvvEEEERKT_S5_S5_T0_, symObjAddr: 0xAED8, symBinAddr: 0x10000EF4C, symSize: 0x54 }
  - { offsetInCU: 0x2C8E2, offset: 0x2C8E2, size: 0x8, addend: 0x0, symName: __ZNSt3__121__cxx_atomic_exchangeB8ue170006IbEET_PNS_22__cxx_atomic_base_implIS1_EES1_NS_12memory_orderE, symObjAddr: 0xB0D4, symBinAddr: 0x10000F148, symSize: 0xD4 }
  - { offsetInCU: 0x2C938, offset: 0x2C938, size: 0x8, addend: 0x0, symName: __ZNSt3__118__cxx_atomic_storeB8ue170006IbEEvPNS_22__cxx_atomic_base_implIT_EES2_NS_12memory_orderE, symObjAddr: 0xB21C, symBinAddr: 0x10000F290, symSize: 0x90 }
  - { offsetInCU: 0x2C98A, offset: 0x2C98A, size: 0x8, addend: 0x0, symName: __ZNSt3__1eqB8ue170006IcNS_11char_traitsIcEENS_9allocatorIcEEEEbRKNS_12basic_stringIT_T0_T1_EEPKS6_, symObjAddr: 0xB4C4, symBinAddr: 0x10000F538, symSize: 0x5C }
  - { offsetInCU: 0x2C9E3, offset: 0x2C9E3, size: 0x8, addend: 0x0, symName: __ZNSt3__1eqB8ue170006IcNS_11char_traitsIcEEEEbNS_17basic_string_viewIT_T0_EES6_, symObjAddr: 0xB90C, symBinAddr: 0x10000F980, symSize: 0xB0 }
  - { offsetInCU: 0x2CA33, offset: 0x2CA33, size: 0x8, addend: 0x0, symName: __ZNSt3__128__char_traits_length_checkedB8ue170006INS_11char_traitsIcEEEEmPKNT_9char_typeE, symObjAddr: 0xBC8C, symBinAddr: 0x10000FD00, symSize: 0x24 }
  - { offsetInCU: 0x2CA6B, offset: 0x2CA6B, size: 0x8, addend: 0x0, symName: __ZNSt3__112construct_atB8ue170006I8FileDataJRPhRA1024_cRmEPS1_EEPT_S9_DpOT0_, symObjAddr: 0xBEC0, symBinAddr: 0x10000FF34, symSize: 0x9C }
  - { offsetInCU: 0x2CB04, offset: 0x2CB04, size: 0x8, addend: 0x0, symName: __ZNSt3__112construct_atB8ue170006I8FileDataJRPhRPKcRmEPS1_EEPT_SA_DpOT0_, symObjAddr: 0xC1B8, symBinAddr: 0x10001022C, symSize: 0xA0 }
  - { offsetInCU: 0x2CB9D, offset: 0x2CB9D, size: 0x8, addend: 0x0, symName: __ZNSt3__112__to_addressB8ue170006IPN2ff7ff_nodeEEEPT_S5_, symObjAddr: 0xC604, symBinAddr: 0x100010678, symSize: 0x14 }
  - { offsetInCU: 0x2CBFA, offset: 0x2CBFA, size: 0x8, addend: 0x0, symName: __ZNSt3__112construct_atB8ue170006IPN2ff7ff_nodeEJS3_EPS3_EEPT_S6_DpOT0_, symObjAddr: 0xC688, symBinAddr: 0x1000106FC, symSize: 0x2C }
  - { offsetInCU: 0x2CC6D, offset: 0x2CC6D, size: 0x8, addend: 0x0, symName: __ZNSt3__119__allocate_at_leastB8ue170006INS_9allocatorIPN2ff7ff_nodeEEEEENS_19__allocation_resultINS_16allocator_traitsIT_E7pointerEEERS8_m, symObjAddr: 0xCC1C, symBinAddr: 0x100010C90, symSize: 0x40 }
  - { offsetInCU: 0x2CCB1, offset: 0x2CCB1, size: 0x8, addend: 0x0, symName: __ZNSt3__142__uninitialized_allocator_move_if_noexceptB8ue170006INS_9allocatorIPN2ff7ff_nodeEEENS_16reverse_iteratorIPS4_EES8_S4_vEET1_RT_T0_SC_S9_, symObjAddr: 0xCE88, symBinAddr: 0x100010EFC, symSize: 0x78 }
  - { offsetInCU: 0x2CD30, offset: 0x2CD30, size: 0x8, addend: 0x0, symName: __ZNSt3__14swapB8ue170006IPPN2ff7ff_nodeEEENS_9enable_ifIXaasr21is_move_constructibleIT_EE5valuesr18is_move_assignableIS6_EE5valueEvE4typeERS6_S9_, symObjAddr: 0xCF4C, symBinAddr: 0x100010FC0, symSize: 0x3C }
  - { offsetInCU: 0x2CD82, offset: 0x2CD82, size: 0x8, addend: 0x0, symName: __ZNSt3__14moveB8ue170006INS_16reverse_iteratorIPPN2ff7ff_nodeEEES6_EET0_T_S8_S7_, symObjAddr: 0xD07C, symBinAddr: 0x1000110F0, symSize: 0x78 }
  - { offsetInCU: 0x2CDDD, offset: 0x2CDDD, size: 0x8, addend: 0x0, symName: __ZNSt3__16__moveB8ue170006INS_17_ClassicAlgPolicyENS_16reverse_iteratorIPPN2ff7ff_nodeEEES7_S7_EENS_4pairIT0_T2_EES9_T1_SA_, symObjAddr: 0xD0F4, symBinAddr: 0x100011168, symSize: 0x64 }
  - { offsetInCU: 0x2CE4A, offset: 0x2CE4A, size: 0x8, addend: 0x0, symName: __ZNSt3__123__dispatch_copy_or_moveB8ue170006INS_17_ClassicAlgPolicyENS_11__move_loopIS1_EENS_14__move_trivialENS_16reverse_iteratorIPPN2ff7ff_nodeEEESA_SA_EENS_4pairIT2_T4_EESC_T3_SD_, symObjAddr: 0xD158, symBinAddr: 0x1000111CC, symSize: 0x64 }
  - { offsetInCU: 0x2CEC9, offset: 0x2CEC9, size: 0x8, addend: 0x0, symName: __ZNSt3__121__unwrap_and_dispatchB8ue170006INS_10__overloadINS_11__move_loopINS_17_ClassicAlgPolicyEEENS_14__move_trivialEEENS_16reverse_iteratorIPPN2ff7ff_nodeEEESC_SC_Li0EEENS_4pairIT0_T2_EESE_T1_SF_, symObjAddr: 0xD1BC, symBinAddr: 0x100011230, symSize: 0x12C }
  - { offsetInCU: 0x2CF5B, offset: 0x2CF5B, size: 0x8, addend: 0x0, symName: __ZNSt3__114__unwrap_rangeB8ue170006INS_16reverse_iteratorIPPN2ff7ff_nodeEEES6_EEDaT_T0_, symObjAddr: 0xD2E8, symBinAddr: 0x10001135C, symSize: 0x4C }
  - { offsetInCU: 0x2D07C, offset: 0x2D07C, size: 0x8, addend: 0x0, symName: __ZNSt3__113__unwrap_iterB8ue170006INS_16reverse_iteratorIPPN2ff7ff_nodeEEENS_18__unwrap_iter_implIS6_Lb0EEELi0EEEDTclsrT0_8__unwrapclsr3stdE7declvalIT_EEEESA_, symObjAddr: 0xD3D4, symBinAddr: 0x100011448, symSize: 0x44 }
  - { offsetInCU: 0x2D0C2, offset: 0x2D0C2, size: 0x8, addend: 0x0, symName: __ZNSt3__19make_pairB8ue170006INS_16reverse_iteratorIPPN2ff7ff_nodeEEES6_EENS_4pairINS_18__unwrap_ref_decayIT_E4typeENS8_IT0_E4typeEEEOS9_OSC_, symObjAddr: 0xD418, symBinAddr: 0x10001148C, symSize: 0x38 }
  - { offsetInCU: 0x2D112, offset: 0x2D112, size: 0x8, addend: 0x0, symName: __ZNSt3__114__rewrap_rangeB8ue170006INS_16reverse_iteratorIPPN2ff7ff_nodeEEES6_S6_EET0_S7_T1_, symObjAddr: 0xD450, symBinAddr: 0x1000114C4, symSize: 0x5C }
  - { offsetInCU: 0x2D168, offset: 0x2D168, size: 0x8, addend: 0x0, symName: __ZNSt3__113__rewrap_iterB8ue170006INS_16reverse_iteratorIPPN2ff7ff_nodeEEES6_NS_18__unwrap_iter_implIS6_Lb0EEEEET_S9_T0_, symObjAddr: 0xD4AC, symBinAddr: 0x100011520, symSize: 0x74 }
  - { offsetInCU: 0x2D20E, offset: 0x2D20E, size: 0x8, addend: 0x0, symName: __ZNSt3__1neB8ue170006IPPN2ff7ff_nodeES4_EEbRKNS_16reverse_iteratorIT_EERKNS5_IT0_EE, symObjAddr: 0xD614, symBinAddr: 0x100011688, symSize: 0x48 }
  - { offsetInCU: 0x2D2C7, offset: 0x2D2C7, size: 0x8, addend: 0x0, symName: __ZNSt3__110destroy_atB8ue170006IPN2ff7ff_nodeELi0EEEvPT_, symObjAddr: 0xD9A0, symBinAddr: 0x100011A14, symSize: 0x24 }
  - { offsetInCU: 0x2D300, offset: 0x2D300, size: 0x8, addend: 0x0, symName: __ZNSt3__112__destroy_atB8ue170006IPN2ff7ff_nodeELi0EEEvPT_, symObjAddr: 0xD9C4, symBinAddr: 0x100011A38, symSize: 0x10 }
  - { offsetInCU: 0x2D339, offset: 0x2D339, size: 0x8, addend: 0x0, symName: __ZNSt3__122__cxx_atomic_fetch_subB8ue170006ImEET_PNS_22__cxx_atomic_base_implIS1_EES1_NS_12memory_orderE, symObjAddr: 0x13364, symBinAddr: 0x1000173D8, symSize: 0xD8 }
  - { offsetInCU: 0x2D38F, offset: 0x2D38F, size: 0x8, addend: 0x0, symName: __ZNSt3__122__cxx_atomic_fetch_addB8ue170006ImEET_PNS_22__cxx_atomic_base_implIS1_EES1_NS_12memory_orderE, symObjAddr: 0x135CC, symBinAddr: 0x100017640, symSize: 0xC4 }
  - { offsetInCU: 0x2D3E5, offset: 0x2D3E5, size: 0x8, addend: 0x0, symName: __ZNSt3__1neB8ue170006ERKNS_16__deque_iteratorIPN2ff7ff_nodeEPS3_RS3_PS4_lLl512EEES9_, symObjAddr: 0x17204, symBinAddr: 0x10001B278, symSize: 0x34 }
  - { offsetInCU: 0x2D423, offset: 0x2D423, size: 0x8, addend: 0x0, symName: __ZNSt3__1eqB8ue170006ERKNS_16__deque_iteratorIPN2ff7ff_nodeEPS3_RS3_PS4_lLl512EEES9_, symObjAddr: 0x173BC, symBinAddr: 0x10001B430, symSize: 0x30 }
  - { offsetInCU: 0x2D461, offset: 0x2D461, size: 0x8, addend: 0x0, symName: __ZNSt3__112__to_addressB8ue170006IPPN2ff7ff_nodeEEEPT_S6_, symObjAddr: 0x177A8, symBinAddr: 0x10001B81C, symSize: 0x14 }
  - { offsetInCU: 0x2D497, offset: 0x2D497, size: 0x8, addend: 0x0, symName: __ZNSt3__110destroy_atB8ue170006IPPN2ff7ff_nodeELi0EEEvPT_, symObjAddr: 0x177BC, symBinAddr: 0x10001B830, symSize: 0x24 }
  - { offsetInCU: 0x2D4D0, offset: 0x2D4D0, size: 0x8, addend: 0x0, symName: __ZNSt3__112__destroy_atB8ue170006IPPN2ff7ff_nodeELi0EEEvPT_, symObjAddr: 0x177E0, symBinAddr: 0x10001B854, symSize: 0x10 }
  - { offsetInCU: 0x2D527, offset: 0x2D527, size: 0x8, addend: 0x0, symName: __ZNSt3__1neB8ue170006ERKNS_5dequeIPN2ff7ff_nodeENS_9allocatorIS3_EEE13__deque_rangeES9_, symObjAddr: 0x1900C, symBinAddr: 0x10001D080, symSize: 0x34 }
  - { offsetInCU: 0x2D565, offset: 0x2D565, size: 0x8, addend: 0x0, symName: __ZNSt3__14swapB8ue170006IPPPN2ff7ff_nodeEEENS_9enable_ifIXaasr21is_move_constructibleIT_EE5valuesr18is_move_assignableIS7_EE5valueEvE4typeERS7_SA_, symObjAddr: 0x1A19C, symBinAddr: 0x10001E210, symSize: 0x3C }
  - { offsetInCU: 0x2D5B7, offset: 0x2D5B7, size: 0x8, addend: 0x0, symName: __ZNSt3__14moveB8ue170006IPPPN2ff7ff_nodeES5_EET0_T_S7_S6_, symObjAddr: 0x1A254, symBinAddr: 0x10001E2C8, symSize: 0x40 }
  - { offsetInCU: 0x2D612, offset: 0x2D612, size: 0x8, addend: 0x0, symName: __ZNSt3__16__moveB8ue170006INS_17_ClassicAlgPolicyEPPPN2ff7ff_nodeES6_S6_EENS_4pairIT0_T2_EES8_T1_S9_, symObjAddr: 0x1A358, symBinAddr: 0x10001E3CC, symSize: 0x44 }
  - { offsetInCU: 0x2D67F, offset: 0x2D67F, size: 0x8, addend: 0x0, symName: __ZNSt3__123__dispatch_copy_or_moveB8ue170006INS_17_ClassicAlgPolicyENS_11__move_loopIS1_EENS_14__move_trivialEPPPN2ff7ff_nodeES9_S9_EENS_4pairIT2_T4_EESB_T3_SC_, symObjAddr: 0x1A39C, symBinAddr: 0x10001E410, symSize: 0x44 }
  - { offsetInCU: 0x2D6FE, offset: 0x2D6FE, size: 0x8, addend: 0x0, symName: __ZNSt3__121__unwrap_and_dispatchB8ue170006INS_10__overloadINS_11__move_loopINS_17_ClassicAlgPolicyEEENS_14__move_trivialEEEPPPN2ff7ff_nodeESB_SB_Li0EEENS_4pairIT0_T2_EESD_T1_SE_, symObjAddr: 0x1A3E0, symBinAddr: 0x10001E454, symSize: 0xB4 }
  - { offsetInCU: 0x2D78E, offset: 0x2D78E, size: 0x8, addend: 0x0, symName: __ZNSt3__114__unwrap_rangeB8ue170006IPPPN2ff7ff_nodeES5_EEDaT_T0_, symObjAddr: 0x1A494, symBinAddr: 0x10001E508, symSize: 0x3C }
  - { offsetInCU: 0x2D991, offset: 0x2D991, size: 0x8, addend: 0x0, symName: __ZNSt3__113__unwrap_iterB8ue170006IPPPN2ff7ff_nodeENS_18__unwrap_iter_implIS5_Lb1EEELi0EEEDTclsrT0_8__unwrapclsr3stdE7declvalIT_EEEES9_, symObjAddr: 0x1A518, symBinAddr: 0x10001E58C, symSize: 0x24 }
  - { offsetInCU: 0x2D9D7, offset: 0x2D9D7, size: 0x8, addend: 0x0, symName: __ZNSt3__19make_pairB8ue170006IPPPN2ff7ff_nodeES5_EENS_4pairINS_18__unwrap_ref_decayIT_E4typeENS7_IT0_E4typeEEEOS8_OSB_, symObjAddr: 0x1A53C, symBinAddr: 0x10001E5B0, symSize: 0x38 }
  - { offsetInCU: 0x2DA27, offset: 0x2DA27, size: 0x8, addend: 0x0, symName: __ZNSt3__114__rewrap_rangeB8ue170006IPPPN2ff7ff_nodeES5_S5_EET0_S6_T1_, symObjAddr: 0x1A574, symBinAddr: 0x10001E5E8, symSize: 0x2C }
  - { offsetInCU: 0x2DA7D, offset: 0x2DA7D, size: 0x8, addend: 0x0, symName: __ZNSt3__113__rewrap_iterB8ue170006IPPPN2ff7ff_nodeES5_NS_18__unwrap_iter_implIS5_Lb1EEEEET_S8_T0_, symObjAddr: 0x1A5A0, symBinAddr: 0x10001E614, symSize: 0x3C }
  - { offsetInCU: 0x2DB23, offset: 0x2DB23, size: 0x8, addend: 0x0, symName: __ZNSt3__119__copy_trivial_implB8ue170006IPPN2ff7ff_nodeES4_EENS_4pairIPT_PT0_EES7_S7_S9_, symObjAddr: 0x1A6A4, symBinAddr: 0x10001E718, symSize: 0x80 }
  - { offsetInCU: 0x2DB8C, offset: 0x2DB8C, size: 0x8, addend: 0x0, symName: __ZNSt3__119__constexpr_memmoveB8ue170006IPPN2ff7ff_nodeES4_Li0EEEPT_S6_PT0_NS_15__element_countE, symObjAddr: 0x1A724, symBinAddr: 0x10001E798, symSize: 0x64 }
  - { offsetInCU: 0x2DBFC, offset: 0x2DBFC, size: 0x8, addend: 0x0, symName: __ZNSt3__19make_pairB8ue170006IRPPPN2ff7ff_nodeES5_EENS_4pairINS_18__unwrap_ref_decayIT_E4typeENS8_IT0_E4typeEEEOS9_OSC_, symObjAddr: 0x1A788, symBinAddr: 0x10001E7FC, symSize: 0x38 }
  - { offsetInCU: 0x2DC9F, offset: 0x2DC9F, size: 0x8, addend: 0x0, symName: __ZNSt3__18distanceB8ue170006INS_13move_iteratorIPPPN2ff7ff_nodeEEEEENS_15iterator_traitsIT_E15difference_typeES9_S9_, symObjAddr: 0x1A9AC, symBinAddr: 0x10001EA20, symSize: 0x3C }
  - { offsetInCU: 0x2DD0A, offset: 0x2DD0A, size: 0x8, addend: 0x0, symName: __ZNSt3__112construct_atB8ue170006IPPN2ff7ff_nodeEJS4_EPS4_EEPT_S7_DpOT0_, symObjAddr: 0x1AB38, symBinAddr: 0x10001EBAC, symSize: 0x2C }
  - { offsetInCU: 0x2DD7D, offset: 0x2DD7D, size: 0x8, addend: 0x0, symName: __ZNSt3__110__distanceB8ue170006INS_13move_iteratorIPPPN2ff7ff_nodeEEEEENS_15iterator_traitsIT_E15difference_typeES9_S9_NS_26random_access_iterator_tagE, symObjAddr: 0x1ABE0, symBinAddr: 0x10001EC54, symSize: 0x30 }
  - { offsetInCU: 0x2DDCB, offset: 0x2DDCB, size: 0x8, addend: 0x0, symName: __ZNSt3__1miB8ue170006IPPPN2ff7ff_nodeES5_EEDTmicldtfp_4baseEcldtfp0_4baseEERKNS_13move_iteratorIT_EERKNS7_IT0_EE, symObjAddr: 0x1AC10, symBinAddr: 0x10001EC84, symSize: 0x4C }
  - { offsetInCU: 0x2DE1B, offset: 0x2DE1B, size: 0x8, addend: 0x0, symName: __ZNSt3__112construct_atB8ue170006IPPN2ff7ff_nodeEJRKS4_EPS4_EEPT_S9_DpOT0_, symObjAddr: 0x1AC90, symBinAddr: 0x10001ED04, symSize: 0x2C }
  - { offsetInCU: 0x2DE8E, offset: 0x2DE8E, size: 0x8, addend: 0x0, symName: __ZNSt3__113move_backwardB8ue170006IPPPN2ff7ff_nodeES5_EET0_T_S7_S6_, symObjAddr: 0x1ACBC, symBinAddr: 0x10001ED30, symSize: 0x40 }
  - { offsetInCU: 0x2DEE9, offset: 0x2DEE9, size: 0x8, addend: 0x0, symName: __ZNSt3__115__move_backwardB8ue170006INS_17_ClassicAlgPolicyEPPPN2ff7ff_nodeES6_S6_EENS_4pairIT0_T2_EES8_T1_S9_, symObjAddr: 0x1ACFC, symBinAddr: 0x10001ED70, symSize: 0x44 }
  - { offsetInCU: 0x2DF56, offset: 0x2DF56, size: 0x8, addend: 0x0, symName: __ZNSt3__123__dispatch_copy_or_moveB8ue170006INS_17_ClassicAlgPolicyENS_20__move_backward_loopIS1_EENS_23__move_backward_trivialEPPPN2ff7ff_nodeES9_S9_EENS_4pairIT2_T4_EESB_T3_SC_, symObjAddr: 0x1AD40, symBinAddr: 0x10001EDB4, symSize: 0x44 }
  - { offsetInCU: 0x2DFD5, offset: 0x2DFD5, size: 0x8, addend: 0x0, symName: __ZNSt3__121__unwrap_and_dispatchB8ue170006INS_10__overloadINS_20__move_backward_loopINS_17_ClassicAlgPolicyEEENS_23__move_backward_trivialEEEPPPN2ff7ff_nodeESB_SB_Li0EEENS_4pairIT0_T2_EESD_T1_SE_, symObjAddr: 0x1AD84, symBinAddr: 0x10001EDF8, symSize: 0xB4 }
  - { offsetInCU: 0x2E0E9, offset: 0x2E0E9, size: 0x8, addend: 0x0, symName: __ZNSt3__128__copy_backward_trivial_implB8ue170006IPPN2ff7ff_nodeES4_EENS_4pairIPT_PT0_EES7_S7_S9_, symObjAddr: 0x1AE80, symBinAddr: 0x10001EEF4, symSize: 0x90 }
  - { offsetInCU: 0x2E152, offset: 0x2E152, size: 0x8, addend: 0x0, symName: __ZNSt3__19make_pairB8ue170006IRPPPN2ff7ff_nodeES6_EENS_4pairINS_18__unwrap_ref_decayIT_E4typeENS8_IT0_E4typeEEEOS9_OSC_, symObjAddr: 0x1AF10, symBinAddr: 0x10001EF84, symSize: 0x38 }
  - { offsetInCU: 0x2E1A2, offset: 0x2E1A2, size: 0x8, addend: 0x0, symName: __ZNSt3__119__allocate_at_leastB8ue170006INS_9allocatorIPPN2ff7ff_nodeEEEEENS_19__allocation_resultINS_16allocator_traitsIT_E7pointerEEERS9_m, symObjAddr: 0x1B0C8, symBinAddr: 0x10001F13C, symSize: 0x40 }
  - { offsetInCU: 0x2E1E6, offset: 0x2E1E6, size: 0x8, addend: 0x0, symName: __ZNSt3__1eqB8ue170006ERKNS_5dequeIPN2ff7ff_nodeENS_9allocatorIS3_EEE13__deque_rangeES9_, symObjAddr: 0x1B46C, symBinAddr: 0x10001F4E0, symSize: 0x30 }
  - { offsetInCU: 0x2E224, offset: 0x2E224, size: 0x8, addend: 0x0, symName: __ZNSt3__112construct_atB8ue170006IPN2ff7ff_nodeEJEPS3_EEPT_S6_DpOT0_, symObjAddr: 0x1B54C, symBinAddr: 0x10001F5C0, symSize: 0x20 }
  - { offsetInCU: 0x2E283, offset: 0x2E283, size: 0x8, addend: 0x0, symName: __ZNSt3__1miB8ue170006ERKNS_16__deque_iteratorIPN2ff7ff_nodeEPKS3_RS4_PKS5_lLl512EEESB_, symObjAddr: 0x1B5C8, symBinAddr: 0x10001F63C, symSize: 0xA4 }
  - { offsetInCU: 0x2E2C1, offset: 0x2E2C1, size: 0x8, addend: 0x0, symName: __ZNSt3__1neB8ue170006ERKNS_16__deque_iteratorIPN2ff7ff_nodeEPKS3_RS4_PKS5_lLl512EEESB_, symObjAddr: 0x1B7B4, symBinAddr: 0x10001F828, symSize: 0x34 }
  - { offsetInCU: 0x2E2FF, offset: 0x2E2FF, size: 0x8, addend: 0x0, symName: __ZNSt3__1eqB8ue170006ERKNS_16__deque_iteratorIPN2ff7ff_nodeEPKS3_RS4_PKS5_lLl512EEESB_, symObjAddr: 0x1B7E8, symBinAddr: 0x10001F85C, symSize: 0x30 }
  - { offsetInCU: 0x2E6E3, offset: 0x2E6E3, size: 0x8, addend: 0x0, symName: __ZNSt3__112construct_atB8ue170006IPN2ff7ff_nodeEJRKS3_EPS3_EEPT_S8_DpOT0_, symObjAddr: 0x1C0C8, symBinAddr: 0x10002013C, symSize: 0x2C }
  - { offsetInCU: 0x2E756, offset: 0x2E756, size: 0x8, addend: 0x0, symName: __ZNSt3__113move_backwardB8ue170006INS_16__deque_iteratorIPN2ff7ff_nodeEPS4_RS4_PS5_lLl512EEES8_EET0_T_SA_S9_, symObjAddr: 0x1C0F4, symBinAddr: 0x100020168, symSize: 0x78 }
  - { offsetInCU: 0x2E7B1, offset: 0x2E7B1, size: 0x8, addend: 0x0, symName: __ZNSt3__14nextB8ue170006INS_16__deque_iteratorIPN2ff7ff_nodeEPS4_RS4_PS5_lLl512EEEEENS_9enable_ifIXsr29__has_input_iterator_categoryIT_EE5valueESA_E4typeESA_NS_15iterator_traitsISA_E15difference_typeE, symObjAddr: 0x1C16C, symBinAddr: 0x1000201E0, symSize: 0x44 }
  - { offsetInCU: 0x2E7F5, offset: 0x2E7F5, size: 0x8, addend: 0x0, symName: __ZNSt3__14moveB8ue170006INS_16__deque_iteratorIPN2ff7ff_nodeEPS4_RS4_PS5_lLl512EEES8_EET0_T_SA_S9_, symObjAddr: 0x1C30C, symBinAddr: 0x100020380, symSize: 0x78 }
  - { offsetInCU: 0x2E850, offset: 0x2E850, size: 0x8, addend: 0x0, symName: __ZNSt3__115__move_backwardB8ue170006INS_17_ClassicAlgPolicyENS_16__deque_iteratorIPN2ff7ff_nodeEPS5_RS5_PS6_lLl512EEES9_S9_EENS_4pairIT0_T2_EESB_T1_SC_, symObjAddr: 0x1C384, symBinAddr: 0x1000203F8, symSize: 0x64 }
  - { offsetInCU: 0x2E8BD, offset: 0x2E8BD, size: 0x8, addend: 0x0, symName: __ZNSt3__123__dispatch_copy_or_moveB8ue170006INS_17_ClassicAlgPolicyENS_20__move_backward_loopIS1_EENS_23__move_backward_trivialENS_16__deque_iteratorIPN2ff7ff_nodeEPS8_RS8_PS9_lLl512EEESC_SC_EENS_4pairIT2_T4_EESE_T3_SF_, symObjAddr: 0x1C3E8, symBinAddr: 0x10002045C, symSize: 0x64 }
  - { offsetInCU: 0x2E93C, offset: 0x2E93C, size: 0x8, addend: 0x0, symName: __ZNSt3__121__unwrap_and_dispatchB8ue170006INS_10__overloadINS_20__move_backward_loopINS_17_ClassicAlgPolicyEEENS_23__move_backward_trivialEEENS_16__deque_iteratorIPN2ff7ff_nodeEPSA_RSA_PSB_lLl512EEESE_SE_Li0EEENS_4pairIT0_T2_EESG_T1_SH_, symObjAddr: 0x1C44C, symBinAddr: 0x1000204C0, symSize: 0x12C }
  - { offsetInCU: 0x2E9CE, offset: 0x2E9CE, size: 0x8, addend: 0x0, symName: __ZNSt3__114__unwrap_rangeB8ue170006INS_16__deque_iteratorIPN2ff7ff_nodeEPS4_RS4_PS5_lLl512EEES8_EEDaT_T0_, symObjAddr: 0x1C578, symBinAddr: 0x1000205EC, symSize: 0x4C }
  - { offsetInCU: 0x2EBDA, offset: 0x2EBDA, size: 0x8, addend: 0x0, symName: __ZNSt3__113__unwrap_iterB8ue170006INS_16__deque_iteratorIPN2ff7ff_nodeEPS4_RS4_PS5_lLl512EEENS_18__unwrap_iter_implIS8_Lb0EEELi0EEEDTclsrT0_8__unwrapclsr3stdE7declvalIT_EEEESC_, symObjAddr: 0x1C7F4, symBinAddr: 0x100020868, symSize: 0x44 }
  - { offsetInCU: 0x2EC20, offset: 0x2EC20, size: 0x8, addend: 0x0, symName: __ZNSt3__19make_pairB8ue170006INS_16__deque_iteratorIPN2ff7ff_nodeEPS4_RS4_PS5_lLl512EEES8_EENS_4pairINS_18__unwrap_ref_decayIT_E4typeENSA_IT0_E4typeEEEOSB_OSE_, symObjAddr: 0x1C838, symBinAddr: 0x1000208AC, symSize: 0x38 }
  - { offsetInCU: 0x2EC70, offset: 0x2EC70, size: 0x8, addend: 0x0, symName: __ZNSt3__114__rewrap_rangeB8ue170006INS_16__deque_iteratorIPN2ff7ff_nodeEPS4_RS4_PS5_lLl512EEES8_S8_EET0_S9_T1_, symObjAddr: 0x1C870, symBinAddr: 0x1000208E4, symSize: 0x5C }
  - { offsetInCU: 0x2ECC6, offset: 0x2ECC6, size: 0x8, addend: 0x0, symName: __ZNSt3__113__rewrap_iterB8ue170006INS_16__deque_iteratorIPN2ff7ff_nodeEPS4_RS4_PS5_lLl512EEES8_NS_18__unwrap_iter_implIS8_Lb0EEEEET_SB_T0_, symObjAddr: 0x1C8CC, symBinAddr: 0x100020940, symSize: 0x74 }
  - { offsetInCU: 0x2ED6C, offset: 0x2ED6C, size: 0x8, addend: 0x0, symName: __ZNSt3__115__move_backwardB8ue170006INS_17_ClassicAlgPolicyEPPN2ff7ff_nodeES5_NS_16__deque_iteratorIS4_S5_RS4_PS5_lLl512EEEEENS_4pairIT0_T2_EESB_T1_SC_, symObjAddr: 0x1CA4C, symBinAddr: 0x100020AC0, symSize: 0x44 }
  - { offsetInCU: 0x2EDD9, offset: 0x2EDD9, size: 0x8, addend: 0x0, symName: __ZNSt3__19make_pairB8ue170006IRNS_16__deque_iteratorIPN2ff7ff_nodeEPS4_RS4_PS5_lLl512EEES9_EENS_4pairINS_18__unwrap_ref_decayIT_E4typeENSB_IT0_E4typeEEEOSC_OSF_, symObjAddr: 0x1CAA8, symBinAddr: 0x100020B1C, symSize: 0x38 }
  - { offsetInCU: 0x2EE29, offset: 0x2EE29, size: 0x8, addend: 0x0, symName: __ZNSt3__19make_pairB8ue170006IRNS_16__deque_iteratorIPN2ff7ff_nodeEPS4_RS4_PS5_lLl512EEES8_EENS_4pairINS_18__unwrap_ref_decayIT_E4typeENSB_IT0_E4typeEEEOSC_OSF_, symObjAddr: 0x1CB14, symBinAddr: 0x100020B88, symSize: 0x38 }
  - { offsetInCU: 0x2EE79, offset: 0x2EE79, size: 0x8, addend: 0x0, symName: __ZNSt3__123__dispatch_copy_or_moveB8ue170006INS_17_ClassicAlgPolicyENS_20__move_backward_loopIS1_EENS_23__move_backward_trivialEPPN2ff7ff_nodeES8_NS_16__deque_iteratorIS7_S8_RS7_PS8_lLl512EEEEENS_4pairIT2_T4_EESE_T3_SF_, symObjAddr: 0x1CB4C, symBinAddr: 0x100020BC0, symSize: 0x44 }
  - { offsetInCU: 0x2EEF8, offset: 0x2EEF8, size: 0x8, addend: 0x0, symName: __ZNSt3__121__unwrap_and_dispatchB8ue170006INS_10__overloadINS_20__move_backward_loopINS_17_ClassicAlgPolicyEEENS_23__move_backward_trivialEEEPPN2ff7ff_nodeESA_NS_16__deque_iteratorIS9_SA_RS9_PSA_lLl512EEELi0EEENS_4pairIT0_T2_EESG_T1_SH_, symObjAddr: 0x1CB90, symBinAddr: 0x100020C04, symSize: 0xF0 }
  - { offsetInCU: 0x2EF89, offset: 0x2EF89, size: 0x8, addend: 0x0, symName: __ZNSt3__114__unwrap_rangeB8ue170006IPPN2ff7ff_nodeES4_EEDaT_T0_, symObjAddr: 0x1CC80, symBinAddr: 0x100020CF4, symSize: 0x3C }
  - { offsetInCU: 0x2F0D9, offset: 0x2F0D9, size: 0x8, addend: 0x0, symName: __ZNSt3__19make_pairB8ue170006IPPN2ff7ff_nodeENS_16__deque_iteratorIS3_S4_RS3_PS4_lLl512EEEEENS_4pairINS_18__unwrap_ref_decayIT_E4typeENSA_IT0_E4typeEEEOSB_OSE_, symObjAddr: 0x1CE58, symBinAddr: 0x100020ECC, symSize: 0x38 }
  - { offsetInCU: 0x2F129, offset: 0x2F129, size: 0x8, addend: 0x0, symName: __ZNSt3__114__rewrap_rangeB8ue170006IPPN2ff7ff_nodeES4_S4_EET0_S5_T1_, symObjAddr: 0x1CE90, symBinAddr: 0x100020F04, symSize: 0x2C }
  - { offsetInCU: 0x2F2F9, offset: 0x2F2F9, size: 0x8, addend: 0x0, symName: __ZNSt3__113__unwrap_iterB8ue170006IPPN2ff7ff_nodeENS_18__unwrap_iter_implIS4_Lb1EEELi0EEEDTclsrT0_8__unwrapclsr3stdE7declvalIT_EEEES8_, symObjAddr: 0x1CF14, symBinAddr: 0x100020F88, symSize: 0x24 }
  - { offsetInCU: 0x2F392, offset: 0x2F392, size: 0x8, addend: 0x0, symName: __ZNSt3__19make_pairB8ue170006IRPPN2ff7ff_nodeERNS_16__deque_iteratorIS3_S4_RS3_PS4_lLl512EEEEENS_4pairINS_18__unwrap_ref_decayIT_E4typeENSC_IT0_E4typeEEEOSD_OSG_, symObjAddr: 0x1CFCC, symBinAddr: 0x100021040, symSize: 0x38 }
  - { offsetInCU: 0x2F3E2, offset: 0x2F3E2, size: 0x8, addend: 0x0, symName: __ZNSt3__115__move_backwardB8ue170006INS_17_ClassicAlgPolicyEPPN2ff7ff_nodeES5_S5_EENS_4pairIT0_T2_EES7_T1_S8_, symObjAddr: 0x1D004, symBinAddr: 0x100021078, symSize: 0x44 }
  - { offsetInCU: 0x2F44F, offset: 0x2F44F, size: 0x8, addend: 0x0, symName: __ZNSt3__123__dispatch_copy_or_moveB8ue170006INS_17_ClassicAlgPolicyENS_20__move_backward_loopIS1_EENS_23__move_backward_trivialEPPN2ff7ff_nodeES8_S8_EENS_4pairIT2_T4_EESA_T3_SB_, symObjAddr: 0x1D13C, symBinAddr: 0x1000211B0, symSize: 0x44 }
  - { offsetInCU: 0x2F4CE, offset: 0x2F4CE, size: 0x8, addend: 0x0, symName: __ZNSt3__121__unwrap_and_dispatchB8ue170006INS_10__overloadINS_20__move_backward_loopINS_17_ClassicAlgPolicyEEENS_23__move_backward_trivialEEEPPN2ff7ff_nodeESA_SA_Li0EEENS_4pairIT0_T2_EESC_T1_SD_, symObjAddr: 0x1D180, symBinAddr: 0x1000211F4, symSize: 0xB4 }
  - { offsetInCU: 0x2F55E, offset: 0x2F55E, size: 0x8, addend: 0x0, symName: __ZNSt3__19make_pairB8ue170006IPPN2ff7ff_nodeES4_EENS_4pairINS_18__unwrap_ref_decayIT_E4typeENS6_IT0_E4typeEEEOS7_OSA_, symObjAddr: 0x1D27C, symBinAddr: 0x1000212F0, symSize: 0x38 }
  - { offsetInCU: 0x2F5AE, offset: 0x2F5AE, size: 0x8, addend: 0x0, symName: __ZNSt3__113__rewrap_iterB8ue170006IPPN2ff7ff_nodeES4_NS_18__unwrap_iter_implIS4_Lb1EEEEET_S7_T0_, symObjAddr: 0x1D2B4, symBinAddr: 0x100021328, symSize: 0x3C }
  - { offsetInCU: 0x2F604, offset: 0x2F604, size: 0x8, addend: 0x0, symName: __ZNSt3__128__copy_backward_trivial_implB8ue170006IPN2ff7ff_nodeES3_EENS_4pairIPT_PT0_EES6_S6_S8_, symObjAddr: 0x1D2F0, symBinAddr: 0x100021364, symSize: 0x90 }
  - { offsetInCU: 0x2F66D, offset: 0x2F66D, size: 0x8, addend: 0x0, symName: __ZNSt3__119__constexpr_memmoveB8ue170006IPN2ff7ff_nodeES3_Li0EEEPT_S5_PT0_NS_15__element_countE, symObjAddr: 0x1D380, symBinAddr: 0x1000213F4, symSize: 0x64 }
  - { offsetInCU: 0x2F6DD, offset: 0x2F6DD, size: 0x8, addend: 0x0, symName: __ZNSt3__19make_pairB8ue170006IRPPN2ff7ff_nodeES5_EENS_4pairINS_18__unwrap_ref_decayIT_E4typeENS7_IT0_E4typeEEEOS8_OSB_, symObjAddr: 0x1D3E4, symBinAddr: 0x100021458, symSize: 0x38 }
  - { offsetInCU: 0x2F775, offset: 0x2F775, size: 0x8, addend: 0x0, symName: __ZNSt3__19__advanceB8ue170006INS_16__deque_iteratorIPN2ff7ff_nodeEPS4_RS4_PS5_lLl512EEEEEvRT_NS_15iterator_traitsIS9_E15difference_typeENS_26random_access_iterator_tagE, symObjAddr: 0x1D73C, symBinAddr: 0x1000217B0, symSize: 0x2C }
  - { offsetInCU: 0x2F7BF, offset: 0x2F7BF, size: 0x8, addend: 0x0, symName: __ZNSt3__16__moveB8ue170006INS_17_ClassicAlgPolicyENS_16__deque_iteratorIPN2ff7ff_nodeEPS5_RS5_PS6_lLl512EEES9_S9_EENS_4pairIT0_T2_EESB_T1_SC_, symObjAddr: 0x1D794, symBinAddr: 0x100021808, symSize: 0x64 }
  - { offsetInCU: 0x2F82C, offset: 0x2F82C, size: 0x8, addend: 0x0, symName: __ZNSt3__123__dispatch_copy_or_moveB8ue170006INS_17_ClassicAlgPolicyENS_11__move_loopIS1_EENS_14__move_trivialENS_16__deque_iteratorIPN2ff7ff_nodeEPS8_RS8_PS9_lLl512EEESC_SC_EENS_4pairIT2_T4_EESE_T3_SF_, symObjAddr: 0x1D7F8, symBinAddr: 0x10002186C, symSize: 0x64 }
  - { offsetInCU: 0x2F8AB, offset: 0x2F8AB, size: 0x8, addend: 0x0, symName: __ZNSt3__121__unwrap_and_dispatchB8ue170006INS_10__overloadINS_11__move_loopINS_17_ClassicAlgPolicyEEENS_14__move_trivialEEENS_16__deque_iteratorIPN2ff7ff_nodeEPSA_RSA_PSB_lLl512EEESE_SE_Li0EEENS_4pairIT0_T2_EESG_T1_SH_, symObjAddr: 0x1D85C, symBinAddr: 0x1000218D0, symSize: 0x12C }
  - { offsetInCU: 0x2F93D, offset: 0x2F93D, size: 0x8, addend: 0x0, symName: __ZNSt3__118__for_each_segmentB8ue170006INS_16__deque_iteratorIPN2ff7ff_nodeEPS4_RS4_PS5_lLl512EEENS_11__move_loopINS_17_ClassicAlgPolicyEE12_MoveSegmentIS8_S8_EEEEvT_SE_T0_, symObjAddr: 0x1DA10, symBinAddr: 0x100021A84, symSize: 0x174 }
  - { offsetInCU: 0x2F9B1, offset: 0x2F9B1, size: 0x8, addend: 0x0, symName: __ZNSt3__16__moveB8ue170006INS_17_ClassicAlgPolicyEPPN2ff7ff_nodeES5_NS_16__deque_iteratorIS4_S5_RS4_PS5_lLl512EEEEENS_4pairIT0_T2_EESB_T1_SC_, symObjAddr: 0x1DC20, symBinAddr: 0x100021C94, symSize: 0x44 }
  - { offsetInCU: 0x2FA1E, offset: 0x2FA1E, size: 0x8, addend: 0x0, symName: __ZNSt3__123__dispatch_copy_or_moveB8ue170006INS_17_ClassicAlgPolicyENS_11__move_loopIS1_EENS_14__move_trivialEPPN2ff7ff_nodeES8_NS_16__deque_iteratorIS7_S8_RS7_PS8_lLl512EEEEENS_4pairIT2_T4_EESE_T3_SF_, symObjAddr: 0x1DC64, symBinAddr: 0x100021CD8, symSize: 0x44 }
  - { offsetInCU: 0x2FA9D, offset: 0x2FA9D, size: 0x8, addend: 0x0, symName: __ZNSt3__121__unwrap_and_dispatchB8ue170006INS_10__overloadINS_11__move_loopINS_17_ClassicAlgPolicyEEENS_14__move_trivialEEEPPN2ff7ff_nodeESA_NS_16__deque_iteratorIS9_SA_RS9_PSA_lLl512EEELi0EEENS_4pairIT0_T2_EESG_T1_SH_, symObjAddr: 0x1DCA8, symBinAddr: 0x100021D1C, symSize: 0xF0 }
  - { offsetInCU: 0x2FB2E, offset: 0x2FB2E, size: 0x8, addend: 0x0, symName: __ZNSt3__16__moveB8ue170006INS_17_ClassicAlgPolicyEPPN2ff7ff_nodeES5_S5_EENS_4pairIT0_T2_EES7_T1_S8_, symObjAddr: 0x1DEFC, symBinAddr: 0x100021F70, symSize: 0x44 }
  - { offsetInCU: 0x2FB9B, offset: 0x2FB9B, size: 0x8, addend: 0x0, symName: __ZNSt3__123__dispatch_copy_or_moveB8ue170006INS_17_ClassicAlgPolicyENS_11__move_loopIS1_EENS_14__move_trivialEPPN2ff7ff_nodeES8_S8_EENS_4pairIT2_T4_EESA_T3_SB_, symObjAddr: 0x1DF40, symBinAddr: 0x100021FB4, symSize: 0x44 }
  - { offsetInCU: 0x2FC1A, offset: 0x2FC1A, size: 0x8, addend: 0x0, symName: __ZNSt3__121__unwrap_and_dispatchB8ue170006INS_10__overloadINS_11__move_loopINS_17_ClassicAlgPolicyEEENS_14__move_trivialEEEPPN2ff7ff_nodeESA_SA_Li0EEENS_4pairIT0_T2_EESC_T1_SD_, symObjAddr: 0x1DF84, symBinAddr: 0x100021FF8, symSize: 0xB4 }
  - { offsetInCU: 0x2FCAA, offset: 0x2FCAA, size: 0x8, addend: 0x0, symName: __ZNSt3__119__copy_trivial_implB8ue170006IPN2ff7ff_nodeES3_EENS_4pairIPT_PT0_EES6_S6_S8_, symObjAddr: 0x1E080, symBinAddr: 0x1000220F4, symSize: 0x80 }
  - { offsetInCU: 0x2FD13, offset: 0x2FD13, size: 0x8, addend: 0x0, symName: __ZNSt3__19make_pairB8ue170006IRPPN2ff7ff_nodeES4_EENS_4pairINS_18__unwrap_ref_decayIT_E4typeENS7_IT0_E4typeEEEOS8_OSB_, symObjAddr: 0x1E100, symBinAddr: 0x100022174, symSize: 0x38 }
  - { offsetInCU: 0x2FD63, offset: 0x2FD63, size: 0x8, addend: 0x0, symName: __ZNSt3__1miB8ue170006ERKNS_16__deque_iteratorIPN2ff7ff_nodeEPS3_RS3_PS4_lLl512EEES9_, symObjAddr: 0x1E8EC, symBinAddr: 0x100022960, symSize: 0xA4 }
  - { offsetInCU: 0x2FDA1, offset: 0x2FDA1, size: 0x8, addend: 0x0, symName: __ZNSt3__112construct_atB8ue170006ImJmEPmEEPT_S3_DpOT0_, symObjAddr: 0x1EC54, symBinAddr: 0x100022CC8, symSize: 0x2C }
  - { offsetInCU: 0x2FE14, offset: 0x2FE14, size: 0x8, addend: 0x0, symName: __ZNSt3__142__uninitialized_allocator_move_if_noexceptB8ue170006INS_9allocatorImEENS_16reverse_iteratorIPmEES5_mvEET1_RT_T0_S9_S6_, symObjAddr: 0x1F0E0, symBinAddr: 0x100023154, symSize: 0x78 }
  - { offsetInCU: 0x2FE93, offset: 0x2FE93, size: 0x8, addend: 0x0, symName: __ZNSt3__14swapB8ue170006IPmEENS_9enable_ifIXaasr21is_move_constructibleIT_EE5valuesr18is_move_assignableIS3_EE5valueEvE4typeERS3_S6_, symObjAddr: 0x1F1A4, symBinAddr: 0x100023218, symSize: 0x3C }
  - { offsetInCU: 0x2FEE5, offset: 0x2FEE5, size: 0x8, addend: 0x0, symName: __ZNSt3__14moveB8ue170006INS_16reverse_iteratorIPmEES3_EET0_T_S5_S4_, symObjAddr: 0x1F1E0, symBinAddr: 0x100023254, symSize: 0x78 }
  - { offsetInCU: 0x2FF40, offset: 0x2FF40, size: 0x8, addend: 0x0, symName: __ZNSt3__16__moveB8ue170006INS_17_ClassicAlgPolicyENS_16reverse_iteratorIPmEES4_S4_EENS_4pairIT0_T2_EES6_T1_S7_, symObjAddr: 0x1F258, symBinAddr: 0x1000232CC, symSize: 0x64 }
  - { offsetInCU: 0x2FFAD, offset: 0x2FFAD, size: 0x8, addend: 0x0, symName: __ZNSt3__123__dispatch_copy_or_moveB8ue170006INS_17_ClassicAlgPolicyENS_11__move_loopIS1_EENS_14__move_trivialENS_16reverse_iteratorIPmEES7_S7_EENS_4pairIT2_T4_EES9_T3_SA_, symObjAddr: 0x1F2BC, symBinAddr: 0x100023330, symSize: 0x64 }
  - { offsetInCU: 0x3002C, offset: 0x3002C, size: 0x8, addend: 0x0, symName: __ZNSt3__121__unwrap_and_dispatchB8ue170006INS_10__overloadINS_11__move_loopINS_17_ClassicAlgPolicyEEENS_14__move_trivialEEENS_16reverse_iteratorIPmEES9_S9_Li0EEENS_4pairIT0_T2_EESB_T1_SC_, symObjAddr: 0x1F320, symBinAddr: 0x100023394, symSize: 0x12C }
  - { offsetInCU: 0x300BE, offset: 0x300BE, size: 0x8, addend: 0x0, symName: __ZNSt3__114__unwrap_rangeB8ue170006INS_16reverse_iteratorIPmEES3_EEDaT_T0_, symObjAddr: 0x1F44C, symBinAddr: 0x1000234C0, symSize: 0x4C }
  - { offsetInCU: 0x301DF, offset: 0x301DF, size: 0x8, addend: 0x0, symName: __ZNSt3__113__unwrap_iterB8ue170006INS_16reverse_iteratorIPmEENS_18__unwrap_iter_implIS3_Lb0EEELi0EEEDTclsrT0_8__unwrapclsr3stdE7declvalIT_EEEES7_, symObjAddr: 0x1F538, symBinAddr: 0x1000235AC, symSize: 0x44 }
  - { offsetInCU: 0x30225, offset: 0x30225, size: 0x8, addend: 0x0, symName: __ZNSt3__19make_pairB8ue170006INS_16reverse_iteratorIPmEES3_EENS_4pairINS_18__unwrap_ref_decayIT_E4typeENS5_IT0_E4typeEEEOS6_OS9_, symObjAddr: 0x1F57C, symBinAddr: 0x1000235F0, symSize: 0x38 }
  - { offsetInCU: 0x30275, offset: 0x30275, size: 0x8, addend: 0x0, symName: __ZNSt3__114__rewrap_rangeB8ue170006INS_16reverse_iteratorIPmEES3_S3_EET0_S4_T1_, symObjAddr: 0x1F5B4, symBinAddr: 0x100023628, symSize: 0x5C }
  - { offsetInCU: 0x302CB, offset: 0x302CB, size: 0x8, addend: 0x0, symName: __ZNSt3__113__rewrap_iterB8ue170006INS_16reverse_iteratorIPmEES3_NS_18__unwrap_iter_implIS3_Lb0EEEEET_S6_T0_, symObjAddr: 0x1F610, symBinAddr: 0x100023684, symSize: 0x74 }
  - { offsetInCU: 0x30371, offset: 0x30371, size: 0x8, addend: 0x0, symName: __ZNSt3__1neB8ue170006IPmS1_EEbRKNS_16reverse_iteratorIT_EERKNS2_IT0_EE, symObjAddr: 0x1F778, symBinAddr: 0x1000237EC, symSize: 0x48 }
  - { offsetInCU: 0x3042A, offset: 0x3042A, size: 0x8, addend: 0x0, symName: __ZNSt3__112construct_atB8ue170006ImJEPmEEPT_S3_DpOT0_, symObjAddr: 0x221E8, symBinAddr: 0x10002625C, symSize: 0x20 }
  - { offsetInCU: 0x30489, offset: 0x30489, size: 0x8, addend: 0x0, symName: __ZNSt3__1plB8ue170006IcNS_11char_traitsIcEENS_9allocatorIcEEEENS_12basic_stringIT_T0_T1_EERKS9_PKS6_, symObjAddr: 0x26880, symBinAddr: 0x10002A8F4, symSize: 0x11C }
  - { offsetInCU: 0x30D9F, offset: 0x30D9F, size: 0x8, addend: 0x0, symName: __ZNSt3__112__to_addressB8ue170006IcEEPT_S2_, symObjAddr: 0x26CC4, symBinAddr: 0x10002AD38, symSize: 0x14 }
  - { offsetInCU: 0x30DD5, offset: 0x30DD5, size: 0x8, addend: 0x0, symName: __ZNSt3__14copyB8ue170006IPKcPcEET0_T_S5_S4_, symObjAddr: 0x2731C, symBinAddr: 0x10002B390, symSize: 0x40 }
  - { offsetInCU: 0x30E30, offset: 0x30E30, size: 0x8, addend: 0x0, symName: __ZNSt3__16__copyB8ue170006INS_17_ClassicAlgPolicyEPKcS3_PcEENS_4pairIT0_T2_EES6_T1_S7_, symObjAddr: 0x2735C, symBinAddr: 0x10002B3D0, symSize: 0x44 }
  - { offsetInCU: 0x30E9D, offset: 0x30E9D, size: 0x8, addend: 0x0, symName: __ZNSt3__123__dispatch_copy_or_moveB8ue170006INS_17_ClassicAlgPolicyENS_11__copy_loopIS1_EENS_14__copy_trivialEPKcS6_PcEENS_4pairIT2_T4_EES9_T3_SA_, symObjAddr: 0x273A0, symBinAddr: 0x10002B414, symSize: 0x44 }
  - { offsetInCU: 0x30F1C, offset: 0x30F1C, size: 0x8, addend: 0x0, symName: __ZNSt3__121__unwrap_and_dispatchB8ue170006INS_10__overloadINS_11__copy_loopINS_17_ClassicAlgPolicyEEENS_14__copy_trivialEEEPKcS8_PcLi0EEENS_4pairIT0_T2_EESB_T1_SC_, symObjAddr: 0x273E4, symBinAddr: 0x10002B458, symSize: 0xB4 }
  - { offsetInCU: 0x30FAC, offset: 0x30FAC, size: 0x8, addend: 0x0, symName: __ZNSt3__114__unwrap_rangeB8ue170006IPKcS2_EEDaT_T0_, symObjAddr: 0x27498, symBinAddr: 0x10002B50C, symSize: 0x3C }
  - { offsetInCU: 0x31143, offset: 0x31143, size: 0x8, addend: 0x0, symName: __ZNSt3__113__unwrap_iterB8ue170006IPcNS_18__unwrap_iter_implIS1_Lb1EEELi0EEEDTclsrT0_8__unwrapclsr3stdE7declvalIT_EEEES5_, symObjAddr: 0x2751C, symBinAddr: 0x10002B590, symSize: 0x24 }
  - { offsetInCU: 0x31189, offset: 0x31189, size: 0x8, addend: 0x0, symName: __ZNSt3__19make_pairB8ue170006IPKcPcEENS_4pairINS_18__unwrap_ref_decayIT_E4typeENS5_IT0_E4typeEEEOS6_OS9_, symObjAddr: 0x27540, symBinAddr: 0x10002B5B4, symSize: 0x38 }
  - { offsetInCU: 0x311D9, offset: 0x311D9, size: 0x8, addend: 0x0, symName: __ZNSt3__114__rewrap_rangeB8ue170006IPKcS2_S2_EET0_S3_T1_, symObjAddr: 0x27578, symBinAddr: 0x10002B5EC, symSize: 0x2C }
  - { offsetInCU: 0x3122F, offset: 0x3122F, size: 0x8, addend: 0x0, symName: __ZNSt3__113__rewrap_iterB8ue170006IPcS1_NS_18__unwrap_iter_implIS1_Lb1EEEEET_S4_T0_, symObjAddr: 0x275A4, symBinAddr: 0x10002B618, symSize: 0x3C }
  - { offsetInCU: 0x313A1, offset: 0x313A1, size: 0x8, addend: 0x0, symName: __ZNSt3__113__unwrap_iterB8ue170006IPKcNS_18__unwrap_iter_implIS2_Lb1EEELi0EEEDTclsrT0_8__unwrapclsr3stdE7declvalIT_EEEES6_, symObjAddr: 0x27638, symBinAddr: 0x10002B6AC, symSize: 0x24 }
  - { offsetInCU: 0x3143A, offset: 0x3143A, size: 0x8, addend: 0x0, symName: __ZNSt3__119__copy_trivial_implB8ue170006IKccEENS_4pairIPT_PT0_EES4_S4_S6_, symObjAddr: 0x276F0, symBinAddr: 0x10002B764, symSize: 0x78 }
  - { offsetInCU: 0x314A3, offset: 0x314A3, size: 0x8, addend: 0x0, symName: __ZNSt3__119__constexpr_memmoveB8ue170006IcKcLi0EEEPT_S3_PT0_NS_15__element_countE, symObjAddr: 0x27768, symBinAddr: 0x10002B7DC, symSize: 0x64 }
  - { offsetInCU: 0x31513, offset: 0x31513, size: 0x8, addend: 0x0, symName: __ZNSt3__19make_pairB8ue170006IRPKcPcEENS_4pairINS_18__unwrap_ref_decayIT_E4typeENS6_IT0_E4typeEEEOS7_OSA_, symObjAddr: 0x277CC, symBinAddr: 0x10002B840, symSize: 0x38 }
  - { offsetInCU: 0x315B6, offset: 0x315B6, size: 0x8, addend: 0x0, symName: __ZNSt3__113__rewrap_iterB8ue170006IPKcS2_NS_18__unwrap_iter_implIS2_Lb1EEEEET_S5_T0_, symObjAddr: 0x27934, symBinAddr: 0x10002B9A8, symSize: 0x3C }
  - { offsetInCU: 0x3160C, offset: 0x3160C, size: 0x8, addend: 0x0, symName: __ZNSt3__16fill_nB8ue170006IPcmcEET_S2_T0_RKT1_, symObjAddr: 0x27A00, symBinAddr: 0x10002BA74, symSize: 0x44 }
  - { offsetInCU: 0x31670, offset: 0x31670, size: 0x8, addend: 0x0, symName: __ZNSt3__18__fill_nB8ue170006IPcmcEET_S2_T0_RKT1_, symObjAddr: 0x27A44, symBinAddr: 0x10002BAB8, symSize: 0x64 }
  - { offsetInCU: 0x316D4, offset: 0x316D4, size: 0x8, addend: 0x0, symName: __ZNSt3__121__convert_to_integralB8ue170006Em, symObjAddr: 0x27AA8, symBinAddr: 0x10002BB1C, symSize: 0x14 }
  - { offsetInCU: 0x31DC2, offset: 0x31DC2, size: 0x8, addend: 0x0, symName: __ZNSt3__122__make_exception_guardB8ue170006INS_6vectorIhNS_9allocatorIhEEE16__destroy_vectorEEENS_28__exception_guard_exceptionsIT_EES7_, symObjAddr: 0x28168, symBinAddr: 0x10002C1DC, symSize: 0x40 }
  - { offsetInCU: 0x31DF8, offset: 0x31DF8, size: 0x8, addend: 0x0, symName: __ZNSt3__119__allocate_at_leastB8ue170006INS_9allocatorIhEEEENS_19__allocation_resultINS_16allocator_traitsIT_E7pointerEEERS5_m, symObjAddr: 0x28554, symBinAddr: 0x10002C5C8, symSize: 0x40 }
  - { offsetInCU: 0x31E3C, offset: 0x31E3C, size: 0x8, addend: 0x0, symName: __ZNSt3__112__to_addressB8ue170006IhEEPT_S2_, symObjAddr: 0x28860, symBinAddr: 0x10002C8D4, symSize: 0x14 }
  - { offsetInCU: 0x31E99, offset: 0x31E99, size: 0x8, addend: 0x0, symName: __ZNSt3__112construct_atB8ue170006IhJEPhEEPT_S3_DpOT0_, symObjAddr: 0x289A8, symBinAddr: 0x10002CA1C, symSize: 0x20 }
  - { offsetInCU: 0x31EF8, offset: 0x31EF8, size: 0x8, addend: 0x0, symName: __ZNSt3__110destroy_atB8ue170006IhLi0EEEvPT_, symObjAddr: 0x28C90, symBinAddr: 0x10002CD04, symSize: 0x24 }
  - { offsetInCU: 0x31F31, offset: 0x31F31, size: 0x8, addend: 0x0, symName: __ZNSt3__112__destroy_atB8ue170006IhLi0EEEvPT_, symObjAddr: 0x28CB4, symBinAddr: 0x10002CD28, symSize: 0x10 }
  - { offsetInCU: 0x31FA1, offset: 0x31FA1, size: 0x8, addend: 0x0, symName: __ZNSt3__116forward_as_tupleB8ue170006IJRKNS_12basic_stringIcNS_11char_traitsIcEENS_9allocatorIcEEEEEEENS_5tupleIJDpOT_EEESC_, symObjAddr: 0x2A20C, symBinAddr: 0x10002E280, symSize: 0x2C }
  - { offsetInCU: 0x31FDB, offset: 0x31FDB, size: 0x8, addend: 0x0, symName: __ZNSt3__116forward_as_tupleB8ue170006IJEEENS_5tupleIJDpOT_EEES4_, symObjAddr: 0x2A238, symBinAddr: 0x10002E2AC, symSize: 0x4 }
  - { offsetInCU: 0x32000, offset: 0x32000, size: 0x8, addend: 0x0, symName: __ZNSt3__116__constrain_hashB8ue170006Emm, symObjAddr: 0x2A30C, symBinAddr: 0x10002E380, symSize: 0x98 }
  - { offsetInCU: 0x3203B, offset: 0x3203B, size: 0x8, addend: 0x0, symName: __ZNSt3__116__is_hash_power2B8ue170006Em, symObjAddr: 0x2A650, symBinAddr: 0x10002E6C4, symSize: 0x50 }
  - { offsetInCU: 0x32068, offset: 0x32068, size: 0x8, addend: 0x0, symName: __ZNSt3__116__do_string_hashB8ue170006IPKcEEmT_S3_, symObjAddr: 0x2A8CC, symBinAddr: 0x10002E940, symSize: 0x3C }
  - { offsetInCU: 0x320AF, offset: 0x320AF, size: 0x8, addend: 0x0, symName: __ZNSt3__110__loadwordB8ue170006ImEET_PKv, symObjAddr: 0x2B2C0, symBinAddr: 0x10002F334, symSize: 0x20 }
  - { offsetInCU: 0x320F3, offset: 0x320F3, size: 0x8, addend: 0x0, symName: __ZNSt3__14swapB8ue170006ImEENS_9enable_ifIXaasr21is_move_constructibleIT_EE5valuesr18is_move_assignableIS2_EE5valueEvE4typeERS2_S5_, symObjAddr: 0x2B47C, symBinAddr: 0x10002F4F0, symSize: 0x3C }
  - { offsetInCU: 0x32145, offset: 0x32145, size: 0x8, addend: 0x0, symName: __ZNSt3__110__loadwordB8ue170006IjEET_PKv, symObjAddr: 0x2B50C, symBinAddr: 0x10002F580, symSize: 0x20 }
  - { offsetInCU: 0x32189, offset: 0x32189, size: 0x8, addend: 0x0, symName: __ZNSt3__1eqB8ue170006INS_9allocatorIcEEEEbRKNS_12basic_stringIcNS_11char_traitsIcEET_EES9_, symObjAddr: 0x2B7E8, symBinAddr: 0x10002F85C, symSize: 0x148 }
  - { offsetInCU: 0x321FD, offset: 0x321FD, size: 0x8, addend: 0x0, symName: __ZNSt3__17launderB8ue170006IKNS_4pairIKNS_12basic_stringIcNS_11char_traitsIcEENS_9allocatorIcEEEEN6Merger10FileMergerEEEEEPT_SE_, symObjAddr: 0x2B930, symBinAddr: 0x10002F9A4, symSize: 0x24 }
  - { offsetInCU: 0x32235, offset: 0x32235, size: 0x8, addend: 0x0, symName: __ZNSt3__19__launderB8ue170006IKNS_4pairIKNS_12basic_stringIcNS_11char_traitsIcEENS_9allocatorIcEEEEN6Merger10FileMergerEEEEEPT_SE_, symObjAddr: 0x2B954, symBinAddr: 0x10002F9C8, symSize: 0x14 }
  - { offsetInCU: 0x322E5, offset: 0x322E5, size: 0x8, addend: 0x0, symName: __ZNSt3__112construct_atB8ue170006INS_4pairIKNS_12basic_stringIcNS_11char_traitsIcEENS_9allocatorIcEEEEN6Merger10FileMergerEEEJRKNS_21piecewise_construct_tENS_5tupleIJRS8_EEENSF_IJEEEEPSB_EEPT_SL_DpOT0_, symObjAddr: 0x2BCE0, symBinAddr: 0x10002FD54, symSize: 0x50 }
  - { offsetInCU: 0x3238A, offset: 0x3238A, size: 0x8, addend: 0x0, symName: __ZNSt3__13getB8ue170006ILm0EJRKNS_12basic_stringIcNS_11char_traitsIcEENS_9allocatorIcEEEEEEERNS_13tuple_elementIXT_ENS_5tupleIJDpT0_EEEE4typeERSD_, symObjAddr: 0x2BE04, symBinAddr: 0x10002FE78, symSize: 0x24 }
  - { offsetInCU: 0x323CE, offset: 0x323CE, size: 0x8, addend: 0x0, symName: __ZNSt3__116__next_hash_pow2B8ue170006Em, symObjAddr: 0x2C4DC, symBinAddr: 0x100030550, symSize: 0x6C }
  - { offsetInCU: 0x323FB, offset: 0x323FB, size: 0x8, addend: 0x0, symName: __ZNSt3__110destroy_atB8ue170006INS_4pairIKNS_12basic_stringIcNS_11char_traitsIcEENS_9allocatorIcEEEEN6Merger10FileMergerEEELi0EEEvPT_, symObjAddr: 0x2CA94, symBinAddr: 0x100030B08, symSize: 0x24 }
  - { offsetInCU: 0x32434, offset: 0x32434, size: 0x8, addend: 0x0, symName: __ZNSt3__112__destroy_atB8ue170006INS_4pairIKNS_12basic_stringIcNS_11char_traitsIcEENS_9allocatorIcEEEEN6Merger10FileMergerEEELi0EEEvPT_, symObjAddr: 0x2CAB8, symBinAddr: 0x100030B2C, symSize: 0x24 }
  - { offsetInCU: 0x3246D, offset: 0x3246D, size: 0x8, addend: 0x0, symName: __ZNSt3__112__to_addressB8ue170006I9PartitionEEPT_S3_, symObjAddr: 0x2CF1C, symBinAddr: 0x100030F90, symSize: 0x14 }
  - { offsetInCU: 0x324A3, offset: 0x324A3, size: 0x8, addend: 0x0, symName: __ZNSt3__110destroy_atB8ue170006I9PartitionLi0EEEvPT_, symObjAddr: 0x2CF30, symBinAddr: 0x100030FA4, symSize: 0x24 }
  - { offsetInCU: 0x324DC, offset: 0x324DC, size: 0x8, addend: 0x0, symName: __ZNSt3__112__destroy_atB8ue170006I9PartitionLi0EEEvPT_, symObjAddr: 0x2CF54, symBinAddr: 0x100030FC8, symSize: 0x10 }
  - { offsetInCU: 0x3256C, offset: 0x3256C, size: 0x8, addend: 0x0, symName: __ZNSt3__17launderB8ue170006INS_4pairIKNS_12basic_stringIcNS_11char_traitsIcEENS_9allocatorIcEEEEN6Merger10FileMergerEEEEEPT_SD_, symObjAddr: 0x2D220, symBinAddr: 0x100031294, symSize: 0x24 }
  - { offsetInCU: 0x325A4, offset: 0x325A4, size: 0x8, addend: 0x0, symName: __ZNSt3__19__launderB8ue170006INS_4pairIKNS_12basic_stringIcNS_11char_traitsIcEENS_9allocatorIcEEEEN6Merger10FileMergerEEEEEPT_SD_, symObjAddr: 0x2D244, symBinAddr: 0x1000312B8, symSize: 0x14 }
  - { offsetInCU: 0x32603, offset: 0x32603, size: 0x8, addend: 0x0, symName: __ZNSt3__112construct_atB8ue170006I9PartitionJS1_EPS1_EEPT_S4_DpOT0_, symObjAddr: 0x2D4FC, symBinAddr: 0x100031570, symSize: 0x34 }
  - { offsetInCU: 0x32676, offset: 0x32676, size: 0x8, addend: 0x0, symName: __ZNSt3__119__allocate_at_leastB8ue170006INS_9allocatorI9PartitionEEEENS_19__allocation_resultINS_16allocator_traitsIT_E7pointerEEERS6_m, symObjAddr: 0x2D998, symBinAddr: 0x100031A0C, symSize: 0x40 }
  - { offsetInCU: 0x326BA, offset: 0x326BA, size: 0x8, addend: 0x0, symName: __ZNSt3__142__uninitialized_allocator_move_if_noexceptB8ue170006INS_9allocatorI9PartitionEENS_16reverse_iteratorIPS2_EES6_S2_vEET1_RT_T0_SA_S7_, symObjAddr: 0x2DB4C, symBinAddr: 0x100031BC0, symSize: 0x78 }
  - { offsetInCU: 0x32739, offset: 0x32739, size: 0x8, addend: 0x0, symName: __ZNSt3__14swapB8ue170006IP9PartitionEENS_9enable_ifIXaasr21is_move_constructibleIT_EE5valuesr18is_move_assignableIS4_EE5valueEvE4typeERS4_S7_, symObjAddr: 0x2DC10, symBinAddr: 0x100031C84, symSize: 0x3C }
  - { offsetInCU: 0x3278B, offset: 0x3278B, size: 0x8, addend: 0x0, symName: __ZNSt3__14moveB8ue170006INS_16reverse_iteratorIP9PartitionEES4_EET0_T_S6_S5_, symObjAddr: 0x2DCF8, symBinAddr: 0x100031D6C, symSize: 0x78 }
  - { offsetInCU: 0x327E6, offset: 0x327E6, size: 0x8, addend: 0x0, symName: __ZNSt3__16__moveB8ue170006INS_17_ClassicAlgPolicyENS_16reverse_iteratorIP9PartitionEES5_S5_EENS_4pairIT0_T2_EES7_T1_S8_, symObjAddr: 0x2DD70, symBinAddr: 0x100031DE4, symSize: 0x64 }
  - { offsetInCU: 0x32853, offset: 0x32853, size: 0x8, addend: 0x0, symName: __ZNSt3__123__dispatch_copy_or_moveB8ue170006INS_17_ClassicAlgPolicyENS_11__move_loopIS1_EENS_14__move_trivialENS_16reverse_iteratorIP9PartitionEES8_S8_EENS_4pairIT2_T4_EESA_T3_SB_, symObjAddr: 0x2DDD4, symBinAddr: 0x100031E48, symSize: 0x64 }
  - { offsetInCU: 0x328D2, offset: 0x328D2, size: 0x8, addend: 0x0, symName: __ZNSt3__121__unwrap_and_dispatchB8ue170006INS_10__overloadINS_11__move_loopINS_17_ClassicAlgPolicyEEENS_14__move_trivialEEENS_16reverse_iteratorIP9PartitionEESA_SA_Li0EEENS_4pairIT0_T2_EESC_T1_SD_, symObjAddr: 0x2DE38, symBinAddr: 0x100031EAC, symSize: 0x12C }
  - { offsetInCU: 0x32964, offset: 0x32964, size: 0x8, addend: 0x0, symName: __ZNSt3__114__unwrap_rangeB8ue170006INS_16reverse_iteratorIP9PartitionEES4_EEDaT_T0_, symObjAddr: 0x2DF64, symBinAddr: 0x100031FD8, symSize: 0x4C }
  - { offsetInCU: 0x32A85, offset: 0x32A85, size: 0x8, addend: 0x0, symName: __ZNSt3__113__unwrap_iterB8ue170006INS_16reverse_iteratorIP9PartitionEENS_18__unwrap_iter_implIS4_Lb0EEELi0EEEDTclsrT0_8__unwrapclsr3stdE7declvalIT_EEEES8_, symObjAddr: 0x2E058, symBinAddr: 0x1000320CC, symSize: 0x44 }
  - { offsetInCU: 0x32ACB, offset: 0x32ACB, size: 0x8, addend: 0x0, symName: __ZNSt3__19make_pairB8ue170006INS_16reverse_iteratorIP9PartitionEES4_EENS_4pairINS_18__unwrap_ref_decayIT_E4typeENS6_IT0_E4typeEEEOS7_OSA_, symObjAddr: 0x2E09C, symBinAddr: 0x100032110, symSize: 0x38 }
  - { offsetInCU: 0x32B1B, offset: 0x32B1B, size: 0x8, addend: 0x0, symName: __ZNSt3__114__rewrap_rangeB8ue170006INS_16reverse_iteratorIP9PartitionEES4_S4_EET0_S5_T1_, symObjAddr: 0x2E0D4, symBinAddr: 0x100032148, symSize: 0x5C }
  - { offsetInCU: 0x32B71, offset: 0x32B71, size: 0x8, addend: 0x0, symName: __ZNSt3__113__rewrap_iterB8ue170006INS_16reverse_iteratorIP9PartitionEES4_NS_18__unwrap_iter_implIS4_Lb0EEEEET_S7_T0_, symObjAddr: 0x2E130, symBinAddr: 0x1000321A4, symSize: 0x74 }
  - { offsetInCU: 0x32C17, offset: 0x32C17, size: 0x8, addend: 0x0, symName: __ZNSt3__1neB8ue170006IP9PartitionS2_EEbRKNS_16reverse_iteratorIT_EERKNS3_IT0_EE, symObjAddr: 0x2E298, symBinAddr: 0x10003230C, symSize: 0x48 }
  - { offsetInCU: 0x32CD0, offset: 0x32CD0, size: 0x8, addend: 0x0, symName: __ZNSt3__14sortB8ue170006INS_11__wrap_iterIP9PartitionEEZN6Merger13regroupAndZipERKNS_12basic_stringIcNS_11char_traitsIcEENS_9allocatorIcEEEERNS5_10FileMergerEEUlRKS2_SH_E_EEvT_SJ_T0_, symObjAddr: 0x2E614, symBinAddr: 0x100032688, symSize: 0x40 }
  - { offsetInCU: 0x32D2B, offset: 0x32D2B, size: 0x8, addend: 0x0, symName: __ZNSt3__1neB8ue170006IP9PartitionEEbRKNS_11__wrap_iterIT_EES7_, symObjAddr: 0x2E6B4, symBinAddr: 0x100032728, symSize: 0x34 }
  - { offsetInCU: 0x32D6F, offset: 0x32D6F, size: 0x8, addend: 0x0, symName: __ZNSt3__111__sort_implB8ue170006INS_17_ClassicAlgPolicyENS_11__wrap_iterIP9PartitionEEZN6Merger13regroupAndZipERKNS_12basic_stringIcNS_11char_traitsIcEENS_9allocatorIcEEEERNS6_10FileMergerEEUlRKS3_SI_E_EEvT0_SK_RT1_, symObjAddr: 0x2E744, symBinAddr: 0x1000327B8, symSize: 0xA8 }
  - { offsetInCU: 0x32DD3, offset: 0x32DD3, size: 0x8, addend: 0x0, symName: __ZNSt3__123__debug_randomize_rangeB8ue170006INS_17_ClassicAlgPolicyENS_11__wrap_iterIP9PartitionEES5_EEvT0_T1_, symObjAddr: 0x2E7EC, symBinAddr: 0x100032860, symSize: 0x14 }
  - { offsetInCU: 0x32E25, offset: 0x32E25, size: 0x8, addend: 0x0, symName: __ZNSt3__115__sort_dispatchB8ue170006INS_17_ClassicAlgPolicyEP9PartitionZN6Merger13regroupAndZipERKNS_12basic_stringIcNS_11char_traitsIcEENS_9allocatorIcEEEERNS4_10FileMergerEEUlRKS2_SG_E_EEvT0_SI_RT1_, symObjAddr: 0x2E800, symBinAddr: 0x100032874, symSize: 0x64 }
  - { offsetInCU: 0x32EA4, offset: 0x32EA4, size: 0x8, addend: 0x0, symName: __ZNSt3__113__unwrap_iterB8ue170006INS_11__wrap_iterIP9PartitionEENS_18__unwrap_iter_implIS4_Lb1EEELi0EEEDTclsrT0_8__unwrapclsr3stdE7declvalIT_EEEES8_, symObjAddr: 0x2E864, symBinAddr: 0x1000328D8, symSize: 0x2C }
  - { offsetInCU: 0x32EEA, offset: 0x32EEA, size: 0x8, addend: 0x0, symName: __ZNSt3__135__check_strict_weak_ordering_sortedB8ue170006IP9PartitionZN6Merger13regroupAndZipERKNS_12basic_stringIcNS_11char_traitsIcEENS_9allocatorIcEEEERNS3_10FileMergerEEUlRKS1_SF_E_EEvT_SH_RT0_, symObjAddr: 0x2E890, symBinAddr: 0x100032904, symSize: 0x18 }
  - { offsetInCU: 0x32F41, offset: 0x32F41, size: 0x8, addend: 0x0, symName: __ZNSt3__124__sort3_maybe_branchlessB8ue170006INS_17_ClassicAlgPolicyERZN6Merger13regroupAndZipERKNS_12basic_stringIcNS_11char_traitsIcEENS_9allocatorIcEEEERNS2_10FileMergerEEUlRK9PartitionSF_E_PSD_EENS_9enable_ifIXntsr21__use_branchless_sortIT0_T1_EE5valueEvE4typeESL_SL_SL_SK_, symObjAddr: 0x2ED5C, symBinAddr: 0x100032DD0, symSize: 0x3C }
  - { offsetInCU: 0x32FB3, offset: 0x32FB3, size: 0x8, addend: 0x0, symName: __ZNSt3__124__sort4_maybe_branchlessB8ue170006INS_17_ClassicAlgPolicyERZN6Merger13regroupAndZipERKNS_12basic_stringIcNS_11char_traitsIcEENS_9allocatorIcEEEERNS2_10FileMergerEEUlRK9PartitionSF_E_PSD_EENS_9enable_ifIXntsr21__use_branchless_sortIT0_T1_EE5valueEvE4typeESL_SL_SL_SL_SK_, symObjAddr: 0x2ED98, symBinAddr: 0x100032E0C, symSize: 0x44 }
  - { offsetInCU: 0x33033, offset: 0x33033, size: 0x8, addend: 0x0, symName: __ZNSt3__124__sort5_maybe_branchlessB8ue170006INS_17_ClassicAlgPolicyERZN6Merger13regroupAndZipERKNS_12basic_stringIcNS_11char_traitsIcEENS_9allocatorIcEEEERNS2_10FileMergerEEUlRK9PartitionSF_E_PSD_EENS_9enable_ifIXntsr21__use_branchless_sortIT0_T1_EE5valueEvE4typeESL_SL_SL_SL_SL_SK_, symObjAddr: 0x2EDDC, symBinAddr: 0x100032E50, symSize: 0x4C }
  - { offsetInCU: 0x330C1, offset: 0x330C1, size: 0x8, addend: 0x0, symName: __ZNSt3__116__insertion_sortB8ue170006INS_17_ClassicAlgPolicyERZN6Merger13regroupAndZipERKNS_12basic_stringIcNS_11char_traitsIcEENS_9allocatorIcEEEERNS2_10FileMergerEEUlRK9PartitionSF_E_PSD_EEvT1_SJ_T0_, symObjAddr: 0x2EE28, symBinAddr: 0x100032E9C, symSize: 0x168 }
  - { offsetInCU: 0x33185, offset: 0x33185, size: 0x8, addend: 0x0, symName: __ZNSt3__114__partial_sortB8ue170006INS_17_ClassicAlgPolicyERZN6Merger13regroupAndZipERKNS_12basic_stringIcNS_11char_traitsIcEENS_9allocatorIcEEEERNS2_10FileMergerEEUlRK9PartitionSF_E_PSD_SI_EET1_SJ_SJ_T2_RT0_, symObjAddr: 0x2F0C8, symBinAddr: 0x10003313C, symSize: 0x94 }
  - { offsetInCU: 0x3320E, offset: 0x3320E, size: 0x8, addend: 0x0, symName: __ZNSt3__17__sort3B8ue170006INS_17_ClassicAlgPolicyERZN6Merger13regroupAndZipERKNS_12basic_stringIcNS_11char_traitsIcEENS_9allocatorIcEEEERNS2_10FileMergerEEUlRK9PartitionSF_E_PSD_EEjT1_SJ_SJ_T0_, symObjAddr: 0x2F15C, symBinAddr: 0x1000331D0, symSize: 0x144 }
  - { offsetInCU: 0x3328E, offset: 0x3328E, size: 0x8, addend: 0x0, symName: __ZNSt3__19iter_swapB8ue170006IP9PartitionS2_EEvT_T0_, symObjAddr: 0x2FD9C, symBinAddr: 0x100033E10, symSize: 0x2C }
  - { offsetInCU: 0x332D7, offset: 0x332D7, size: 0x8, addend: 0x0, symName: __ZNSt3__14swapB8ue170006I9PartitionEENS_9enable_ifIXaasr21is_move_constructibleIT_EE5valuesr18is_move_assignableIS3_EE5valueEvE4typeERS3_S6_, symObjAddr: 0x2FDC8, symBinAddr: 0x100033E3C, symSize: 0x54 }
  - { offsetInCU: 0x33329, offset: 0x33329, size: 0x8, addend: 0x0, symName: __ZNSt3__17__sort4B8ue170006INS_17_ClassicAlgPolicyERZN6Merger13regroupAndZipERKNS_12basic_stringIcNS_11char_traitsIcEENS_9allocatorIcEEEERNS2_10FileMergerEEUlRK9PartitionSF_E_PSD_EEvT1_SJ_SJ_SJ_T0_, symObjAddr: 0x2FE1C, symBinAddr: 0x100033E90, symSize: 0xB8 }
  - { offsetInCU: 0x333A5, offset: 0x333A5, size: 0x8, addend: 0x0, symName: __ZNSt3__17__sort5B8ue170006INS_17_ClassicAlgPolicyERZN6Merger13regroupAndZipERKNS_12basic_stringIcNS_11char_traitsIcEENS_9allocatorIcEEEERNS2_10FileMergerEEUlRK9PartitionSF_E_PSD_EEvT1_SJ_SJ_SJ_SJ_T0_, symObjAddr: 0x2FED4, symBinAddr: 0x100033F48, symSize: 0xE8 }
  - { offsetInCU: 0x3342F, offset: 0x3342F, size: 0x8, addend: 0x0, symName: __ZNSt3__123__debug_randomize_rangeB8ue170006INS_17_ClassicAlgPolicyEP9PartitionS3_EEvT0_T1_, symObjAddr: 0x30000, symBinAddr: 0x100034074, symSize: 0x14 }
  - { offsetInCU: 0x33481, offset: 0x33481, size: 0x8, addend: 0x0, symName: __ZNSt3__119__partial_sort_implB8ue170006INS_17_ClassicAlgPolicyERZN6Merger13regroupAndZipERKNS_12basic_stringIcNS_11char_traitsIcEENS_9allocatorIcEEEERNS2_10FileMergerEEUlRK9PartitionSF_E_PSD_SI_EET1_SJ_SJ_T2_OT0_, symObjAddr: 0x30014, symBinAddr: 0x100034088, symSize: 0x110 }
  - { offsetInCU: 0x33518, offset: 0x33518, size: 0x8, addend: 0x0, symName: __ZNSt3__111__make_heapB8ue170006INS_17_ClassicAlgPolicyERZN6Merger13regroupAndZipERKNS_12basic_stringIcNS_11char_traitsIcEENS_9allocatorIcEEEERNS2_10FileMergerEEUlRK9PartitionSF_E_PSD_EEvT1_SJ_OT0_, symObjAddr: 0x30124, symBinAddr: 0x100034198, symSize: 0xB8 }
  - { offsetInCU: 0x335BB, offset: 0x335BB, size: 0x8, addend: 0x0, symName: __ZNSt3__111__sort_heapB8ue170006INS_17_ClassicAlgPolicyERZN6Merger13regroupAndZipERKNS_12basic_stringIcNS_11char_traitsIcEENS_9allocatorIcEEEERNS2_10FileMergerEEUlRK9PartitionSF_E_PSD_EEvT1_SJ_OT0_, symObjAddr: 0x30400, symBinAddr: 0x100034474, symSize: 0xA8 }
  - { offsetInCU: 0x3365E, offset: 0x3365E, size: 0x8, addend: 0x0, symName: __ZNSt3__110__pop_heapB8ue170006INS_17_ClassicAlgPolicyEZN6Merger13regroupAndZipERKNS_12basic_stringIcNS_11char_traitsIcEENS_9allocatorIcEEEERNS2_10FileMergerEEUlRK9PartitionSF_E_PSD_EEvT1_SI_RT0_NS_15iterator_traitsISI_E15difference_typeE, symObjAddr: 0x304A8, symBinAddr: 0x10003451C, symSize: 0x114 }
  - { offsetInCU: 0x3370F, offset: 0x3370F, size: 0x8, addend: 0x0, symName: __ZNSt3__19__sift_upB8ue170006INS_17_ClassicAlgPolicyERZN6Merger13regroupAndZipERKNS_12basic_stringIcNS_11char_traitsIcEENS_9allocatorIcEEEERNS2_10FileMergerEEUlRK9PartitionSF_E_PSD_EEvT1_SJ_OT0_NS_15iterator_traitsISJ_E15difference_typeE, symObjAddr: 0x306C4, symBinAddr: 0x100034738, symSize: 0x134 }
  - { offsetInCU: 0x337C0, offset: 0x337C0, size: 0x8, addend: 0x0, symName: __ZNSt3__122__populate_left_bitsetB8ue170006IRZN6Merger13regroupAndZipERKNS_12basic_stringIcNS_11char_traitsIcEENS_9allocatorIcEEEERNS1_10FileMergerEEUlRK9PartitionSE_E_PSC_SC_EEvT0_T_RT1_Ry, symObjAddr: 0x307F8, symBinAddr: 0x10003486C, symSize: 0xA8 }
  - { offsetInCU: 0x3387C, offset: 0x3387C, size: 0x8, addend: 0x0, symName: __ZNSt3__123__populate_right_bitsetB8ue170006IRZN6Merger13regroupAndZipERKNS_12basic_stringIcNS_11char_traitsIcEENS_9allocatorIcEEEERNS1_10FileMergerEEUlRK9PartitionSE_E_PSC_SC_EEvT0_T_RT1_Ry, symObjAddr: 0x308A0, symBinAddr: 0x100034914, symSize: 0xA0 }
  - { offsetInCU: 0x33938, offset: 0x33938, size: 0x8, addend: 0x0, symName: __ZNSt3__117__swap_bitmap_posB8ue170006INS_17_ClassicAlgPolicyEP9PartitionEEvT0_S4_RyS5_, symObjAddr: 0x30940, symBinAddr: 0x1000349B4, symSize: 0x100 }
  - { offsetInCU: 0x339DA, offset: 0x339DA, size: 0x8, addend: 0x0, symName: __ZNSt3__133__bitset_partition_partial_blocksB8ue170006INS_17_ClassicAlgPolicyERZN6Merger13regroupAndZipERKNS_12basic_stringIcNS_11char_traitsIcEENS_9allocatorIcEEEERNS2_10FileMergerEEUlRK9PartitionSF_E_PSD_SD_EEvRT1_SK_T0_RT2_RySO_, symObjAddr: 0x30A40, symBinAddr: 0x100034AB4, symSize: 0x2E8 }
  - { offsetInCU: 0x33B5C, offset: 0x33B5C, size: 0x8, addend: 0x0, symName: __ZNSt3__19make_pairB8ue170006IRP9PartitionRbEENS_4pairINS_18__unwrap_ref_decayIT_E4typeENS6_IT0_E4typeEEEOS7_OSA_, symObjAddr: 0x30F08, symBinAddr: 0x100034F7C, symSize: 0x38 }
  - { offsetInCU: 0x33CD3, offset: 0x33CD3, size: 0x8, addend: 0x0, symName: __ZNSt3__112__to_addressB8ue170006INS_11__wrap_iterIP9PartitionEEvEEu7__decayIDTclsr19__to_address_helperIT_EE6__callclsr3stdE7declvalIRKS5_EEEEES7_, symObjAddr: 0x31010, symBinAddr: 0x100035084, symSize: 0x24 }
  - { offsetInCU: 0x33D72, offset: 0x33D72, size: 0x8, addend: 0x0, symName: __ZNSt3__1eqB8ue170006IP9PartitionEEbRKNS_11__wrap_iterIT_EES7_, symObjAddr: 0x3112C, symBinAddr: 0x1000351A0, symSize: 0x48 }
  - { offsetInCU: 0x33DB6, offset: 0x33DB6, size: 0x8, addend: 0x0, symName: __ZNSt3__14sortB8ue170006INS_11__wrap_iterIP9PartitionEEZN6Merger15regroupAndWriteERKNS_12basic_stringIcNS_11char_traitsIcEENS_9allocatorIcEEEERNS5_10FileMergerEEUlRKS2_SH_E_EEvT_SJ_T0_, symObjAddr: 0x31174, symBinAddr: 0x1000351E8, symSize: 0x40 }
  - { offsetInCU: 0x33E11, offset: 0x33E11, size: 0x8, addend: 0x0, symName: __ZNSt3__111__sort_implB8ue170006INS_17_ClassicAlgPolicyENS_11__wrap_iterIP9PartitionEEZN6Merger15regroupAndWriteERKNS_12basic_stringIcNS_11char_traitsIcEENS_9allocatorIcEEEERNS6_10FileMergerEEUlRKS3_SI_E_EEvT0_SK_RT1_, symObjAddr: 0x311B4, symBinAddr: 0x100035228, symSize: 0xA8 }
  - { offsetInCU: 0x33E75, offset: 0x33E75, size: 0x8, addend: 0x0, symName: __ZNSt3__115__sort_dispatchB8ue170006INS_17_ClassicAlgPolicyEP9PartitionZN6Merger15regroupAndWriteERKNS_12basic_stringIcNS_11char_traitsIcEENS_9allocatorIcEEEERNS4_10FileMergerEEUlRKS2_SG_E_EEvT0_SI_RT1_, symObjAddr: 0x3125C, symBinAddr: 0x1000352D0, symSize: 0x64 }
  - { offsetInCU: 0x33EF4, offset: 0x33EF4, size: 0x8, addend: 0x0, symName: __ZNSt3__135__check_strict_weak_ordering_sortedB8ue170006IP9PartitionZN6Merger15regroupAndWriteERKNS_12basic_stringIcNS_11char_traitsIcEENS_9allocatorIcEEEERNS3_10FileMergerEEUlRKS1_SF_E_EEvT_SH_RT0_, symObjAddr: 0x312C0, symBinAddr: 0x100035334, symSize: 0x18 }
  - { offsetInCU: 0x33F4B, offset: 0x33F4B, size: 0x8, addend: 0x0, symName: __ZNSt3__124__sort3_maybe_branchlessB8ue170006INS_17_ClassicAlgPolicyERZN6Merger15regroupAndWriteERKNS_12basic_stringIcNS_11char_traitsIcEENS_9allocatorIcEEEERNS2_10FileMergerEEUlRK9PartitionSF_E_PSD_EENS_9enable_ifIXntsr21__use_branchless_sortIT0_T1_EE5valueEvE4typeESL_SL_SL_SK_, symObjAddr: 0x31758, symBinAddr: 0x1000357CC, symSize: 0x3C }
  - { offsetInCU: 0x33FBD, offset: 0x33FBD, size: 0x8, addend: 0x0, symName: __ZNSt3__124__sort4_maybe_branchlessB8ue170006INS_17_ClassicAlgPolicyERZN6Merger15regroupAndWriteERKNS_12basic_stringIcNS_11char_traitsIcEENS_9allocatorIcEEEERNS2_10FileMergerEEUlRK9PartitionSF_E_PSD_EENS_9enable_ifIXntsr21__use_branchless_sortIT0_T1_EE5valueEvE4typeESL_SL_SL_SL_SK_, symObjAddr: 0x31794, symBinAddr: 0x100035808, symSize: 0x44 }
  - { offsetInCU: 0x3403D, offset: 0x3403D, size: 0x8, addend: 0x0, symName: __ZNSt3__124__sort5_maybe_branchlessB8ue170006INS_17_ClassicAlgPolicyERZN6Merger15regroupAndWriteERKNS_12basic_stringIcNS_11char_traitsIcEENS_9allocatorIcEEEERNS2_10FileMergerEEUlRK9PartitionSF_E_PSD_EENS_9enable_ifIXntsr21__use_branchless_sortIT0_T1_EE5valueEvE4typeESL_SL_SL_SL_SL_SK_, symObjAddr: 0x317D8, symBinAddr: 0x10003584C, symSize: 0x4C }
  - { offsetInCU: 0x340CB, offset: 0x340CB, size: 0x8, addend: 0x0, symName: __ZNSt3__116__insertion_sortB8ue170006INS_17_ClassicAlgPolicyERZN6Merger15regroupAndWriteERKNS_12basic_stringIcNS_11char_traitsIcEENS_9allocatorIcEEEERNS2_10FileMergerEEUlRK9PartitionSF_E_PSD_EEvT1_SJ_T0_, symObjAddr: 0x31824, symBinAddr: 0x100035898, symSize: 0x168 }
  - { offsetInCU: 0x3418F, offset: 0x3418F, size: 0x8, addend: 0x0, symName: __ZNSt3__114__partial_sortB8ue170006INS_17_ClassicAlgPolicyERZN6Merger15regroupAndWriteERKNS_12basic_stringIcNS_11char_traitsIcEENS_9allocatorIcEEEERNS2_10FileMergerEEUlRK9PartitionSF_E_PSD_SI_EET1_SJ_SJ_T2_RT0_, symObjAddr: 0x31AC4, symBinAddr: 0x100035B38, symSize: 0x94 }
  - { offsetInCU: 0x34218, offset: 0x34218, size: 0x8, addend: 0x0, symName: __ZNSt3__17__sort3B8ue170006INS_17_ClassicAlgPolicyERZN6Merger15regroupAndWriteERKNS_12basic_stringIcNS_11char_traitsIcEENS_9allocatorIcEEEERNS2_10FileMergerEEUlRK9PartitionSF_E_PSD_EEjT1_SJ_SJ_T0_, symObjAddr: 0x31B58, symBinAddr: 0x100035BCC, symSize: 0x144 }
  - { offsetInCU: 0x34298, offset: 0x34298, size: 0x8, addend: 0x0, symName: __ZNSt3__17__sort4B8ue170006INS_17_ClassicAlgPolicyERZN6Merger15regroupAndWriteERKNS_12basic_stringIcNS_11char_traitsIcEENS_9allocatorIcEEEERNS2_10FileMergerEEUlRK9PartitionSF_E_PSD_EEvT1_SJ_SJ_SJ_T0_, symObjAddr: 0x32764, symBinAddr: 0x1000367D8, symSize: 0xB8 }
  - { offsetInCU: 0x34314, offset: 0x34314, size: 0x8, addend: 0x0, symName: __ZNSt3__17__sort5B8ue170006INS_17_ClassicAlgPolicyERZN6Merger15regroupAndWriteERKNS_12basic_stringIcNS_11char_traitsIcEENS_9allocatorIcEEEERNS2_10FileMergerEEUlRK9PartitionSF_E_PSD_EEvT1_SJ_SJ_SJ_SJ_T0_, symObjAddr: 0x3281C, symBinAddr: 0x100036890, symSize: 0xE8 }
  - { offsetInCU: 0x3439E, offset: 0x3439E, size: 0x8, addend: 0x0, symName: __ZNSt3__119__partial_sort_implB8ue170006INS_17_ClassicAlgPolicyERZN6Merger15regroupAndWriteERKNS_12basic_stringIcNS_11char_traitsIcEENS_9allocatorIcEEEERNS2_10FileMergerEEUlRK9PartitionSF_E_PSD_SI_EET1_SJ_SJ_T2_OT0_, symObjAddr: 0x32904, symBinAddr: 0x100036978, symSize: 0x110 }
  - { offsetInCU: 0x34435, offset: 0x34435, size: 0x8, addend: 0x0, symName: __ZNSt3__111__make_heapB8ue170006INS_17_ClassicAlgPolicyERZN6Merger15regroupAndWriteERKNS_12basic_stringIcNS_11char_traitsIcEENS_9allocatorIcEEEERNS2_10FileMergerEEUlRK9PartitionSF_E_PSD_EEvT1_SJ_OT0_, symObjAddr: 0x32A14, symBinAddr: 0x100036A88, symSize: 0xB8 }
  - { offsetInCU: 0x344D8, offset: 0x344D8, size: 0x8, addend: 0x0, symName: __ZNSt3__111__sort_heapB8ue170006INS_17_ClassicAlgPolicyERZN6Merger15regroupAndWriteERKNS_12basic_stringIcNS_11char_traitsIcEENS_9allocatorIcEEEERNS2_10FileMergerEEUlRK9PartitionSF_E_PSD_EEvT1_SJ_OT0_, symObjAddr: 0x32CF0, symBinAddr: 0x100036D64, symSize: 0xA8 }
  - { offsetInCU: 0x3457B, offset: 0x3457B, size: 0x8, addend: 0x0, symName: __ZNSt3__110__pop_heapB8ue170006INS_17_ClassicAlgPolicyEZN6Merger15regroupAndWriteERKNS_12basic_stringIcNS_11char_traitsIcEENS_9allocatorIcEEEERNS2_10FileMergerEEUlRK9PartitionSF_E_PSD_EEvT1_SI_RT0_NS_15iterator_traitsISI_E15difference_typeE, symObjAddr: 0x32D98, symBinAddr: 0x100036E0C, symSize: 0x114 }
  - { offsetInCU: 0x3462C, offset: 0x3462C, size: 0x8, addend: 0x0, symName: __ZNSt3__19__sift_upB8ue170006INS_17_ClassicAlgPolicyERZN6Merger15regroupAndWriteERKNS_12basic_stringIcNS_11char_traitsIcEENS_9allocatorIcEEEERNS2_10FileMergerEEUlRK9PartitionSF_E_PSD_EEvT1_SJ_OT0_NS_15iterator_traitsISJ_E15difference_typeE, symObjAddr: 0x32FB4, symBinAddr: 0x100037028, symSize: 0x134 }
  - { offsetInCU: 0x346DD, offset: 0x346DD, size: 0x8, addend: 0x0, symName: __ZNSt3__122__populate_left_bitsetB8ue170006IRZN6Merger15regroupAndWriteERKNS_12basic_stringIcNS_11char_traitsIcEENS_9allocatorIcEEEERNS1_10FileMergerEEUlRK9PartitionSE_E_PSC_SC_EEvT0_T_RT1_Ry, symObjAddr: 0x330E8, symBinAddr: 0x10003715C, symSize: 0xA8 }
  - { offsetInCU: 0x34799, offset: 0x34799, size: 0x8, addend: 0x0, symName: __ZNSt3__123__populate_right_bitsetB8ue170006IRZN6Merger15regroupAndWriteERKNS_12basic_stringIcNS_11char_traitsIcEENS_9allocatorIcEEEERNS1_10FileMergerEEUlRK9PartitionSE_E_PSC_SC_EEvT0_T_RT1_Ry, symObjAddr: 0x33190, symBinAddr: 0x100037204, symSize: 0xA0 }
  - { offsetInCU: 0x34855, offset: 0x34855, size: 0x8, addend: 0x0, symName: __ZNSt3__133__bitset_partition_partial_blocksB8ue170006INS_17_ClassicAlgPolicyERZN6Merger15regroupAndWriteERKNS_12basic_stringIcNS_11char_traitsIcEENS_9allocatorIcEEEERNS2_10FileMergerEEUlRK9PartitionSF_E_PSD_SD_EEvRT1_SK_T0_RT2_RySO_, symObjAddr: 0x33230, symBinAddr: 0x1000372A4, symSize: 0x2E8 }
  - { offsetInCU: 0x349D7, offset: 0x349D7, size: 0x8, addend: 0x0, symName: __ZNSt3__1eqB8ue170006ERKNS_15__hash_iteratorIPNS_11__hash_nodeINS_17__hash_value_typeINS_12basic_stringIcNS_11char_traitsIcEENS_9allocatorIcEEEEN6Merger10FileMergerEEEPvEEEESH_, symObjAddr: 0x33760, symBinAddr: 0x1000377D4, symSize: 0x30 }
  - { offsetInCU: 0x34A15, offset: 0x34A15, size: 0x8, addend: 0x0, symName: __ZNSt3__111max_elementB8ue170006INS_11__wrap_iterIP7timevalEEPFbRS2_S5_EEET_S8_S8_T0_, symObjAddr: 0x38DE8, symBinAddr: 0x10003CE5C, symSize: 0x50 }
  - { offsetInCU: 0x34A70, offset: 0x34A70, size: 0x8, addend: 0x0, symName: __ZNSt3__122__make_exception_guardB8ue170006INS_6vectorI7timevalNS_9allocatorIS2_EEE16__destroy_vectorEEENS_28__exception_guard_exceptionsIT_EES8_, symObjAddr: 0x39088, symBinAddr: 0x10003D0FC, symSize: 0x40 }
  - { offsetInCU: 0x34AA6, offset: 0x34AA6, size: 0x8, addend: 0x0, symName: __ZNSt3__119__allocate_at_leastB8ue170006INS_9allocatorI7timevalEEEENS_19__allocation_resultINS_16allocator_traitsIT_E7pointerEEERS6_m, symObjAddr: 0x3947C, symBinAddr: 0x10003D4F0, symSize: 0x40 }
  - { offsetInCU: 0x34AEA, offset: 0x34AEA, size: 0x8, addend: 0x0, symName: __ZNSt3__112__to_addressB8ue170006I7timevalEEPT_S3_, symObjAddr: 0x39790, symBinAddr: 0x10003D804, symSize: 0x14 }
  - { offsetInCU: 0x34B47, offset: 0x34B47, size: 0x8, addend: 0x0, symName: __ZNSt3__112construct_atB8ue170006I7timevalJRKS1_EPS1_EEPT_S6_DpOT0_, symObjAddr: 0x398E0, symBinAddr: 0x10003D954, symSize: 0x2C }
  - { offsetInCU: 0x34BBA, offset: 0x34BBA, size: 0x8, addend: 0x0, symName: __ZNSt3__110destroy_atB8ue170006I7timevalLi0EEEvPT_, symObjAddr: 0x39BD4, symBinAddr: 0x10003DC48, symSize: 0x24 }
  - { offsetInCU: 0x34BF3, offset: 0x34BF3, size: 0x8, addend: 0x0, symName: __ZNSt3__112__destroy_atB8ue170006I7timevalLi0EEEvPT_, symObjAddr: 0x39BF8, symBinAddr: 0x10003DC6C, symSize: 0x10 }
  - { offsetInCU: 0x34C2C, offset: 0x34C2C, size: 0x8, addend: 0x0, symName: __ZNSt3__113__max_elementB8ue170006IRPFbR7timevalS2_ENS_11__wrap_iterIPS1_EEEET0_S9_S9_T_, symObjAddr: 0x39C70, symBinAddr: 0x10003DCE4, symSize: 0xBC }
  - { offsetInCU: 0x34CA3, offset: 0x34CA3, size: 0x8, addend: 0x0, symName: __ZNSt3__1neB8ue170006IP7timevalEEbRKNS_11__wrap_iterIT_EES7_, symObjAddr: 0x39D2C, symBinAddr: 0x10003DDA0, symSize: 0x34 }
  - { offsetInCU: 0x34CE7, offset: 0x34CE7, size: 0x8, addend: 0x0, symName: __ZNSt3__1eqB8ue170006IP7timevalEEbRKNS_11__wrap_iterIT_EES7_, symObjAddr: 0x39D80, symBinAddr: 0x10003DDF4, symSize: 0x48 }
  - { offsetInCU: 0x34D2B, offset: 0x34D2B, size: 0x8, addend: 0x0, symName: __ZNSt3__116__pad_and_outputB8ue170006IcNS_11char_traitsIcEEEENS_19ostreambuf_iteratorIT_T0_EES6_PKS4_S8_S8_RNS_8ios_baseES4_, symObjAddr: 0x3A814, symBinAddr: 0x10003E888, symSize: 0x240 }
  - { offsetInCU: 0x34DFC, offset: 0x34DFC, size: 0x8, addend: 0x0, symName: __ZNSt3__19use_facetB8ue170006INS_5ctypeIcEEEERKT_RKNS_6localeE, symObjAddr: 0x3AD94, symBinAddr: 0x10003EE08, symSize: 0x2C }
  - { offsetInCU: 0x35E21, offset: 0x35E21, size: 0x8, addend: 0x0, symName: __ZSt28__throw_bad_array_new_lengthB8ue170006v, symObjAddr: 0x37D8, symBinAddr: 0x10000784C, symSize: 0x34 }
  - { offsetInCU: 0x36756, offset: 0x36756, size: 0x8, addend: 0x0, symName: __ZL8lworkers, symObjAddr: 0x17FBA0, symBinAddr: 0x100074160, symSize: 0x0 }
  - { offsetInCU: 0x3676F, offset: 0x3676F, size: 0x8, addend: 0x0, symName: __ZL8rworkers, symObjAddr: 0x17FBA8, symBinAddr: 0x100074168, symSize: 0x0 }
  - { offsetInCU: 0x36788, offset: 0x36788, size: 0x8, addend: 0x0, symName: __ZL21BIGFILE_LOW_THRESHOLD, symObjAddr: 0x46258, symBinAddr: 0x100074000, symSize: 0x0 }
  - { offsetInCU: 0x367A1, offset: 0x367A1, size: 0x8, addend: 0x0, symName: __ZL5RECUR, symObjAddr: 0x17FBB0, symBinAddr: 0x100074170, symSize: 0x0 }
  - { offsetInCU: 0x367BA, offset: 0x367BA, size: 0x8, addend: 0x0, symName: __ZL13REMOVE_ORIGIN, symObjAddr: 0x17FBB1, symBinAddr: 0x100074171, symSize: 0x0 }
  - { offsetInCU: 0x367D3, offset: 0x367D3, size: 0x8, addend: 0x0, symName: __ZL4comp, symObjAddr: 0x46260, symBinAddr: 0x100074008, symSize: 0x0 }
  - { offsetInCU: 0x367EC, offset: 0x367EC, size: 0x8, addend: 0x0, symName: __ZL10QUITE_MODE, symObjAddr: 0x46264, symBinAddr: 0x10007400C, symSize: 0x0 }
  - { offsetInCU: 0x36805, offset: 0x36805, size: 0x8, addend: 0x0, symName: __ZL2cc, symObjAddr: 0x17FBB2, symBinAddr: 0x100074172, symSize: 0x0 }
  - { offsetInCU: 0x3681E, offset: 0x3681E, size: 0x8, addend: 0x0, symName: __ZL7VERBOSE, symObjAddr: 0x17FBB4, symBinAddr: 0x100074174, symSize: 0x0 }
  - { offsetInCU: 0x36A92, offset: 0x36A92, size: 0x8, addend: 0x0, symName: __ZN2ff12threadMapper8instanceEv, symObjAddr: 0x209CC, symBinAddr: 0x100024A40, symSize: 0xB8 }
  - { offsetInCU: 0x36AB2, offset: 0x36AB2, size: 0x8, addend: 0x0, symName: __ZZN2ff12threadMapper8instanceEvE3thm, symObjAddr: 0x462A0, symBinAddr: 0x100074048, symSize: 0x0 }
  - { offsetInCU: 0x3760A, offset: 0x3760A, size: 0x8, addend: 0x0, symName: __ZNSt3__16vectorI8FileDataNS_9allocatorIS1_EEE26__swap_out_circular_bufferERNS_14__split_bufferIS1_RS3_EE, symObjAddr: 0x9DFC, symBinAddr: 0x10000DE70, symSize: 0x110 }
  - { offsetInCU: 0x377AD, offset: 0x377AD, size: 0x8, addend: 0x0, symName: __ZNSt3__16vectorIPN2ff7ff_nodeENS_9allocatorIS3_EEE26__swap_out_circular_bufferERNS_14__split_bufferIS3_RS5_EE, symObjAddr: 0xC82C, symBinAddr: 0x1000108A0, symSize: 0x110 }
  - { offsetInCU: 0x37991, offset: 0x37991, size: 0x8, addend: 0x0, symName: __ZNSt3__16vectorImNS_9allocatorImEEE26__swap_out_circular_bufferERNS_14__split_bufferImRS2_EE, symObjAddr: 0x1ED78, symBinAddr: 0x100022DEC, symSize: 0x110 }
  - { offsetInCU: 0x38565, offset: 0x38565, size: 0x8, addend: 0x0, symName: __ZNSt3__16vectorI9PartitionNS_9allocatorIS1_EEE26__swap_out_circular_bufferERNS_14__split_bufferIS1_RS3_EE, symObjAddr: 0x2D648, symBinAddr: 0x1000316BC, symSize: 0x110 }
  - { offsetInCU: 0x3AB6B, offset: 0x3AB6B, size: 0x8, addend: 0x0, symName: __Z13compareBySizeRK8FileDataS1_, symObjAddr: 0x0, symBinAddr: 0x100004074, symSize: 0x30 }
  - { offsetInCU: 0x3ABA9, offset: 0x3ABA9, size: 0x8, addend: 0x0, symName: __Z15distributeFilesRKNSt3__16vectorI8FileDataNS_9allocatorIS1_EEEEi, symObjAddr: 0x30, symBinAddr: 0x1000040A4, symSize: 0x23C }
  - { offsetInCU: 0x3AC85, offset: 0x3AC85, size: 0x8, addend: 0x0, symName: __ZNSt3__16vectorI8FileDataNS_9allocatorIS1_EEEC1ERKS4_, symObjAddr: 0x26C, symBinAddr: 0x1000042E0, symSize: 0x34 }
  - { offsetInCU: 0x3ACC0, offset: 0x3ACC0, size: 0x8, addend: 0x0, symName: __ZNSt3__16vectorI8FileDataNS_9allocatorIS1_EEE5beginB8ue170006Ev, symObjAddr: 0x2E8, symBinAddr: 0x10000435C, symSize: 0x30 }
  - { offsetInCU: 0x3ACE8, offset: 0x3ACE8, size: 0x8, addend: 0x0, symName: __ZNSt3__16vectorI8FileDataNS_9allocatorIS1_EEE3endB8ue170006Ev, symObjAddr: 0x318, symBinAddr: 0x10000438C, symSize: 0x30 }
  - { offsetInCU: 0x3AD10, offset: 0x3AD10, size: 0x8, addend: 0x0, symName: __ZNSt3__16vectorINS0_I8FileDataNS_9allocatorIS1_EEEENS2_IS4_EEEC1Em, symObjAddr: 0x348, symBinAddr: 0x1000043BC, symSize: 0x34 }
  - { offsetInCU: 0x3AD4B, offset: 0x3AD4B, size: 0x8, addend: 0x0, symName: __ZNSt3__16vectorImNS_9allocatorImEEEC1EmRKm, symObjAddr: 0x37C, symBinAddr: 0x1000043F0, symSize: 0x3C }
  - { offsetInCU: 0x3AD95, offset: 0x3AD95, size: 0x8, addend: 0x0, symName: __ZNKSt3__111__wrap_iterIP8FileDataEdeB8ue170006Ev, symObjAddr: 0x3EC, symBinAddr: 0x100004460, symSize: 0x18 }
  - { offsetInCU: 0x3ADBB, offset: 0x3ADBB, size: 0x8, addend: 0x0, symName: __ZNSt3__16vectorImNS_9allocatorImEEE5beginB8ue170006Ev, symObjAddr: 0x448, symBinAddr: 0x1000044BC, symSize: 0x30 }
  - { offsetInCU: 0x3ADE3, offset: 0x3ADE3, size: 0x8, addend: 0x0, symName: __ZNSt3__16vectorImNS_9allocatorImEEE3endB8ue170006Ev, symObjAddr: 0x478, symBinAddr: 0x1000044EC, symSize: 0x30 }
  - { offsetInCU: 0x3AE0B, offset: 0x3AE0B, size: 0x8, addend: 0x0, symName: __ZNSt3__16vectorINS0_I8FileDataNS_9allocatorIS1_EEEENS2_IS4_EEEixB8ue170006Em, symObjAddr: 0x4E4, symBinAddr: 0x100004558, symSize: 0x2C }
  - { offsetInCU: 0x3AE42, offset: 0x3AE42, size: 0x8, addend: 0x0, symName: __ZNSt3__16vectorI8FileDataNS_9allocatorIS1_EEE9push_backB8ue170006ERKS1_, symObjAddr: 0x510, symBinAddr: 0x100004584, symSize: 0x6C }
  - { offsetInCU: 0x3AE79, offset: 0x3AE79, size: 0x8, addend: 0x0, symName: __ZNSt3__16vectorImNS_9allocatorImEEEixB8ue170006Em, symObjAddr: 0x57C, symBinAddr: 0x1000045F0, symSize: 0x24 }
  - { offsetInCU: 0x3AEB0, offset: 0x3AEB0, size: 0x8, addend: 0x0, symName: __ZNSt3__111__wrap_iterIP8FileDataEppB8ue170006Ev, symObjAddr: 0x5A0, symBinAddr: 0x100004614, symSize: 0x20 }
  - { offsetInCU: 0x3AED6, offset: 0x3AED6, size: 0x8, addend: 0x0, symName: __ZNSt3__16vectorImNS_9allocatorImEEED1B8ue170006Ev, symObjAddr: 0x5C0, symBinAddr: 0x100004634, symSize: 0x2C }
  - { offsetInCU: 0x3AF00, offset: 0x3AF00, size: 0x8, addend: 0x0, symName: __ZNSt3__16vectorINS0_I8FileDataNS_9allocatorIS1_EEEENS2_IS4_EEED1B8ue170006Ev, symObjAddr: 0x5EC, symBinAddr: 0x100004660, symSize: 0x2C }
  - { offsetInCU: 0x3AF2A, offset: 0x3AF2A, size: 0x8, addend: 0x0, symName: __ZNSt3__16vectorI8FileDataNS_9allocatorIS1_EEED1B8ue170006Ev, symObjAddr: 0x618, symBinAddr: 0x10000468C, symSize: 0x2C }
  - { offsetInCU: 0x3AF54, offset: 0x3AF54, size: 0x8, addend: 0x0, symName: __ZN2ff7svectorIPNS_7ff_nodeEEC1Em, symObjAddr: 0x644, symBinAddr: 0x1000046B8, symSize: 0x34 }
  - { offsetInCU: 0x3AF8C, offset: 0x3AF8C, size: 0x8, addend: 0x0, symName: __ZN2ff7svectorIPNS_7ff_nodeEED1Ev, symObjAddr: 0x678, symBinAddr: 0x1000046EC, symSize: 0x2C }
  - { offsetInCU: 0x3AFB6, offset: 0x3AFB6, size: 0x8, addend: 0x0, symName: __Z16parseCommandLineiPPc, symObjAddr: 0x6A4, symBinAddr: 0x100004718, symSize: 0x820 }
  - { offsetInCU: 0x3B11A, offset: 0x3B11A, size: 0x8, addend: 0x0, symName: __ZNSt3__112basic_stringIcNS_11char_traitsIcEENS_9allocatorIcEEEC1B8ue170006ILi0EEEPKc, symObjAddr: 0xF98, symBinAddr: 0x10000500C, symSize: 0x34 }
  - { offsetInCU: 0x3B15A, offset: 0x3B15A, size: 0x8, addend: 0x0, symName: __ZL11ff_numCoresv, symObjAddr: 0xFCC, symBinAddr: 0x100005040, symSize: 0x10 }
  - { offsetInCU: 0x3B178, offset: 0x3B178, size: 0x8, addend: 0x0, symName: __ZNKSt3__112basic_stringIcNS_11char_traitsIcEENS_9allocatorIcEEE5c_strB8ue170006Ev, symObjAddr: 0xFDC, symBinAddr: 0x100005050, symSize: 0x24 }
  - { offsetInCU: 0x3B19D, offset: 0x3B19D, size: 0x8, addend: 0x0, symName: __ZL8isNumberPKcRl, symObjAddr: 0x1000, symBinAddr: 0x100005074, symSize: 0x134 }
  - { offsetInCU: 0x3B202, offset: 0x3B202, size: 0x8, addend: 0x0, symName: __ZL5usagePKc, symObjAddr: 0x1134, symBinAddr: 0x1000051A8, symSize: 0xF8 }
  - { offsetInCU: 0x3B22B, offset: 0x3B22B, size: 0x8, addend: 0x0, symName: _main, symObjAddr: 0x1258, symBinAddr: 0x1000052CC, symSize: 0x9C8 }
  - { offsetInCU: 0x3B46C, offset: 0x3B46C, size: 0x8, addend: 0x0, symName: __ZNSt3__16vectorI8FileDataNS_9allocatorIS1_EEEC1B8ue170006Ev, symObjAddr: 0x1D20, symBinAddr: 0x100005D94, symSize: 0x2C }
  - { offsetInCU: 0x3B495, offset: 0x3B495, size: 0x8, addend: 0x0, symName: __ZL16walkDirAndGetPtrPKcRNSt3__16vectorI8FileDataNS1_9allocatorIS3_EEEEb, symObjAddr: 0x1D4C, symBinAddr: 0x100005DC0, symSize: 0x7B0 }
  - { offsetInCU: 0x3B5B7, offset: 0x3B5B7, size: 0x8, addend: 0x0, symName: __ZNSt3__113basic_ostreamIcNS_11char_traitsIcEEElsB8ue170006EPFRS3_S4_E, symObjAddr: 0x2544, symBinAddr: 0x1000065B8, symSize: 0x2C }
  - { offsetInCU: 0x3B5EB, offset: 0x3B5EB, size: 0x8, addend: 0x0, symName: __ZNSt3__16vectorIPN2ff7ff_nodeENS_9allocatorIS3_EEEC1B8ue170006Ev, symObjAddr: 0x2614, symBinAddr: 0x100006688, symSize: 0x2C }
  - { offsetInCU: 0x3B615, offset: 0x3B615, size: 0x8, addend: 0x0, symName: __ZNSt3__16vectorIPN2ff7ff_nodeENS_9allocatorIS3_EEE9push_backB8ue170006EOS3_, symObjAddr: 0x2640, symBinAddr: 0x1000066B4, symSize: 0x6C }
  - { offsetInCU: 0x3B71E, offset: 0x3B71E, size: 0x8, addend: 0x0, symName: __ZN8L_WorkerC1ERKNSt3__16vectorI8FileDataNS0_9allocatorIS2_EEEEb, symObjAddr: 0x26AC, symBinAddr: 0x100006720, symSize: 0x48 }
  - { offsetInCU: 0x3B84A, offset: 0x3B84A, size: 0x8, addend: 0x0, symName: __ZN8R_WorkerC1Em, symObjAddr: 0x26F4, symBinAddr: 0x100006768, symSize: 0x34 }
  - { offsetInCU: 0x3B882, offset: 0x3B882, size: 0x8, addend: 0x0, symName: __ZN6MergerC1Em, symObjAddr: 0x2728, symBinAddr: 0x10000679C, symSize: 0x34 }
  - { offsetInCU: 0x3B8BB, offset: 0x3B8BB, size: 0x8, addend: 0x0, symName: __ZN2ff6ff_a2aC1Ebiib, symObjAddr: 0x275C, symBinAddr: 0x1000067D0, symSize: 0x60 }
  - { offsetInCU: 0x3B921, offset: 0x3B921, size: 0x8, addend: 0x0, symName: __ZN2ff6ff_a2a12add_firstsetINS_7ff_nodeEEEiRKNSt3__16vectorIPT_NS3_9allocatorIS6_EEEEib, symObjAddr: 0x27BC, symBinAddr: 0x100006830, symSize: 0x19C }
  - { offsetInCU: 0x3B9B7, offset: 0x3B9B7, size: 0x8, addend: 0x0, symName: __ZN2ff6ff_a2a13add_secondsetINS_7ff_nodeEEEiRKNSt3__16vectorIPT_NS3_9allocatorIS6_EEEEb, symObjAddr: 0x2958, symBinAddr: 0x1000069CC, symSize: 0x18C }
  - { offsetInCU: 0x3BADE, offset: 0x3BADE, size: 0x8, addend: 0x0, symName: __ZN2ff7ff_PipeIccEC1IJRNS_6ff_a2aER6MergerEEEDpOT_, symObjAddr: 0x2AE4, symBinAddr: 0x100006B58, symSize: 0x3C }
  - { offsetInCU: 0x3BB36, offset: 0x3BB36, size: 0x8, addend: 0x0, symName: __ZN2ff11ff_pipeline16run_and_wait_endEv, symObjAddr: 0x2B20, symBinAddr: 0x100006B94, symSize: 0xCC }
  - { offsetInCU: 0x3BB5C, offset: 0x3BB5C, size: 0x8, addend: 0x0, symName: __ZN2ff11ff_pipeline6ffTimeEv, symObjAddr: 0x2CD0, symBinAddr: 0x100006D44, symSize: 0x98 }
  - { offsetInCU: 0x3BB81, offset: 0x3BB81, size: 0x8, addend: 0x0, symName: __ZL9unmapFilePhm, symObjAddr: 0x2D68, symBinAddr: 0x100006DDC, symSize: 0x80 }
  - { offsetInCU: 0x3BBB8, offset: 0x3BBB8, size: 0x8, addend: 0x0, symName: __ZN2ff7ff_PipeIccED1Ev, symObjAddr: 0x2DE8, symBinAddr: 0x100006E5C, symSize: 0x2C }
  - { offsetInCU: 0x3BBE2, offset: 0x3BBE2, size: 0x8, addend: 0x0, symName: __ZN2ff6ff_a2aD1Ev, symObjAddr: 0x2E14, symBinAddr: 0x100006E88, symSize: 0x2C }
  - { offsetInCU: 0x3BC0C, offset: 0x3BC0C, size: 0x8, addend: 0x0, symName: __ZN6MergerD1Ev, symObjAddr: 0x2E40, symBinAddr: 0x100006EB4, symSize: 0x2C }
  - { offsetInCU: 0x3BC39, offset: 0x3BC39, size: 0x8, addend: 0x0, symName: __ZNSt3__16vectorIPN2ff7ff_nodeENS_9allocatorIS3_EEED1B8ue170006Ev, symObjAddr: 0x2E6C, symBinAddr: 0x100006EE0, symSize: 0x2C }
  - { offsetInCU: 0x3BC63, offset: 0x3BC63, size: 0x8, addend: 0x0, symName: __ZNSt3__16vectorI8FileDataNS_9allocatorIS1_EEEC2ERKS4_, symObjAddr: 0x2E98, symBinAddr: 0x100006F0C, symSize: 0x94 }
  - { offsetInCU: 0x3BCA9, offset: 0x3BCA9, size: 0x8, addend: 0x0, symName: __ZNSt3__116allocator_traitsINS_9allocatorI8FileDataEEE37select_on_container_copy_constructionB8ue170006IS3_vvEES3_RKS3_, symObjAddr: 0x2F2C, symBinAddr: 0x100006FA0, symSize: 0x10 }
  - { offsetInCU: 0x3BCD8, offset: 0x3BCD8, size: 0x8, addend: 0x0, symName: __ZNKSt3__16vectorI8FileDataNS_9allocatorIS1_EEE7__allocB8ue170006Ev, symObjAddr: 0x2F3C, symBinAddr: 0x100006FB0, symSize: 0x28 }
  - { offsetInCU: 0x3BD0A, offset: 0x3BD0A, size: 0x8, addend: 0x0, symName: __ZNSt3__117__compressed_pairIP8FileDataNS_9allocatorIS1_EEEC1B8ue170006IDnS4_EEOT_OT0_, symObjAddr: 0x2F64, symBinAddr: 0x100006FD8, symSize: 0x3C }
  - { offsetInCU: 0x3BD62, offset: 0x3BD62, size: 0x8, addend: 0x0, symName: __ZNSt3__16vectorI8FileDataNS_9allocatorIS1_EEE16__init_with_sizeB8ue170006IPS1_S6_EEvT_T0_m, symObjAddr: 0x2FA0, symBinAddr: 0x100007014, symSize: 0xB8 }
  - { offsetInCU: 0x3BDD6, offset: 0x3BDD6, size: 0x8, addend: 0x0, symName: __ZNKSt3__16vectorI8FileDataNS_9allocatorIS1_EEE4sizeB8ue170006Ev, symObjAddr: 0x3058, symBinAddr: 0x1000070CC, symSize: 0x28 }
  - { offsetInCU: 0x3BDFC, offset: 0x3BDFC, size: 0x8, addend: 0x0, symName: __ZNKSt3__117__compressed_pairIP8FileDataNS_9allocatorIS1_EEE6secondB8ue170006Ev, symObjAddr: 0x3080, symBinAddr: 0x1000070F4, symSize: 0x24 }
  - { offsetInCU: 0x3BE22, offset: 0x3BE22, size: 0x8, addend: 0x0, symName: __ZNKSt3__122__compressed_pair_elemINS_9allocatorI8FileDataEELi1ELb1EE5__getB8ue170006Ev, symObjAddr: 0x30A4, symBinAddr: 0x100007118, symSize: 0x14 }
  - { offsetInCU: 0x3BE48, offset: 0x3BE48, size: 0x8, addend: 0x0, symName: __ZNSt3__117__compressed_pairIP8FileDataNS_9allocatorIS1_EEEC2B8ue170006IDnS4_EEOT_OT0_, symObjAddr: 0x30B8, symBinAddr: 0x10000712C, symSize: 0x44 }
  - { offsetInCU: 0x3BEA0, offset: 0x3BEA0, size: 0x8, addend: 0x0, symName: __ZNSt3__122__compressed_pair_elemIP8FileDataLi0ELb0EEC2B8ue170006IDnvEEOT_, symObjAddr: 0x30FC, symBinAddr: 0x100007170, symSize: 0x1C }
  - { offsetInCU: 0x3BEE2, offset: 0x3BEE2, size: 0x8, addend: 0x0, symName: __ZNSt3__122__compressed_pair_elemINS_9allocatorI8FileDataEELi1ELb1EEC2B8ue170006IS3_vEEOT_, symObjAddr: 0x3118, symBinAddr: 0x10000718C, symSize: 0x18 }
  - { offsetInCU: 0x3BF24, offset: 0x3BF24, size: 0x8, addend: 0x0, symName: __ZNSt3__16vectorI8FileDataNS_9allocatorIS1_EEE16__destroy_vectorC1B8ue170006ERS4_, symObjAddr: 0x3170, symBinAddr: 0x1000071E4, symSize: 0x34 }
  - { offsetInCU: 0x3BF5D, offset: 0x3BF5D, size: 0x8, addend: 0x0, symName: __ZNSt3__16vectorI8FileDataNS_9allocatorIS1_EEE11__vallocateB8ue170006Em, symObjAddr: 0x31A4, symBinAddr: 0x100007218, symSize: 0xB4 }
  - { offsetInCU: 0x3BFA1, offset: 0x3BFA1, size: 0x8, addend: 0x0, symName: __ZNSt3__16vectorI8FileDataNS_9allocatorIS1_EEE18__construct_at_endIPS1_S6_EEvT_T0_m, symObjAddr: 0x3258, symBinAddr: 0x1000072CC, symSize: 0x8C }
  - { offsetInCU: 0x3C017, offset: 0x3C017, size: 0x8, addend: 0x0, symName: __ZNSt3__128__exception_guard_exceptionsINS_6vectorI8FileDataNS_9allocatorIS2_EEE16__destroy_vectorEE10__completeB8ue170006Ev, symObjAddr: 0x32E4, symBinAddr: 0x100007358, symSize: 0x1C }
  - { offsetInCU: 0x3C03D, offset: 0x3C03D, size: 0x8, addend: 0x0, symName: __ZNSt3__128__exception_guard_exceptionsINS_6vectorI8FileDataNS_9allocatorIS2_EEE16__destroy_vectorEED1B8ue170006Ev, symObjAddr: 0x3300, symBinAddr: 0x100007374, symSize: 0x2C }
  - { offsetInCU: 0x3C067, offset: 0x3C067, size: 0x8, addend: 0x0, symName: __ZNSt3__128__exception_guard_exceptionsINS_6vectorI8FileDataNS_9allocatorIS2_EEE16__destroy_vectorEEC1B8ue170006ES6_, symObjAddr: 0x332C, symBinAddr: 0x1000073A0, symSize: 0x34 }
  - { offsetInCU: 0x3C09F, offset: 0x3C09F, size: 0x8, addend: 0x0, symName: __ZNSt3__128__exception_guard_exceptionsINS_6vectorI8FileDataNS_9allocatorIS2_EEE16__destroy_vectorEEC2B8ue170006ES6_, symObjAddr: 0x3360, symBinAddr: 0x1000073D4, symSize: 0x24 }
  - { offsetInCU: 0x3C0D7, offset: 0x3C0D7, size: 0x8, addend: 0x0, symName: __ZNSt3__16vectorI8FileDataNS_9allocatorIS1_EEE16__destroy_vectorC2B8ue170006ERS4_, symObjAddr: 0x3384, symBinAddr: 0x1000073F8, symSize: 0x20 }
  - { offsetInCU: 0x3C110, offset: 0x3C110, size: 0x8, addend: 0x0, symName: __ZNKSt3__16vectorI8FileDataNS_9allocatorIS1_EEE8max_sizeEv, symObjAddr: 0x33A4, symBinAddr: 0x100007418, symSize: 0x60 }
  - { offsetInCU: 0x3C138, offset: 0x3C138, size: 0x8, addend: 0x0, symName: __ZNKSt3__16vectorI8FileDataNS_9allocatorIS1_EEE20__throw_length_errorB8ue170006Ev, symObjAddr: 0x3404, symBinAddr: 0x100007478, symSize: 0x1C }
  - { offsetInCU: 0x3C15E, offset: 0x3C15E, size: 0x8, addend: 0x0, symName: __ZNSt3__16vectorI8FileDataNS_9allocatorIS1_EEE7__allocB8ue170006Ev, symObjAddr: 0x3460, symBinAddr: 0x1000074D4, symSize: 0x28 }
  - { offsetInCU: 0x3C184, offset: 0x3C184, size: 0x8, addend: 0x0, symName: __ZNSt3__16vectorI8FileDataNS_9allocatorIS1_EEE9__end_capB8ue170006Ev, symObjAddr: 0x3488, symBinAddr: 0x1000074FC, symSize: 0x28 }
  - { offsetInCU: 0x3C1AA, offset: 0x3C1AA, size: 0x8, addend: 0x0, symName: __ZNKSt3__16vectorI8FileDataNS_9allocatorIS1_EEE14__annotate_newB8ue170006Em, symObjAddr: 0x34B0, symBinAddr: 0x100007524, symSize: 0xC8 }
  - { offsetInCU: 0x3C1DF, offset: 0x3C1DF, size: 0x8, addend: 0x0, symName: __ZNSt3__116allocator_traitsINS_9allocatorI8FileDataEEE8max_sizeB8ue170006IS3_vvEEmRKS3_, symObjAddr: 0x35A4, symBinAddr: 0x100007618, symSize: 0x28 }
  - { offsetInCU: 0x3C20B, offset: 0x3C20B, size: 0x8, addend: 0x0, symName: __ZNSt3__114numeric_limitsIlE3maxB8ue170006Ev, symObjAddr: 0x35CC, symBinAddr: 0x100007640, symSize: 0x14 }
  - { offsetInCU: 0x3C229, offset: 0x3C229, size: 0x8, addend: 0x0, symName: __ZNKSt3__16__lessIvvEclB8ue170006ImmEEbRKT_RKT0_, symObjAddr: 0x3640, symBinAddr: 0x1000076B4, symSize: 0x34 }
  - { offsetInCU: 0x3C27D, offset: 0x3C27D, size: 0x8, addend: 0x0, symName: __ZNSt3__114numeric_limitsImE3maxB8ue170006Ev, symObjAddr: 0x3674, symBinAddr: 0x1000076E8, symSize: 0x14 }
  - { offsetInCU: 0x3C291, offset: 0x3C291, size: 0x8, addend: 0x0, symName: __ZNSt3__123__libcpp_numeric_limitsImLb1EE3maxB8ue170006Ev, symObjAddr: 0x3688, symBinAddr: 0x1000076FC, symSize: 0x8 }
  - { offsetInCU: 0x3C2A5, offset: 0x3C2A5, size: 0x8, addend: 0x0, symName: __ZNSt3__123__libcpp_numeric_limitsIlLb1EE3maxB8ue170006Ev, symObjAddr: 0x3690, symBinAddr: 0x100007704, symSize: 0x8 }
  - { offsetInCU: 0x3C2B9, offset: 0x3C2B9, size: 0x8, addend: 0x0, symName: __ZNSt12length_errorC1B8ue170006EPKc, symObjAddr: 0x36FC, symBinAddr: 0x100007770, symSize: 0x34 }
  - { offsetInCU: 0x3C2F1, offset: 0x3C2F1, size: 0x8, addend: 0x0, symName: __ZNSt12length_errorC2B8ue170006EPKc, symObjAddr: 0x3730, symBinAddr: 0x1000077A4, symSize: 0x4C }
  - { offsetInCU: 0x3C329, offset: 0x3C329, size: 0x8, addend: 0x0, symName: __ZNSt3__19allocatorI8FileDataE8allocateB8ue170006Em, symObjAddr: 0x377C, symBinAddr: 0x1000077F0, symSize: 0x5C }
  - { offsetInCU: 0x3C35D, offset: 0x3C35D, size: 0x8, addend: 0x0, symName: __ZNSt3__117__compressed_pairIP8FileDataNS_9allocatorIS1_EEE6secondB8ue170006Ev, symObjAddr: 0x38DC, symBinAddr: 0x100007950, symSize: 0x24 }
  - { offsetInCU: 0x3C383, offset: 0x3C383, size: 0x8, addend: 0x0, symName: __ZNSt3__122__compressed_pair_elemINS_9allocatorI8FileDataEELi1ELb1EE5__getB8ue170006Ev, symObjAddr: 0x3900, symBinAddr: 0x100007974, symSize: 0x14 }
  - { offsetInCU: 0x3C3A9, offset: 0x3C3A9, size: 0x8, addend: 0x0, symName: __ZNSt3__117__compressed_pairIP8FileDataNS_9allocatorIS1_EEE5firstB8ue170006Ev, symObjAddr: 0x3914, symBinAddr: 0x100007988, symSize: 0x24 }
  - { offsetInCU: 0x3C3CF, offset: 0x3C3CF, size: 0x8, addend: 0x0, symName: __ZNSt3__122__compressed_pair_elemIP8FileDataLi0ELb0EE5__getB8ue170006Ev, symObjAddr: 0x3938, symBinAddr: 0x1000079AC, symSize: 0x14 }
  - { offsetInCU: 0x3C3F5, offset: 0x3C3F5, size: 0x8, addend: 0x0, symName: __ZNKSt3__16vectorI8FileDataNS_9allocatorIS1_EEE31__annotate_contiguous_containerB8ue170006EPKvS6_S6_S6_, symObjAddr: 0x394C, symBinAddr: 0x1000079C0, symSize: 0x20 }
  - { offsetInCU: 0x3C44B, offset: 0x3C44B, size: 0x8, addend: 0x0, symName: __ZNKSt3__16vectorI8FileDataNS_9allocatorIS1_EEE4dataB8ue170006Ev, symObjAddr: 0x396C, symBinAddr: 0x1000079E0, symSize: 0x28 }
  - { offsetInCU: 0x3C471, offset: 0x3C471, size: 0x8, addend: 0x0, symName: __ZNKSt3__16vectorI8FileDataNS_9allocatorIS1_EEE8capacityB8ue170006Ev, symObjAddr: 0x3994, symBinAddr: 0x100007A08, symSize: 0x40 }
  - { offsetInCU: 0x3C497, offset: 0x3C497, size: 0x8, addend: 0x0, symName: __ZNKSt3__16vectorI8FileDataNS_9allocatorIS1_EEE9__end_capB8ue170006Ev, symObjAddr: 0x39E8, symBinAddr: 0x100007A5C, symSize: 0x28 }
  - { offsetInCU: 0x3C4BD, offset: 0x3C4BD, size: 0x8, addend: 0x0, symName: __ZNKSt3__117__compressed_pairIP8FileDataNS_9allocatorIS1_EEE5firstB8ue170006Ev, symObjAddr: 0x3A10, symBinAddr: 0x100007A84, symSize: 0x24 }
  - { offsetInCU: 0x3C4E3, offset: 0x3C4E3, size: 0x8, addend: 0x0, symName: __ZNKSt3__122__compressed_pair_elemIP8FileDataLi0ELb0EE5__getB8ue170006Ev, symObjAddr: 0x3A34, symBinAddr: 0x100007AA8, symSize: 0x14 }
  - { offsetInCU: 0x3C524, offset: 0x3C524, size: 0x8, addend: 0x0, symName: __ZNSt3__16vectorI8FileDataNS_9allocatorIS1_EEE21_ConstructTransactionC1B8ue170006ERS4_m, symObjAddr: 0x3A48, symBinAddr: 0x100007ABC, symSize: 0x3C }
  - { offsetInCU: 0x3C56C, offset: 0x3C56C, size: 0x8, addend: 0x0, symName: __ZNSt3__16vectorI8FileDataNS_9allocatorIS1_EEE21_ConstructTransactionD1B8ue170006Ev, symObjAddr: 0x3B04, symBinAddr: 0x100007B78, symSize: 0x2C }
  - { offsetInCU: 0x3C596, offset: 0x3C596, size: 0x8, addend: 0x0, symName: __ZNSt3__16vectorI8FileDataNS_9allocatorIS1_EEE21_ConstructTransactionC2B8ue170006ERS4_m, symObjAddr: 0x3B30, symBinAddr: 0x100007BA4, symSize: 0x4C }
  - { offsetInCU: 0x3C5FA, offset: 0x3C5FA, size: 0x8, addend: 0x0, symName: __ZNSt3__119__unwrap_range_implIP8FileDataS2_E8__unwrapB8ue170006ES2_S2_, symObjAddr: 0x3D0C, symBinAddr: 0x100007D80, symSize: 0x58 }
  - { offsetInCU: 0x3C631, offset: 0x3C631, size: 0x8, addend: 0x0, symName: __ZNSt3__14pairIP8FileDataS2_EC1B8ue170006IS2_S2_LPv0EEEOT_OT0_, symObjAddr: 0x3D64, symBinAddr: 0x100007DD8, symSize: 0x3C }
  - { offsetInCU: 0x3C68F, offset: 0x3C68F, size: 0x8, addend: 0x0, symName: __ZNSt3__14pairIP8FileDataS2_EC2B8ue170006IS2_S2_LPv0EEEOT_OT0_, symObjAddr: 0x3DA0, symBinAddr: 0x100007E14, symSize: 0x34 }
  - { offsetInCU: 0x3C6ED, offset: 0x3C6ED, size: 0x8, addend: 0x0, symName: __ZNSt3__129_AllocatorDestroyRangeReverseINS_9allocatorI8FileDataEEPS2_EC1B8ue170006ERS3_RS4_S7_, symObjAddr: 0x3E20, symBinAddr: 0x100007E94, symSize: 0x44 }
  - { offsetInCU: 0x3C744, offset: 0x3C744, size: 0x8, addend: 0x0, symName: __ZNSt3__116allocator_traitsINS_9allocatorI8FileDataEEE9constructB8ue170006IS2_JRS2_EvvEEvRS3_PT_DpOT0_, symObjAddr: 0x3E64, symBinAddr: 0x100007ED8, symSize: 0x30 }
  - { offsetInCU: 0x3C799, offset: 0x3C799, size: 0x8, addend: 0x0, symName: __ZNSt3__128__exception_guard_exceptionsINS_29_AllocatorDestroyRangeReverseINS_9allocatorI8FileDataEEPS3_EEE10__completeB8ue170006Ev, symObjAddr: 0x3E94, symBinAddr: 0x100007F08, symSize: 0x1C }
  - { offsetInCU: 0x3C7BF, offset: 0x3C7BF, size: 0x8, addend: 0x0, symName: __ZNSt3__128__exception_guard_exceptionsINS_29_AllocatorDestroyRangeReverseINS_9allocatorI8FileDataEEPS3_EEED1B8ue170006Ev, symObjAddr: 0x3EB0, symBinAddr: 0x100007F24, symSize: 0x2C }
  - { offsetInCU: 0x3C7E9, offset: 0x3C7E9, size: 0x8, addend: 0x0, symName: __ZNSt3__128__exception_guard_exceptionsINS_29_AllocatorDestroyRangeReverseINS_9allocatorI8FileDataEEPS3_EEEC1B8ue170006ES6_, symObjAddr: 0x3EDC, symBinAddr: 0x100007F50, symSize: 0x34 }
  - { offsetInCU: 0x3C822, offset: 0x3C822, size: 0x8, addend: 0x0, symName: __ZNSt3__128__exception_guard_exceptionsINS_29_AllocatorDestroyRangeReverseINS_9allocatorI8FileDataEEPS3_EEEC2B8ue170006ES6_, symObjAddr: 0x3F10, symBinAddr: 0x100007F84, symSize: 0x30 }
  - { offsetInCU: 0x3C85B, offset: 0x3C85B, size: 0x8, addend: 0x0, symName: __ZNSt3__129_AllocatorDestroyRangeReverseINS_9allocatorI8FileDataEEPS2_EC2B8ue170006ERS3_RS4_S7_, symObjAddr: 0x3F40, symBinAddr: 0x100007FB4, symSize: 0x38 }
  - { offsetInCU: 0x3C8B8, offset: 0x3C8B8, size: 0x8, addend: 0x0, symName: __ZN8FileDataC1ERKS_, symObjAddr: 0x3FB4, symBinAddr: 0x100008028, symSize: 0x34 }
  - { offsetInCU: 0x3C8EE, offset: 0x3C8EE, size: 0x8, addend: 0x0, symName: __ZN8FileDataC2ERKS_, symObjAddr: 0x3FE8, symBinAddr: 0x10000805C, symSize: 0x54 }
  - { offsetInCU: 0x3C924, offset: 0x3C924, size: 0x8, addend: 0x0, symName: __ZNSt3__128__exception_guard_exceptionsINS_29_AllocatorDestroyRangeReverseINS_9allocatorI8FileDataEEPS3_EEED2B8ue170006Ev, symObjAddr: 0x403C, symBinAddr: 0x1000080B0, symSize: 0x50 }
  - { offsetInCU: 0x3C94E, offset: 0x3C94E, size: 0x8, addend: 0x0, symName: __ZNKSt3__129_AllocatorDestroyRangeReverseINS_9allocatorI8FileDataEEPS2_EclB8ue170006Ev, symObjAddr: 0x408C, symBinAddr: 0x100008100, symSize: 0x68 }
  - { offsetInCU: 0x3C974, offset: 0x3C974, size: 0x8, addend: 0x0, symName: __ZNSt3__116reverse_iteratorIP8FileDataEC1B8ue170006ES2_, symObjAddr: 0x4164, symBinAddr: 0x1000081D8, symSize: 0x34 }
  - { offsetInCU: 0x3C9AC, offset: 0x3C9AC, size: 0x8, addend: 0x0, symName: __ZNSt3__116allocator_traitsINS_9allocatorI8FileDataEEE7destroyB8ue170006IS2_vvEEvRS3_PT_, symObjAddr: 0x41E0, symBinAddr: 0x100008254, symSize: 0x28 }
  - { offsetInCU: 0x3C9E7, offset: 0x3C9E7, size: 0x8, addend: 0x0, symName: __ZNSt3__116reverse_iteratorIP8FileDataEppB8ue170006Ev, symObjAddr: 0x422C, symBinAddr: 0x1000082A0, symSize: 0x20 }
  - { offsetInCU: 0x3CA0D, offset: 0x3CA0D, size: 0x8, addend: 0x0, symName: __ZNKSt3__116reverse_iteratorIP8FileDataE4baseB8ue170006Ev, symObjAddr: 0x424C, symBinAddr: 0x1000082C0, symSize: 0x18 }
  - { offsetInCU: 0x3CA33, offset: 0x3CA33, size: 0x8, addend: 0x0, symName: __ZN8FileDataD1Ev, symObjAddr: 0x42AC, symBinAddr: 0x100008320, symSize: 0x2C }
  - { offsetInCU: 0x3CA60, offset: 0x3CA60, size: 0x8, addend: 0x0, symName: __ZN8FileDataD2Ev, symObjAddr: 0x42D8, symBinAddr: 0x10000834C, symSize: 0x30 }
  - { offsetInCU: 0x3CA93, offset: 0x3CA93, size: 0x8, addend: 0x0, symName: __ZNSt3__119__to_address_helperINS_16reverse_iteratorIP8FileDataEEvE6__callB8ue170006ERKS4_, symObjAddr: 0x4308, symBinAddr: 0x10000837C, symSize: 0x38 }
  - { offsetInCU: 0x3CAB6, offset: 0x3CAB6, size: 0x8, addend: 0x0, symName: __ZNKSt3__116reverse_iteratorIP8FileDataEptB8ue170006Ev, symObjAddr: 0x4340, symBinAddr: 0x1000083B4, symSize: 0x2C }
  - { offsetInCU: 0x3CADC, offset: 0x3CADC, size: 0x8, addend: 0x0, symName: __ZNSt3__116reverse_iteratorIP8FileDataEC2B8ue170006ES2_, symObjAddr: 0x4424, symBinAddr: 0x100008498, symSize: 0x28 }
  - { offsetInCU: 0x3CB14, offset: 0x3CB14, size: 0x8, addend: 0x0, symName: __ZNSt3__118__unwrap_iter_implIP8FileDataLb1EE8__unwrapB8ue170006ES2_, symObjAddr: 0x444C, symBinAddr: 0x1000084C0, symSize: 0x24 }
  - { offsetInCU: 0x3CB37, offset: 0x3CB37, size: 0x8, addend: 0x0, symName: __ZNSt3__118__unwrap_iter_implIP8FileDataLb1EE8__rewrapB8ue170006ES2_S2_, symObjAddr: 0x4470, symBinAddr: 0x1000084E4, symSize: 0x58 }
  - { offsetInCU: 0x3CB68, offset: 0x3CB68, size: 0x8, addend: 0x0, symName: __ZNSt3__16vectorI8FileDataNS_9allocatorIS1_EEE21_ConstructTransactionD2B8ue170006Ev, symObjAddr: 0x44C8, symBinAddr: 0x10000853C, symSize: 0x20 }
  - { offsetInCU: 0x3CB92, offset: 0x3CB92, size: 0x8, addend: 0x0, symName: __ZNSt3__128__exception_guard_exceptionsINS_6vectorI8FileDataNS_9allocatorIS2_EEE16__destroy_vectorEED2B8ue170006Ev, symObjAddr: 0x44E8, symBinAddr: 0x10000855C, symSize: 0x50 }
  - { offsetInCU: 0x3CBBC, offset: 0x3CBBC, size: 0x8, addend: 0x0, symName: __ZNSt3__16vectorI8FileDataNS_9allocatorIS1_EEE16__destroy_vectorclB8ue170006Ev, symObjAddr: 0x4538, symBinAddr: 0x1000085AC, symSize: 0x90 }
  - { offsetInCU: 0x3CBE2, offset: 0x3CBE2, size: 0x8, addend: 0x0, symName: __ZNSt3__16vectorI8FileDataNS_9allocatorIS1_EEE7__clearB8ue170006Ev, symObjAddr: 0x45C8, symBinAddr: 0x10000863C, symSize: 0x28 }
  - { offsetInCU: 0x3CC08, offset: 0x3CC08, size: 0x8, addend: 0x0, symName: __ZNKSt3__16vectorI8FileDataNS_9allocatorIS1_EEE17__annotate_deleteB8ue170006Ev, symObjAddr: 0x45F0, symBinAddr: 0x100008664, symSize: 0xD4 }
  - { offsetInCU: 0x3CC2E, offset: 0x3CC2E, size: 0x8, addend: 0x0, symName: __ZNSt3__116allocator_traitsINS_9allocatorI8FileDataEEE10deallocateB8ue170006ERS3_PS2_m, symObjAddr: 0x46C4, symBinAddr: 0x100008738, symSize: 0x34 }
  - { offsetInCU: 0x3CC70, offset: 0x3CC70, size: 0x8, addend: 0x0, symName: __ZNSt3__16vectorI8FileDataNS_9allocatorIS1_EEE22__base_destruct_at_endB8ue170006EPS1_, symObjAddr: 0x46F8, symBinAddr: 0x10000876C, symSize: 0x8C }
  - { offsetInCU: 0x3CCB4, offset: 0x3CCB4, size: 0x8, addend: 0x0, symName: __ZNSt3__19allocatorI8FileDataE10deallocateB8ue170006EPS1_m, symObjAddr: 0x4784, symBinAddr: 0x1000087F8, symSize: 0x44 }
  - { offsetInCU: 0x3CCF6, offset: 0x3CCF6, size: 0x8, addend: 0x0, symName: __ZNSt3__18_IterOpsINS_17_ClassicAlgPolicyEE9iter_swapB8ue170006IRP8FileDataS6_EEvOT_OT0_, symObjAddr: 0x4F34, symBinAddr: 0x100008FA8, symSize: 0x34 }
  - { offsetInCU: 0x3CD39, offset: 0x3CD39, size: 0x8, addend: 0x0, symName: __ZNSt3__18_IterOpsINS_17_ClassicAlgPolicyEE9iter_swapB8ue170006IRP8FileDataS5_EEvOT_OT0_, symObjAddr: 0x5528, symBinAddr: 0x10000959C, symSize: 0x34 }
  - { offsetInCU: 0x3CD82, offset: 0x3CD82, size: 0x8, addend: 0x0, symName: __ZN8FileDataC1EOS_, symObjAddr: 0x628C, symBinAddr: 0x10000A300, symSize: 0x34 }
  - { offsetInCU: 0x3CDB8, offset: 0x3CDB8, size: 0x8, addend: 0x0, symName: __ZN8FileDataaSEOS_, symObjAddr: 0x62C0, symBinAddr: 0x10000A334, symSize: 0x54 }
  - { offsetInCU: 0x3CDEA, offset: 0x3CDEA, size: 0x8, addend: 0x0, symName: __ZN8FileDataC2EOS_, symObjAddr: 0x6314, symBinAddr: 0x10000A388, symSize: 0x54 }
  - { offsetInCU: 0x3CE20, offset: 0x3CE20, size: 0x8, addend: 0x0, symName: __ZNSt3__112basic_stringIcNS_11char_traitsIcEENS_9allocatorIcEEEC1B8ue170006EOS5_, symObjAddr: 0x6368, symBinAddr: 0x10000A3DC, symSize: 0x34 }
  - { offsetInCU: 0x3CE59, offset: 0x3CE59, size: 0x8, addend: 0x0, symName: __ZNSt3__112basic_stringIcNS_11char_traitsIcEENS_9allocatorIcEEEC2B8ue170006EOS5_, symObjAddr: 0x639C, symBinAddr: 0x10000A410, symSize: 0x50 }
  - { offsetInCU: 0x3CE92, offset: 0x3CE92, size: 0x8, addend: 0x0, symName: __ZNSt3__112basic_stringIcNS_11char_traitsIcEENS_9allocatorIcEEE14__default_initB8ue170006Ev, symObjAddr: 0x63EC, symBinAddr: 0x10000A460, symSize: 0x40 }
  - { offsetInCU: 0x3CEB8, offset: 0x3CEB8, size: 0x8, addend: 0x0, symName: __ZNSt3__117__compressed_pairINS_12basic_stringIcNS_11char_traitsIcEENS_9allocatorIcEEE5__repES5_E5firstB8ue170006Ev, symObjAddr: 0x642C, symBinAddr: 0x10000A4A0, symSize: 0x24 }
  - { offsetInCU: 0x3CEDE, offset: 0x3CEDE, size: 0x8, addend: 0x0, symName: __ZNSt3__122__compressed_pair_elemINS_12basic_stringIcNS_11char_traitsIcEENS_9allocatorIcEEE5__repELi0ELb0EE5__getB8ue170006Ev, symObjAddr: 0x6450, symBinAddr: 0x10000A4C4, symSize: 0x14 }
  - { offsetInCU: 0x3CF04, offset: 0x3CF04, size: 0x8, addend: 0x0, symName: __ZNSt3__112basic_stringIcNS_11char_traitsIcEENS_9allocatorIcEEEaSB8ue170006EOS5_, symObjAddr: 0x6464, symBinAddr: 0x10000A4D8, symSize: 0x34 }
  - { offsetInCU: 0x3CF39, offset: 0x3CF39, size: 0x8, addend: 0x0, symName: __ZNSt3__112basic_stringIcNS_11char_traitsIcEENS_9allocatorIcEEE13__move_assignB8ue170006ERS5_NS_17integral_constantIbLb1EEE, symObjAddr: 0x6498, symBinAddr: 0x10000A50C, symSize: 0xC8 }
  - { offsetInCU: 0x3CF7C, offset: 0x3CF7C, size: 0x8, addend: 0x0, symName: __ZNKSt3__112basic_stringIcNS_11char_traitsIcEENS_9allocatorIcEEE9__is_longB8ue170006Ev, symObjAddr: 0x6560, symBinAddr: 0x10000A5D4, symSize: 0x38 }
  - { offsetInCU: 0x3CFA2, offset: 0x3CFA2, size: 0x8, addend: 0x0, symName: __ZNSt3__116allocator_traitsINS_9allocatorIcEEE10deallocateB8ue170006ERS2_Pcm, symObjAddr: 0x6598, symBinAddr: 0x10000A60C, symSize: 0x34 }
  - { offsetInCU: 0x3CFE4, offset: 0x3CFE4, size: 0x8, addend: 0x0, symName: __ZNSt3__112basic_stringIcNS_11char_traitsIcEENS_9allocatorIcEEE7__allocB8ue170006Ev, symObjAddr: 0x65CC, symBinAddr: 0x10000A640, symSize: 0x24 }
  - { offsetInCU: 0x3D00A, offset: 0x3D00A, size: 0x8, addend: 0x0, symName: __ZNSt3__112basic_stringIcNS_11char_traitsIcEENS_9allocatorIcEEE18__get_long_pointerB8ue170006Ev, symObjAddr: 0x65F0, symBinAddr: 0x10000A664, symSize: 0x28 }
  - { offsetInCU: 0x3D030, offset: 0x3D030, size: 0x8, addend: 0x0, symName: __ZNKSt3__112basic_stringIcNS_11char_traitsIcEENS_9allocatorIcEEE14__get_long_capB8ue170006Ev, symObjAddr: 0x6618, symBinAddr: 0x10000A68C, symSize: 0x30 }
  - { offsetInCU: 0x3D056, offset: 0x3D056, size: 0x8, addend: 0x0, symName: __ZNSt3__112basic_stringIcNS_11char_traitsIcEENS_9allocatorIcEEE19__move_assign_allocB8ue170006ERS5_, symObjAddr: 0x6648, symBinAddr: 0x10000A6BC, symSize: 0x2C }
  - { offsetInCU: 0x3D08B, offset: 0x3D08B, size: 0x8, addend: 0x0, symName: __ZNSt3__112basic_stringIcNS_11char_traitsIcEENS_9allocatorIcEEE16__set_short_sizeB8ue170006Em, symObjAddr: 0x6674, symBinAddr: 0x10000A6E8, symSize: 0x78 }
  - { offsetInCU: 0x3D0C0, offset: 0x3D0C0, size: 0x8, addend: 0x0, symName: __ZNSt3__111char_traitsIcE6assignB8ue170006ERcRKc, symObjAddr: 0x66EC, symBinAddr: 0x10000A760, symSize: 0x24 }
  - { offsetInCU: 0x3D0F1, offset: 0x3D0F1, size: 0x8, addend: 0x0, symName: __ZNSt3__112basic_stringIcNS_11char_traitsIcEENS_9allocatorIcEEE19__get_short_pointerB8ue170006Ev, symObjAddr: 0x6710, symBinAddr: 0x10000A784, symSize: 0x28 }
  - { offsetInCU: 0x3D117, offset: 0x3D117, size: 0x8, addend: 0x0, symName: __ZNKSt3__117__compressed_pairINS_12basic_stringIcNS_11char_traitsIcEENS_9allocatorIcEEE5__repES5_E5firstB8ue170006Ev, symObjAddr: 0x6738, symBinAddr: 0x10000A7AC, symSize: 0x24 }
  - { offsetInCU: 0x3D13D, offset: 0x3D13D, size: 0x8, addend: 0x0, symName: __ZNKSt3__122__compressed_pair_elemINS_12basic_stringIcNS_11char_traitsIcEENS_9allocatorIcEEE5__repELi0ELb0EE5__getB8ue170006Ev, symObjAddr: 0x675C, symBinAddr: 0x10000A7D0, symSize: 0x14 }
  - { offsetInCU: 0x3D163, offset: 0x3D163, size: 0x8, addend: 0x0, symName: __ZNSt3__19allocatorIcE10deallocateB8ue170006EPcm, symObjAddr: 0x6770, symBinAddr: 0x10000A7E4, symSize: 0x40 }
  - { offsetInCU: 0x3D1A5, offset: 0x3D1A5, size: 0x8, addend: 0x0, symName: __ZNSt3__117__compressed_pairINS_12basic_stringIcNS_11char_traitsIcEENS_9allocatorIcEEE5__repES5_E6secondB8ue170006Ev, symObjAddr: 0x67B0, symBinAddr: 0x10000A824, symSize: 0x24 }
  - { offsetInCU: 0x3D1CB, offset: 0x3D1CB, size: 0x8, addend: 0x0, symName: __ZNSt3__122__compressed_pair_elemINS_9allocatorIcEELi1ELb1EE5__getB8ue170006Ev, symObjAddr: 0x67D4, symBinAddr: 0x10000A848, symSize: 0x14 }
  - { offsetInCU: 0x3D1F1, offset: 0x3D1F1, size: 0x8, addend: 0x0, symName: __ZNSt3__112basic_stringIcNS_11char_traitsIcEENS_9allocatorIcEEE19__move_assign_allocB8ue170006ERS5_NS_17integral_constantIbLb1EEE, symObjAddr: 0x67E8, symBinAddr: 0x10000A85C, symSize: 0x38 }
  - { offsetInCU: 0x3D232, offset: 0x3D232, size: 0x8, addend: 0x0, symName: __ZNSt3__114pointer_traitsIPcE10pointer_toB8ue170006ERc, symObjAddr: 0x6820, symBinAddr: 0x10000A894, symSize: 0x14 }
  - { offsetInCU: 0x3D255, offset: 0x3D255, size: 0x8, addend: 0x0, symName: __ZNSt3__18_IterOpsINS_17_ClassicAlgPolicyEE11__iter_moveB8ue170006IRP8FileDataEENS_9enable_ifIXsr12is_referenceIDTdeclsr3stdE7declvalIRT_EEEEE5valueEDTclsr3stdE4movedeclsr3stdE7declvalIS9_EEEEE4typeEOS8_, symObjAddr: 0x69F0, symBinAddr: 0x10000AA64, symSize: 0x28 }
  - { offsetInCU: 0x3D281, offset: 0x3D281, size: 0x8, addend: 0x0, symName: __ZNSt3__18_IterOpsINS_17_ClassicAlgPolicyEE25__validate_iter_referenceB8ue170006IRP8FileDataEEvv, symObjAddr: 0x6A18, symBinAddr: 0x10000AA8C, symSize: 0x4 }
  - { offsetInCU: 0x3D29F, offset: 0x3D29F, size: 0x8, addend: 0x0, symName: __ZNSt3__18_IterOpsINS_17_ClassicAlgPolicyEE4nextB8ue170006IP8FileDataEET_S6_S6_, symObjAddr: 0x6A1C, symBinAddr: 0x10000AA90, symSize: 0x18 }
  - { offsetInCU: 0x3D2D5, offset: 0x3D2D5, size: 0x8, addend: 0x0, symName: __ZNSt3__18_IterOpsINS_17_ClassicAlgPolicyEE9iter_swapB8ue170006IP8FileDataS5_EEvOT_OT0_, symObjAddr: 0x7AB4, symBinAddr: 0x10000BB28, symSize: 0x34 }
  - { offsetInCU: 0x3D33A, offset: 0x3D33A, size: 0x8, addend: 0x0, symName: __ZNSt3__14pairIP8FileDatabEC1B8ue170006IRS2_RbLPv0EEEOT_OT0_, symObjAddr: 0x7B04, symBinAddr: 0x10000BB78, symSize: 0x3C }
  - { offsetInCU: 0x3D398, offset: 0x3D398, size: 0x8, addend: 0x0, symName: __ZNSt3__14pairIP8FileDatabEC2B8ue170006IRS2_RbLPv0EEEOT_OT0_, symObjAddr: 0x7B40, symBinAddr: 0x10000BBB4, symSize: 0x38 }
  - { offsetInCU: 0x3D3F6, offset: 0x3D3F6, size: 0x8, addend: 0x0, symName: __ZNSt3__118__unwrap_iter_implINS_11__wrap_iterIP8FileDataEELb1EE8__unwrapB8ue170006ES4_, symObjAddr: 0x7B78, symBinAddr: 0x10000BBEC, symSize: 0x28 }
  - { offsetInCU: 0x3D424, offset: 0x3D424, size: 0x8, addend: 0x0, symName: __ZNSt3__119__to_address_helperINS_11__wrap_iterIP8FileDataEEvE6__callB8ue170006ERKS4_, symObjAddr: 0x7BC4, symBinAddr: 0x10000BC38, symSize: 0x30 }
  - { offsetInCU: 0x3D447, offset: 0x3D447, size: 0x8, addend: 0x0, symName: __ZNSt3__114pointer_traitsINS_11__wrap_iterIP8FileDataEEE10to_addressB8ue170006ES4_, symObjAddr: 0x7BF4, symBinAddr: 0x10000BC68, symSize: 0x2C }
  - { offsetInCU: 0x3D46A, offset: 0x3D46A, size: 0x8, addend: 0x0, symName: __ZNKSt3__111__wrap_iterIP8FileDataE4baseB8ue170006Ev, symObjAddr: 0x7C20, symBinAddr: 0x10000BC94, symSize: 0x18 }
  - { offsetInCU: 0x3D490, offset: 0x3D490, size: 0x8, addend: 0x0, symName: __ZNSt3__16vectorI8FileDataNS_9allocatorIS1_EEE11__make_iterB8ue170006EPS1_, symObjAddr: 0x7C38, symBinAddr: 0x10000BCAC, symSize: 0x30 }
  - { offsetInCU: 0x3D4C5, offset: 0x3D4C5, size: 0x8, addend: 0x0, symName: __ZNSt3__111__wrap_iterIP8FileDataEC1B8ue170006ES2_, symObjAddr: 0x7C68, symBinAddr: 0x10000BCDC, symSize: 0x34 }
  - { offsetInCU: 0x3D4FD, offset: 0x3D4FD, size: 0x8, addend: 0x0, symName: __ZNSt3__111__wrap_iterIP8FileDataEC2B8ue170006ES2_, symObjAddr: 0x7C9C, symBinAddr: 0x10000BD10, symSize: 0x20 }
  - { offsetInCU: 0x3D535, offset: 0x3D535, size: 0x8, addend: 0x0, symName: __ZNSt3__16vectorINS0_I8FileDataNS_9allocatorIS1_EEEENS2_IS4_EEEC2Em, symObjAddr: 0x7CBC, symBinAddr: 0x10000BD30, symSize: 0xD4 }
  - { offsetInCU: 0x3D58C, offset: 0x3D58C, size: 0x8, addend: 0x0, symName: __ZNSt3__117__compressed_pairIPNS_6vectorI8FileDataNS_9allocatorIS2_EEEENS3_IS5_EEEC1B8ue170006IDnNS_18__default_init_tagEEEOT_OT0_, symObjAddr: 0x7D90, symBinAddr: 0x10000BE04, symSize: 0x3C }
  - { offsetInCU: 0x3D5E4, offset: 0x3D5E4, size: 0x8, addend: 0x0, symName: __ZNSt3__16vectorINS0_I8FileDataNS_9allocatorIS1_EEEENS2_IS4_EEE16__destroy_vectorC1B8ue170006ERS6_, symObjAddr: 0x7E0C, symBinAddr: 0x10000BE80, symSize: 0x34 }
  - { offsetInCU: 0x3D61D, offset: 0x3D61D, size: 0x8, addend: 0x0, symName: __ZNSt3__16vectorINS0_I8FileDataNS_9allocatorIS1_EEEENS2_IS4_EEE11__vallocateB8ue170006Em, symObjAddr: 0x7E40, symBinAddr: 0x10000BEB4, symSize: 0xB4 }
  - { offsetInCU: 0x3D661, offset: 0x3D661, size: 0x8, addend: 0x0, symName: __ZNSt3__16vectorINS0_I8FileDataNS_9allocatorIS1_EEEENS2_IS4_EEE18__construct_at_endEm, symObjAddr: 0x7EF4, symBinAddr: 0x10000BF68, symSize: 0xC8 }
  - { offsetInCU: 0x3D6D3, offset: 0x3D6D3, size: 0x8, addend: 0x0, symName: __ZNSt3__128__exception_guard_exceptionsINS_6vectorINS1_I8FileDataNS_9allocatorIS2_EEEENS3_IS5_EEE16__destroy_vectorEE10__completeB8ue170006Ev, symObjAddr: 0x7FBC, symBinAddr: 0x10000C030, symSize: 0x1C }
  - { offsetInCU: 0x3D6F9, offset: 0x3D6F9, size: 0x8, addend: 0x0, symName: __ZNSt3__128__exception_guard_exceptionsINS_6vectorINS1_I8FileDataNS_9allocatorIS2_EEEENS3_IS5_EEE16__destroy_vectorEED1B8ue170006Ev, symObjAddr: 0x7FD8, symBinAddr: 0x10000C04C, symSize: 0x2C }
  - { offsetInCU: 0x3D723, offset: 0x3D723, size: 0x8, addend: 0x0, symName: __ZNSt3__117__compressed_pairIPNS_6vectorI8FileDataNS_9allocatorIS2_EEEENS3_IS5_EEEC2B8ue170006IDnNS_18__default_init_tagEEEOT_OT0_, symObjAddr: 0x8004, symBinAddr: 0x10000C078, symSize: 0x40 }
  - { offsetInCU: 0x3D77B, offset: 0x3D77B, size: 0x8, addend: 0x0, symName: __ZNSt3__122__compressed_pair_elemIPNS_6vectorI8FileDataNS_9allocatorIS2_EEEELi0ELb0EEC2B8ue170006IDnvEEOT_, symObjAddr: 0x8044, symBinAddr: 0x10000C0B8, symSize: 0x1C }
  - { offsetInCU: 0x3D7BD, offset: 0x3D7BD, size: 0x8, addend: 0x0, symName: __ZNSt3__122__compressed_pair_elemINS_9allocatorINS_6vectorI8FileDataNS1_IS3_EEEEEELi1ELb1EEC2B8ue170006ENS_18__default_init_tagE, symObjAddr: 0x8060, symBinAddr: 0x10000C0D4, symSize: 0x2C }
  - { offsetInCU: 0x3D7F1, offset: 0x3D7F1, size: 0x8, addend: 0x0, symName: __ZNSt3__19allocatorINS_6vectorI8FileDataNS0_IS2_EEEEEC2B8ue170006Ev, symObjAddr: 0x808C, symBinAddr: 0x10000C100, symSize: 0x2C }
  - { offsetInCU: 0x3D81B, offset: 0x3D81B, size: 0x8, addend: 0x0, symName: __ZNSt3__116__non_trivial_ifILb1ENS_9allocatorINS_6vectorI8FileDataNS1_IS3_EEEEEEEC2B8ue170006Ev, symObjAddr: 0x80B8, symBinAddr: 0x10000C12C, symSize: 0x14 }
  - { offsetInCU: 0x3D845, offset: 0x3D845, size: 0x8, addend: 0x0, symName: __ZNSt3__128__exception_guard_exceptionsINS_6vectorINS1_I8FileDataNS_9allocatorIS2_EEEENS3_IS5_EEE16__destroy_vectorEEC1B8ue170006ES8_, symObjAddr: 0x80CC, symBinAddr: 0x10000C140, symSize: 0x34 }
  - { offsetInCU: 0x3D87D, offset: 0x3D87D, size: 0x8, addend: 0x0, symName: __ZNSt3__128__exception_guard_exceptionsINS_6vectorINS1_I8FileDataNS_9allocatorIS2_EEEENS3_IS5_EEE16__destroy_vectorEEC2B8ue170006ES8_, symObjAddr: 0x8100, symBinAddr: 0x10000C174, symSize: 0x24 }
  - { offsetInCU: 0x3D8B5, offset: 0x3D8B5, size: 0x8, addend: 0x0, symName: __ZNSt3__16vectorINS0_I8FileDataNS_9allocatorIS1_EEEENS2_IS4_EEE16__destroy_vectorC2B8ue170006ERS6_, symObjAddr: 0x8124, symBinAddr: 0x10000C198, symSize: 0x20 }
  - { offsetInCU: 0x3D8EE, offset: 0x3D8EE, size: 0x8, addend: 0x0, symName: __ZNKSt3__16vectorINS0_I8FileDataNS_9allocatorIS1_EEEENS2_IS4_EEE8max_sizeEv, symObjAddr: 0x8144, symBinAddr: 0x10000C1B8, symSize: 0x60 }
  - { offsetInCU: 0x3D916, offset: 0x3D916, size: 0x8, addend: 0x0, symName: __ZNKSt3__16vectorINS0_I8FileDataNS_9allocatorIS1_EEEENS2_IS4_EEE20__throw_length_errorB8ue170006Ev, symObjAddr: 0x81A4, symBinAddr: 0x10000C218, symSize: 0x1C }
  - { offsetInCU: 0x3D93C, offset: 0x3D93C, size: 0x8, addend: 0x0, symName: __ZNSt3__16vectorINS0_I8FileDataNS_9allocatorIS1_EEEENS2_IS4_EEE7__allocB8ue170006Ev, symObjAddr: 0x8200, symBinAddr: 0x10000C274, symSize: 0x28 }
  - { offsetInCU: 0x3D962, offset: 0x3D962, size: 0x8, addend: 0x0, symName: __ZNSt3__16vectorINS0_I8FileDataNS_9allocatorIS1_EEEENS2_IS4_EEE9__end_capB8ue170006Ev, symObjAddr: 0x8228, symBinAddr: 0x10000C29C, symSize: 0x28 }
  - { offsetInCU: 0x3D988, offset: 0x3D988, size: 0x8, addend: 0x0, symName: __ZNKSt3__16vectorINS0_I8FileDataNS_9allocatorIS1_EEEENS2_IS4_EEE14__annotate_newB8ue170006Em, symObjAddr: 0x8250, symBinAddr: 0x10000C2C4, symSize: 0xC8 }
  - { offsetInCU: 0x3D9C8, offset: 0x3D9C8, size: 0x8, addend: 0x0, symName: __ZNSt3__116allocator_traitsINS_9allocatorINS_6vectorI8FileDataNS1_IS3_EEEEEEE8max_sizeB8ue170006IS6_vvEEmRKS6_, symObjAddr: 0x8318, symBinAddr: 0x10000C38C, symSize: 0x28 }
  - { offsetInCU: 0x3D9F4, offset: 0x3D9F4, size: 0x8, addend: 0x0, symName: __ZNKSt3__16vectorINS0_I8FileDataNS_9allocatorIS1_EEEENS2_IS4_EEE7__allocB8ue170006Ev, symObjAddr: 0x8340, symBinAddr: 0x10000C3B4, symSize: 0x28 }
  - { offsetInCU: 0x3DA1A, offset: 0x3DA1A, size: 0x8, addend: 0x0, symName: __ZNKSt3__117__compressed_pairIPNS_6vectorI8FileDataNS_9allocatorIS2_EEEENS3_IS5_EEE6secondB8ue170006Ev, symObjAddr: 0x8368, symBinAddr: 0x10000C3DC, symSize: 0x24 }
  - { offsetInCU: 0x3DA40, offset: 0x3DA40, size: 0x8, addend: 0x0, symName: __ZNKSt3__122__compressed_pair_elemINS_9allocatorINS_6vectorI8FileDataNS1_IS3_EEEEEELi1ELb1EE5__getB8ue170006Ev, symObjAddr: 0x838C, symBinAddr: 0x10000C400, symSize: 0x14 }
  - { offsetInCU: 0x3DA66, offset: 0x3DA66, size: 0x8, addend: 0x0, symName: __ZNSt3__19allocatorINS_6vectorI8FileDataNS0_IS2_EEEEE8allocateB8ue170006Em, symObjAddr: 0x83A0, symBinAddr: 0x10000C414, symSize: 0x5C }
  - { offsetInCU: 0x3DA9A, offset: 0x3DA9A, size: 0x8, addend: 0x0, symName: __ZNSt3__117__compressed_pairIPNS_6vectorI8FileDataNS_9allocatorIS2_EEEENS3_IS5_EEE6secondB8ue170006Ev, symObjAddr: 0x83FC, symBinAddr: 0x10000C470, symSize: 0x24 }
  - { offsetInCU: 0x3DAC0, offset: 0x3DAC0, size: 0x8, addend: 0x0, symName: __ZNSt3__122__compressed_pair_elemINS_9allocatorINS_6vectorI8FileDataNS1_IS3_EEEEEELi1ELb1EE5__getB8ue170006Ev, symObjAddr: 0x8420, symBinAddr: 0x10000C494, symSize: 0x14 }
  - { offsetInCU: 0x3DAE6, offset: 0x3DAE6, size: 0x8, addend: 0x0, symName: __ZNSt3__117__compressed_pairIPNS_6vectorI8FileDataNS_9allocatorIS2_EEEENS3_IS5_EEE5firstB8ue170006Ev, symObjAddr: 0x8434, symBinAddr: 0x10000C4A8, symSize: 0x24 }
  - { offsetInCU: 0x3DB0C, offset: 0x3DB0C, size: 0x8, addend: 0x0, symName: __ZNSt3__122__compressed_pair_elemIPNS_6vectorI8FileDataNS_9allocatorIS2_EEEELi0ELb0EE5__getB8ue170006Ev, symObjAddr: 0x8458, symBinAddr: 0x10000C4CC, symSize: 0x14 }
  - { offsetInCU: 0x3DB32, offset: 0x3DB32, size: 0x8, addend: 0x0, symName: __ZNKSt3__16vectorINS0_I8FileDataNS_9allocatorIS1_EEEENS2_IS4_EEE31__annotate_contiguous_containerB8ue170006EPKvS8_S8_S8_, symObjAddr: 0x846C, symBinAddr: 0x10000C4E0, symSize: 0x20 }
  - { offsetInCU: 0x3DB88, offset: 0x3DB88, size: 0x8, addend: 0x0, symName: __ZNKSt3__16vectorINS0_I8FileDataNS_9allocatorIS1_EEEENS2_IS4_EEE4dataB8ue170006Ev, symObjAddr: 0x848C, symBinAddr: 0x10000C500, symSize: 0x28 }
  - { offsetInCU: 0x3DBAE, offset: 0x3DBAE, size: 0x8, addend: 0x0, symName: __ZNKSt3__16vectorINS0_I8FileDataNS_9allocatorIS1_EEEENS2_IS4_EEE8capacityB8ue170006Ev, symObjAddr: 0x84B4, symBinAddr: 0x10000C528, symSize: 0x40 }
  - { offsetInCU: 0x3DBD4, offset: 0x3DBD4, size: 0x8, addend: 0x0, symName: __ZNKSt3__16vectorINS0_I8FileDataNS_9allocatorIS1_EEEENS2_IS4_EEE9__end_capB8ue170006Ev, symObjAddr: 0x8508, symBinAddr: 0x10000C57C, symSize: 0x28 }
  - { offsetInCU: 0x3DBFA, offset: 0x3DBFA, size: 0x8, addend: 0x0, symName: __ZNKSt3__117__compressed_pairIPNS_6vectorI8FileDataNS_9allocatorIS2_EEEENS3_IS5_EEE5firstB8ue170006Ev, symObjAddr: 0x8530, symBinAddr: 0x10000C5A4, symSize: 0x24 }
  - { offsetInCU: 0x3DC20, offset: 0x3DC20, size: 0x8, addend: 0x0, symName: __ZNKSt3__122__compressed_pair_elemIPNS_6vectorI8FileDataNS_9allocatorIS2_EEEELi0ELb0EE5__getB8ue170006Ev, symObjAddr: 0x8554, symBinAddr: 0x10000C5C8, symSize: 0x14 }
  - { offsetInCU: 0x3DC61, offset: 0x3DC61, size: 0x8, addend: 0x0, symName: __ZNSt3__16vectorINS0_I8FileDataNS_9allocatorIS1_EEEENS2_IS4_EEE21_ConstructTransactionC1B8ue170006ERS6_m, symObjAddr: 0x8568, symBinAddr: 0x10000C5DC, symSize: 0x3C }
  - { offsetInCU: 0x3DCA9, offset: 0x3DCA9, size: 0x8, addend: 0x0, symName: __ZNSt3__116allocator_traitsINS_9allocatorINS_6vectorI8FileDataNS1_IS3_EEEEEEE9constructB8ue170006IS5_JEvvEEvRS6_PT_DpOT0_, symObjAddr: 0x85A4, symBinAddr: 0x10000C618, symSize: 0x28 }
  - { offsetInCU: 0x3DCE9, offset: 0x3DCE9, size: 0x8, addend: 0x0, symName: __ZNSt3__16vectorINS0_I8FileDataNS_9allocatorIS1_EEEENS2_IS4_EEE21_ConstructTransactionD1B8ue170006Ev, symObjAddr: 0x85CC, symBinAddr: 0x10000C640, symSize: 0x2C }
  - { offsetInCU: 0x3DD13, offset: 0x3DD13, size: 0x8, addend: 0x0, symName: __ZNSt3__16vectorINS0_I8FileDataNS_9allocatorIS1_EEEENS2_IS4_EEE21_ConstructTransactionC2B8ue170006ERS6_m, symObjAddr: 0x85F8, symBinAddr: 0x10000C66C, symSize: 0x4C }
  - { offsetInCU: 0x3DD5B, offset: 0x3DD5B, size: 0x8, addend: 0x0, symName: __ZNSt3__16vectorINS0_I8FileDataNS_9allocatorIS1_EEEENS2_IS4_EEE21_ConstructTransactionD2B8ue170006Ev, symObjAddr: 0x8678, symBinAddr: 0x10000C6EC, symSize: 0x20 }
  - { offsetInCU: 0x3DD85, offset: 0x3DD85, size: 0x8, addend: 0x0, symName: __ZNSt3__128__exception_guard_exceptionsINS_6vectorINS1_I8FileDataNS_9allocatorIS2_EEEENS3_IS5_EEE16__destroy_vectorEED2B8ue170006Ev, symObjAddr: 0x8698, symBinAddr: 0x10000C70C, symSize: 0x50 }
  - { offsetInCU: 0x3DDAF, offset: 0x3DDAF, size: 0x8, addend: 0x0, symName: __ZNSt3__16vectorINS0_I8FileDataNS_9allocatorIS1_EEEENS2_IS4_EEE16__destroy_vectorclB8ue170006Ev, symObjAddr: 0x86E8, symBinAddr: 0x10000C75C, symSize: 0x90 }
  - { offsetInCU: 0x3DDD5, offset: 0x3DDD5, size: 0x8, addend: 0x0, symName: __ZNSt3__16vectorINS0_I8FileDataNS_9allocatorIS1_EEEENS2_IS4_EEE7__clearB8ue170006Ev, symObjAddr: 0x8778, symBinAddr: 0x10000C7EC, symSize: 0x28 }
  - { offsetInCU: 0x3DDFB, offset: 0x3DDFB, size: 0x8, addend: 0x0, symName: __ZNKSt3__16vectorINS0_I8FileDataNS_9allocatorIS1_EEEENS2_IS4_EEE17__annotate_deleteB8ue170006Ev, symObjAddr: 0x87A0, symBinAddr: 0x10000C814, symSize: 0xD4 }
  - { offsetInCU: 0x3DE21, offset: 0x3DE21, size: 0x8, addend: 0x0, symName: __ZNSt3__116allocator_traitsINS_9allocatorINS_6vectorI8FileDataNS1_IS3_EEEEEEE10deallocateB8ue170006ERS6_PS5_m, symObjAddr: 0x8874, symBinAddr: 0x10000C8E8, symSize: 0x34 }
  - { offsetInCU: 0x3DE63, offset: 0x3DE63, size: 0x8, addend: 0x0, symName: __ZNSt3__16vectorINS0_I8FileDataNS_9allocatorIS1_EEEENS2_IS4_EEE22__base_destruct_at_endB8ue170006EPS4_, symObjAddr: 0x88A8, symBinAddr: 0x10000C91C, symSize: 0x8C }
  - { offsetInCU: 0x3DEA7, offset: 0x3DEA7, size: 0x8, addend: 0x0, symName: __ZNSt3__116allocator_traitsINS_9allocatorINS_6vectorI8FileDataNS1_IS3_EEEEEEE7destroyB8ue170006IS5_vvEEvRS6_PT_, symObjAddr: 0x8934, symBinAddr: 0x10000C9A8, symSize: 0x28 }
  - { offsetInCU: 0x3DEE2, offset: 0x3DEE2, size: 0x8, addend: 0x0, symName: __ZNKSt3__16vectorINS0_I8FileDataNS_9allocatorIS1_EEEENS2_IS4_EEE4sizeB8ue170006Ev, symObjAddr: 0x89A4, symBinAddr: 0x10000CA18, symSize: 0x28 }
  - { offsetInCU: 0x3DF08, offset: 0x3DF08, size: 0x8, addend: 0x0, symName: __ZNSt3__19allocatorINS_6vectorI8FileDataNS0_IS2_EEEEE10deallocateB8ue170006EPS4_m, symObjAddr: 0x89CC, symBinAddr: 0x10000CA40, symSize: 0x44 }
  - { offsetInCU: 0x3DF4A, offset: 0x3DF4A, size: 0x8, addend: 0x0, symName: __ZNSt3__16vectorImNS_9allocatorImEEEC2EmRKm, symObjAddr: 0x8A10, symBinAddr: 0x10000CA84, symSize: 0xDC }
  - { offsetInCU: 0x3DFAA, offset: 0x3DFAA, size: 0x8, addend: 0x0, symName: __ZNSt3__117__compressed_pairIPmNS_9allocatorImEEEC1B8ue170006IDnNS_18__default_init_tagEEEOT_OT0_, symObjAddr: 0x8AEC, symBinAddr: 0x10000CB60, symSize: 0x3C }
  - { offsetInCU: 0x3E002, offset: 0x3E002, size: 0x8, addend: 0x0, symName: __ZNSt3__16vectorImNS_9allocatorImEEE16__destroy_vectorC1B8ue170006ERS3_, symObjAddr: 0x8B68, symBinAddr: 0x10000CBDC, symSize: 0x34 }
  - { offsetInCU: 0x3E03B, offset: 0x3E03B, size: 0x8, addend: 0x0, symName: __ZNSt3__16vectorImNS_9allocatorImEEE11__vallocateB8ue170006Em, symObjAddr: 0x8B9C, symBinAddr: 0x10000CC10, symSize: 0xAC }
  - { offsetInCU: 0x3E07F, offset: 0x3E07F, size: 0x8, addend: 0x0, symName: __ZNSt3__16vectorImNS_9allocatorImEEE18__construct_at_endEmRKm, symObjAddr: 0x8C48, symBinAddr: 0x10000CCBC, symSize: 0xD0 }
  - { offsetInCU: 0x3E100, offset: 0x3E100, size: 0x8, addend: 0x0, symName: __ZNSt3__128__exception_guard_exceptionsINS_6vectorImNS_9allocatorImEEE16__destroy_vectorEE10__completeB8ue170006Ev, symObjAddr: 0x8D18, symBinAddr: 0x10000CD8C, symSize: 0x1C }
  - { offsetInCU: 0x3E126, offset: 0x3E126, size: 0x8, addend: 0x0, symName: __ZNSt3__128__exception_guard_exceptionsINS_6vectorImNS_9allocatorImEEE16__destroy_vectorEED1B8ue170006Ev, symObjAddr: 0x8D34, symBinAddr: 0x10000CDA8, symSize: 0x2C }
  - { offsetInCU: 0x3E150, offset: 0x3E150, size: 0x8, addend: 0x0, symName: __ZNSt3__117__compressed_pairIPmNS_9allocatorImEEEC2B8ue170006IDnNS_18__default_init_tagEEEOT_OT0_, symObjAddr: 0x8D60, symBinAddr: 0x10000CDD4, symSize: 0x40 }
  - { offsetInCU: 0x3E1A8, offset: 0x3E1A8, size: 0x8, addend: 0x0, symName: __ZNSt3__122__compressed_pair_elemIPmLi0ELb0EEC2B8ue170006IDnvEEOT_, symObjAddr: 0x8DA0, symBinAddr: 0x10000CE14, symSize: 0x1C }
  - { offsetInCU: 0x3E1EA, offset: 0x3E1EA, size: 0x8, addend: 0x0, symName: __ZNSt3__122__compressed_pair_elemINS_9allocatorImEELi1ELb1EEC2B8ue170006ENS_18__default_init_tagE, symObjAddr: 0x8DBC, symBinAddr: 0x10000CE30, symSize: 0x2C }
  - { offsetInCU: 0x3E21E, offset: 0x3E21E, size: 0x8, addend: 0x0, symName: __ZNSt3__19allocatorImEC2B8ue170006Ev, symObjAddr: 0x8DE8, symBinAddr: 0x10000CE5C, symSize: 0x2C }
  - { offsetInCU: 0x3E248, offset: 0x3E248, size: 0x8, addend: 0x0, symName: __ZNSt3__116__non_trivial_ifILb1ENS_9allocatorImEEEC2B8ue170006Ev, symObjAddr: 0x8E14, symBinAddr: 0x10000CE88, symSize: 0x14 }
  - { offsetInCU: 0x3E272, offset: 0x3E272, size: 0x8, addend: 0x0, symName: __ZNSt3__128__exception_guard_exceptionsINS_6vectorImNS_9allocatorImEEE16__destroy_vectorEEC1B8ue170006ES5_, symObjAddr: 0x8E28, symBinAddr: 0x10000CE9C, symSize: 0x34 }
  - { offsetInCU: 0x3E2AA, offset: 0x3E2AA, size: 0x8, addend: 0x0, symName: __ZNSt3__128__exception_guard_exceptionsINS_6vectorImNS_9allocatorImEEE16__destroy_vectorEEC2B8ue170006ES5_, symObjAddr: 0x8E5C, symBinAddr: 0x10000CED0, symSize: 0x24 }
  - { offsetInCU: 0x3E2E2, offset: 0x3E2E2, size: 0x8, addend: 0x0, symName: __ZNSt3__16vectorImNS_9allocatorImEEE16__destroy_vectorC2B8ue170006ERS3_, symObjAddr: 0x8E80, symBinAddr: 0x10000CEF4, symSize: 0x20 }
  - { offsetInCU: 0x3E31B, offset: 0x3E31B, size: 0x8, addend: 0x0, symName: __ZNKSt3__16vectorImNS_9allocatorImEEE8max_sizeEv, symObjAddr: 0x8EA0, symBinAddr: 0x10000CF14, symSize: 0x60 }
  - { offsetInCU: 0x3E343, offset: 0x3E343, size: 0x8, addend: 0x0, symName: __ZNKSt3__16vectorImNS_9allocatorImEEE20__throw_length_errorB8ue170006Ev, symObjAddr: 0x8F00, symBinAddr: 0x10000CF74, symSize: 0x1C }
  - { offsetInCU: 0x3E369, offset: 0x3E369, size: 0x8, addend: 0x0, symName: __ZNSt3__16vectorImNS_9allocatorImEEE7__allocB8ue170006Ev, symObjAddr: 0x8F5C, symBinAddr: 0x10000CFD0, symSize: 0x28 }
  - { offsetInCU: 0x3E38F, offset: 0x3E38F, size: 0x8, addend: 0x0, symName: __ZNSt3__16vectorImNS_9allocatorImEEE9__end_capB8ue170006Ev, symObjAddr: 0x8F84, symBinAddr: 0x10000CFF8, symSize: 0x28 }
  - { offsetInCU: 0x3E3B5, offset: 0x3E3B5, size: 0x8, addend: 0x0, symName: __ZNKSt3__16vectorImNS_9allocatorImEEE14__annotate_newB8ue170006Em, symObjAddr: 0x8FAC, symBinAddr: 0x10000D020, symSize: 0xAC }
  - { offsetInCU: 0x3E3F5, offset: 0x3E3F5, size: 0x8, addend: 0x0, symName: __ZNSt3__116allocator_traitsINS_9allocatorImEEE8max_sizeB8ue170006IS2_vvEEmRKS2_, symObjAddr: 0x9058, symBinAddr: 0x10000D0CC, symSize: 0x28 }
  - { offsetInCU: 0x3E421, offset: 0x3E421, size: 0x8, addend: 0x0, symName: __ZNKSt3__16vectorImNS_9allocatorImEEE7__allocB8ue170006Ev, symObjAddr: 0x9080, symBinAddr: 0x10000D0F4, symSize: 0x28 }
  - { offsetInCU: 0x3E447, offset: 0x3E447, size: 0x8, addend: 0x0, symName: __ZNKSt3__117__compressed_pairIPmNS_9allocatorImEEE6secondB8ue170006Ev, symObjAddr: 0x90A8, symBinAddr: 0x10000D11C, symSize: 0x24 }
  - { offsetInCU: 0x3E46D, offset: 0x3E46D, size: 0x8, addend: 0x0, symName: __ZNKSt3__122__compressed_pair_elemINS_9allocatorImEELi1ELb1EE5__getB8ue170006Ev, symObjAddr: 0x90CC, symBinAddr: 0x10000D140, symSize: 0x14 }
  - { offsetInCU: 0x3E493, offset: 0x3E493, size: 0x8, addend: 0x0, symName: __ZNSt3__19allocatorImE8allocateB8ue170006Em, symObjAddr: 0x90E0, symBinAddr: 0x10000D154, symSize: 0x58 }
  - { offsetInCU: 0x3E4C7, offset: 0x3E4C7, size: 0x8, addend: 0x0, symName: __ZNSt3__117__compressed_pairIPmNS_9allocatorImEEE6secondB8ue170006Ev, symObjAddr: 0x9138, symBinAddr: 0x10000D1AC, symSize: 0x24 }
  - { offsetInCU: 0x3E4ED, offset: 0x3E4ED, size: 0x8, addend: 0x0, symName: __ZNSt3__122__compressed_pair_elemINS_9allocatorImEELi1ELb1EE5__getB8ue170006Ev, symObjAddr: 0x915C, symBinAddr: 0x10000D1D0, symSize: 0x14 }
  - { offsetInCU: 0x3E513, offset: 0x3E513, size: 0x8, addend: 0x0, symName: __ZNSt3__117__compressed_pairIPmNS_9allocatorImEEE5firstB8ue170006Ev, symObjAddr: 0x9170, symBinAddr: 0x10000D1E4, symSize: 0x24 }
  - { offsetInCU: 0x3E539, offset: 0x3E539, size: 0x8, addend: 0x0, symName: __ZNSt3__122__compressed_pair_elemIPmLi0ELb0EE5__getB8ue170006Ev, symObjAddr: 0x9194, symBinAddr: 0x10000D208, symSize: 0x14 }
  - { offsetInCU: 0x3E55F, offset: 0x3E55F, size: 0x8, addend: 0x0, symName: __ZNKSt3__16vectorImNS_9allocatorImEEE31__annotate_contiguous_containerB8ue170006EPKvS5_S5_S5_, symObjAddr: 0x91A8, symBinAddr: 0x10000D21C, symSize: 0x20 }
  - { offsetInCU: 0x3E5B5, offset: 0x3E5B5, size: 0x8, addend: 0x0, symName: __ZNKSt3__16vectorImNS_9allocatorImEEE4dataB8ue170006Ev, symObjAddr: 0x91C8, symBinAddr: 0x10000D23C, symSize: 0x28 }
  - { offsetInCU: 0x3E5DB, offset: 0x3E5DB, size: 0x8, addend: 0x0, symName: __ZNKSt3__16vectorImNS_9allocatorImEEE8capacityB8ue170006Ev, symObjAddr: 0x91F0, symBinAddr: 0x10000D264, symSize: 0x40 }
  - { offsetInCU: 0x3E601, offset: 0x3E601, size: 0x8, addend: 0x0, symName: __ZNKSt3__16vectorImNS_9allocatorImEEE9__end_capB8ue170006Ev, symObjAddr: 0x9244, symBinAddr: 0x10000D2B8, symSize: 0x28 }
  - { offsetInCU: 0x3E627, offset: 0x3E627, size: 0x8, addend: 0x0, symName: __ZNKSt3__117__compressed_pairIPmNS_9allocatorImEEE5firstB8ue170006Ev, symObjAddr: 0x926C, symBinAddr: 0x10000D2E0, symSize: 0x24 }
  - { offsetInCU: 0x3E64D, offset: 0x3E64D, size: 0x8, addend: 0x0, symName: __ZNKSt3__122__compressed_pair_elemIPmLi0ELb0EE5__getB8ue170006Ev, symObjAddr: 0x9290, symBinAddr: 0x10000D304, symSize: 0x14 }
  - { offsetInCU: 0x3E68E, offset: 0x3E68E, size: 0x8, addend: 0x0, symName: __ZNSt3__16vectorImNS_9allocatorImEEE21_ConstructTransactionC1B8ue170006ERS3_m, symObjAddr: 0x92A4, symBinAddr: 0x10000D318, symSize: 0x3C }
  - { offsetInCU: 0x3E6D6, offset: 0x3E6D6, size: 0x8, addend: 0x0, symName: __ZNSt3__116allocator_traitsINS_9allocatorImEEE9constructB8ue170006ImJRKmEvvEEvRS2_PT_DpOT0_, symObjAddr: 0x92E0, symBinAddr: 0x10000D354, symSize: 0x30 }
  - { offsetInCU: 0x3E72B, offset: 0x3E72B, size: 0x8, addend: 0x0, symName: __ZNSt3__16vectorImNS_9allocatorImEEE21_ConstructTransactionD1B8ue170006Ev, symObjAddr: 0x9310, symBinAddr: 0x10000D384, symSize: 0x2C }
  - { offsetInCU: 0x3E755, offset: 0x3E755, size: 0x8, addend: 0x0, symName: __ZNSt3__16vectorImNS_9allocatorImEEE21_ConstructTransactionC2B8ue170006ERS3_m, symObjAddr: 0x933C, symBinAddr: 0x10000D3B0, symSize: 0x44 }
  - { offsetInCU: 0x3E79D, offset: 0x3E79D, size: 0x8, addend: 0x0, symName: __ZNSt3__16vectorImNS_9allocatorImEEE21_ConstructTransactionD2B8ue170006Ev, symObjAddr: 0x93AC, symBinAddr: 0x10000D420, symSize: 0x20 }
  - { offsetInCU: 0x3E7C7, offset: 0x3E7C7, size: 0x8, addend: 0x0, symName: __ZNSt3__128__exception_guard_exceptionsINS_6vectorImNS_9allocatorImEEE16__destroy_vectorEED2B8ue170006Ev, symObjAddr: 0x93CC, symBinAddr: 0x10000D440, symSize: 0x50 }
  - { offsetInCU: 0x3E7F1, offset: 0x3E7F1, size: 0x8, addend: 0x0, symName: __ZNSt3__16vectorImNS_9allocatorImEEE16__destroy_vectorclB8ue170006Ev, symObjAddr: 0x941C, symBinAddr: 0x10000D490, symSize: 0x90 }
  - { offsetInCU: 0x3E817, offset: 0x3E817, size: 0x8, addend: 0x0, symName: __ZNSt3__16vectorImNS_9allocatorImEEE7__clearB8ue170006Ev, symObjAddr: 0x94AC, symBinAddr: 0x10000D520, symSize: 0x28 }
  - { offsetInCU: 0x3E83D, offset: 0x3E83D, size: 0x8, addend: 0x0, symName: __ZNKSt3__16vectorImNS_9allocatorImEEE17__annotate_deleteB8ue170006Ev, symObjAddr: 0x94D4, symBinAddr: 0x10000D548, symSize: 0xB8 }
  - { offsetInCU: 0x3E863, offset: 0x3E863, size: 0x8, addend: 0x0, symName: __ZNSt3__116allocator_traitsINS_9allocatorImEEE10deallocateB8ue170006ERS2_Pmm, symObjAddr: 0x958C, symBinAddr: 0x10000D600, symSize: 0x34 }
  - { offsetInCU: 0x3E8A5, offset: 0x3E8A5, size: 0x8, addend: 0x0, symName: __ZNSt3__16vectorImNS_9allocatorImEEE22__base_destruct_at_endB8ue170006EPm, symObjAddr: 0x95C0, symBinAddr: 0x10000D634, symSize: 0x8C }
  - { offsetInCU: 0x3E8E9, offset: 0x3E8E9, size: 0x8, addend: 0x0, symName: __ZNSt3__116allocator_traitsINS_9allocatorImEEE7destroyB8ue170006ImvvEEvRS2_PT_, symObjAddr: 0x964C, symBinAddr: 0x10000D6C0, symSize: 0x28 }
  - { offsetInCU: 0x3E924, offset: 0x3E924, size: 0x8, addend: 0x0, symName: __ZNKSt3__16vectorImNS_9allocatorImEEE4sizeB8ue170006Ev, symObjAddr: 0x96A8, symBinAddr: 0x10000D71C, symSize: 0x28 }
  - { offsetInCU: 0x3E94A, offset: 0x3E94A, size: 0x8, addend: 0x0, symName: __ZNSt3__19allocatorImE10deallocateB8ue170006EPmm, symObjAddr: 0x96D0, symBinAddr: 0x10000D744, symSize: 0x40 }
  - { offsetInCU: 0x3E98C, offset: 0x3E98C, size: 0x8, addend: 0x0, symName: __ZNSt3__111__wrap_iterIPmEppB8ue170006Ev, symObjAddr: 0x9968, symBinAddr: 0x10000D9DC, symSize: 0x20 }
  - { offsetInCU: 0x3E9B2, offset: 0x3E9B2, size: 0x8, addend: 0x0, symName: __ZNKSt3__111__wrap_iterIPmEdeB8ue170006Ev, symObjAddr: 0x99EC, symBinAddr: 0x10000DA60, symSize: 0x18 }
  - { offsetInCU: 0x3E9D8, offset: 0x3E9D8, size: 0x8, addend: 0x0, symName: __ZNKSt3__111__wrap_iterIPmE4baseB8ue170006Ev, symObjAddr: 0x9A04, symBinAddr: 0x10000DA78, symSize: 0x18 }
  - { offsetInCU: 0x3EA08, offset: 0x3EA08, size: 0x8, addend: 0x0, symName: __ZNKSt3__110__identityclB8ue170006IRmEEOT_S4_, symObjAddr: 0x9A1C, symBinAddr: 0x10000DA90, symSize: 0x18 }
  - { offsetInCU: 0x3EA45, offset: 0x3EA45, size: 0x8, addend: 0x0, symName: __ZNSt3__16vectorImNS_9allocatorImEEE11__make_iterB8ue170006EPm, symObjAddr: 0x9A34, symBinAddr: 0x10000DAA8, symSize: 0x30 }
  - { offsetInCU: 0x3EA7A, offset: 0x3EA7A, size: 0x8, addend: 0x0, symName: __ZNSt3__111__wrap_iterIPmEC1B8ue170006ES1_, symObjAddr: 0x9A64, symBinAddr: 0x10000DAD8, symSize: 0x34 }
  - { offsetInCU: 0x3EAB2, offset: 0x3EAB2, size: 0x8, addend: 0x0, symName: __ZNSt3__111__wrap_iterIPmEC2B8ue170006ES1_, symObjAddr: 0x9A98, symBinAddr: 0x10000DB0C, symSize: 0x20 }
  - { offsetInCU: 0x3EAEA, offset: 0x3EAEA, size: 0x8, addend: 0x0, symName: __ZNSt3__16vectorI8FileDataNS_9allocatorIS1_EEE22__construct_one_at_endB8ue170006IJRKS1_EEEvDpOT_, symObjAddr: 0x9B30, symBinAddr: 0x10000DBA4, symSize: 0x90 }
  - { offsetInCU: 0x3EB39, offset: 0x3EB39, size: 0x8, addend: 0x0, symName: __ZNSt3__16vectorI8FileDataNS_9allocatorIS1_EEE21__push_back_slow_pathIRKS1_EEvOT_, symObjAddr: 0x9BC0, symBinAddr: 0x10000DC34, symSize: 0xD8 }
  - { offsetInCU: 0x3EB97, offset: 0x3EB97, size: 0x8, addend: 0x0, symName: __ZNSt3__116allocator_traitsINS_9allocatorI8FileDataEEE9constructB8ue170006IS2_JRKS2_EvvEEvRS3_PT_DpOT0_, symObjAddr: 0x9C98, symBinAddr: 0x10000DD0C, symSize: 0x30 }
  - { offsetInCU: 0x3EBEC, offset: 0x3EBEC, size: 0x8, addend: 0x0, symName: __ZNKSt3__16vectorI8FileDataNS_9allocatorIS1_EEE11__recommendB8ue170006Em, symObjAddr: 0x9D04, symBinAddr: 0x10000DD78, symSize: 0xB4 }
  - { offsetInCU: 0x3EC41, offset: 0x3EC41, size: 0x8, addend: 0x0, symName: __ZNSt3__114__split_bufferI8FileDataRNS_9allocatorIS1_EEEC1EmmS4_, symObjAddr: 0x9DB8, symBinAddr: 0x10000DE2C, symSize: 0x44 }
  - { offsetInCU: 0x3EC97, offset: 0x3EC97, size: 0x8, addend: 0x0, symName: __ZNSt3__114__split_bufferI8FileDataRNS_9allocatorIS1_EEED1Ev, symObjAddr: 0x9F0C, symBinAddr: 0x10000DF80, symSize: 0x2C }
  - { offsetInCU: 0x3ECC3, offset: 0x3ECC3, size: 0x8, addend: 0x0, symName: __ZNSt3__114__split_bufferI8FileDataRNS_9allocatorIS1_EEEC2EmmS4_, symObjAddr: 0x9FB8, symBinAddr: 0x10000E02C, symSize: 0xE0 }
  - { offsetInCU: 0x3ED36, offset: 0x3ED36, size: 0x8, addend: 0x0, symName: __ZNSt3__117__compressed_pairIP8FileDataRNS_9allocatorIS1_EEEC1B8ue170006IDnS5_EEOT_OT0_, symObjAddr: 0xA098, symBinAddr: 0x10000E10C, symSize: 0x3C }
  - { offsetInCU: 0x3ED8E, offset: 0x3ED8E, size: 0x8, addend: 0x0, symName: __ZNSt3__114__split_bufferI8FileDataRNS_9allocatorIS1_EEE7__allocB8ue170006Ev, symObjAddr: 0xA0D4, symBinAddr: 0x10000E148, symSize: 0x28 }
  - { offsetInCU: 0x3EDB4, offset: 0x3EDB4, size: 0x8, addend: 0x0, symName: __ZNSt3__114__split_bufferI8FileDataRNS_9allocatorIS1_EEE9__end_capB8ue170006Ev, symObjAddr: 0xA0FC, symBinAddr: 0x10000E170, symSize: 0x28 }
  - { offsetInCU: 0x3EDDA, offset: 0x3EDDA, size: 0x8, addend: 0x0, symName: __ZNSt3__117__compressed_pairIP8FileDataRNS_9allocatorIS1_EEEC2B8ue170006IDnS5_EEOT_OT0_, symObjAddr: 0xA124, symBinAddr: 0x10000E198, symSize: 0x48 }
  - { offsetInCU: 0x3EE32, offset: 0x3EE32, size: 0x8, addend: 0x0, symName: __ZNSt3__122__compressed_pair_elemIRNS_9allocatorI8FileDataEELi1ELb0EEC2B8ue170006IS4_vEEOT_, symObjAddr: 0xA16C, symBinAddr: 0x10000E1E0, symSize: 0x20 }
  - { offsetInCU: 0x3EE74, offset: 0x3EE74, size: 0x8, addend: 0x0, symName: __ZNSt3__117__compressed_pairIP8FileDataRNS_9allocatorIS1_EEE6secondB8ue170006Ev, symObjAddr: 0xA18C, symBinAddr: 0x10000E200, symSize: 0x28 }
  - { offsetInCU: 0x3EE9A, offset: 0x3EE9A, size: 0x8, addend: 0x0, symName: __ZNSt3__122__compressed_pair_elemIRNS_9allocatorI8FileDataEELi1ELb0EE5__getB8ue170006Ev, symObjAddr: 0xA1B4, symBinAddr: 0x10000E228, symSize: 0x18 }
  - { offsetInCU: 0x3EEC0, offset: 0x3EEC0, size: 0x8, addend: 0x0, symName: __ZNSt3__117__compressed_pairIP8FileDataRNS_9allocatorIS1_EEE5firstB8ue170006Ev, symObjAddr: 0xA1CC, symBinAddr: 0x10000E240, symSize: 0x24 }
  - { offsetInCU: 0x3EEE6, offset: 0x3EEE6, size: 0x8, addend: 0x0, symName: __ZNSt3__129_AllocatorDestroyRangeReverseINS_9allocatorI8FileDataEENS_16reverse_iteratorIPS2_EEEC1B8ue170006ERS3_RS6_S9_, symObjAddr: 0xA39C, symBinAddr: 0x10000E410, symSize: 0x44 }
  - { offsetInCU: 0x3EF3D, offset: 0x3EF3D, size: 0x8, addend: 0x0, symName: __ZNSt3__116allocator_traitsINS_9allocatorI8FileDataEEE9constructB8ue170006IS2_JS2_EvvEEvRS3_PT_DpOT0_, symObjAddr: 0xA3E0, symBinAddr: 0x10000E454, symSize: 0x30 }
  - { offsetInCU: 0x3EF92, offset: 0x3EF92, size: 0x8, addend: 0x0, symName: __ZNKSt3__116reverse_iteratorIP8FileDataEdeB8ue170006Ev, symObjAddr: 0xA410, symBinAddr: 0x10000E484, symSize: 0x28 }
  - { offsetInCU: 0x3EFC6, offset: 0x3EFC6, size: 0x8, addend: 0x0, symName: __ZNSt3__128__exception_guard_exceptionsINS_29_AllocatorDestroyRangeReverseINS_9allocatorI8FileDataEENS_16reverse_iteratorIPS3_EEEEE10__completeB8ue170006Ev, symObjAddr: 0xA438, symBinAddr: 0x10000E4AC, symSize: 0x1C }
  - { offsetInCU: 0x3EFEC, offset: 0x3EFEC, size: 0x8, addend: 0x0, symName: __ZNSt3__128__exception_guard_exceptionsINS_29_AllocatorDestroyRangeReverseINS_9allocatorI8FileDataEENS_16reverse_iteratorIPS3_EEEEED1B8ue170006Ev, symObjAddr: 0xA454, symBinAddr: 0x10000E4C8, symSize: 0x2C }
  - { offsetInCU: 0x3F016, offset: 0x3F016, size: 0x8, addend: 0x0, symName: __ZNSt3__128__exception_guard_exceptionsINS_29_AllocatorDestroyRangeReverseINS_9allocatorI8FileDataEENS_16reverse_iteratorIPS3_EEEEEC1B8ue170006ES8_, symObjAddr: 0xA480, symBinAddr: 0x10000E4F4, symSize: 0x34 }
  - { offsetInCU: 0x3F04F, offset: 0x3F04F, size: 0x8, addend: 0x0, symName: __ZNSt3__128__exception_guard_exceptionsINS_29_AllocatorDestroyRangeReverseINS_9allocatorI8FileDataEENS_16reverse_iteratorIPS3_EEEEEC2B8ue170006ES8_, symObjAddr: 0xA4B4, symBinAddr: 0x10000E528, symSize: 0x30 }
  - { offsetInCU: 0x3F088, offset: 0x3F088, size: 0x8, addend: 0x0, symName: __ZNSt3__129_AllocatorDestroyRangeReverseINS_9allocatorI8FileDataEENS_16reverse_iteratorIPS2_EEEC2B8ue170006ERS3_RS6_S9_, symObjAddr: 0xA4E4, symBinAddr: 0x10000E558, symSize: 0x38 }
  - { offsetInCU: 0x3F0DF, offset: 0x3F0DF, size: 0x8, addend: 0x0, symName: __ZNSt3__128__exception_guard_exceptionsINS_29_AllocatorDestroyRangeReverseINS_9allocatorI8FileDataEENS_16reverse_iteratorIPS3_EEEEED2B8ue170006Ev, symObjAddr: 0xA558, symBinAddr: 0x10000E5CC, symSize: 0x50 }
  - { offsetInCU: 0x3F109, offset: 0x3F109, size: 0x8, addend: 0x0, symName: __ZNKSt3__129_AllocatorDestroyRangeReverseINS_9allocatorI8FileDataEENS_16reverse_iteratorIPS2_EEEclB8ue170006Ev, symObjAddr: 0xA5A8, symBinAddr: 0x10000E61C, symSize: 0xB4 }
  - { offsetInCU: 0x3F130, offset: 0x3F130, size: 0x8, addend: 0x0, symName: __ZNSt3__116reverse_iteratorINS0_IP8FileDataEEEC1B8ue170006ES3_, symObjAddr: 0xA6CC, symBinAddr: 0x10000E740, symSize: 0x3C }
  - { offsetInCU: 0x3F168, offset: 0x3F168, size: 0x8, addend: 0x0, symName: __ZNSt3__116reverse_iteratorINS0_IP8FileDataEEEppB8ue170006Ev, symObjAddr: 0xA78C, symBinAddr: 0x10000E800, symSize: 0x30 }
  - { offsetInCU: 0x3F18E, offset: 0x3F18E, size: 0x8, addend: 0x0, symName: __ZNKSt3__116reverse_iteratorINS0_IP8FileDataEEE4baseB8ue170006Ev, symObjAddr: 0xA7BC, symBinAddr: 0x10000E830, symSize: 0x24 }
  - { offsetInCU: 0x3F1BA, offset: 0x3F1BA, size: 0x8, addend: 0x0, symName: __ZNSt3__119__to_address_helperINS_16reverse_iteratorINS1_IP8FileDataEEEEvE6__callB8ue170006ERKS5_, symObjAddr: 0xA7E0, symBinAddr: 0x10000E854, symSize: 0x38 }
  - { offsetInCU: 0x3F1DD, offset: 0x3F1DD, size: 0x8, addend: 0x0, symName: __ZNKSt3__116reverse_iteratorINS0_IP8FileDataEEEptB8ue170006Ev, symObjAddr: 0xA818, symBinAddr: 0x10000E88C, symSize: 0x4C }
  - { offsetInCU: 0x3F203, offset: 0x3F203, size: 0x8, addend: 0x0, symName: __ZNSt3__116reverse_iteratorIP8FileDataEpLB8ue170006El, symObjAddr: 0xA914, symBinAddr: 0x10000E988, symSize: 0x30 }
  - { offsetInCU: 0x3F237, offset: 0x3F237, size: 0x8, addend: 0x0, symName: __ZNSt3__116reverse_iteratorIP8FileDataEmmB8ue170006Ev, symObjAddr: 0xA944, symBinAddr: 0x10000E9B8, symSize: 0x20 }
  - { offsetInCU: 0x3F25D, offset: 0x3F25D, size: 0x8, addend: 0x0, symName: __ZNSt3__116reverse_iteratorINS0_IP8FileDataEEEC2B8ue170006ES3_, symObjAddr: 0xA964, symBinAddr: 0x10000E9D8, symSize: 0x2C }
  - { offsetInCU: 0x3F295, offset: 0x3F295, size: 0x8, addend: 0x0, symName: __ZNSt3__114__split_bufferI8FileDataRNS_9allocatorIS1_EEED2Ev, symObjAddr: 0xA990, symBinAddr: 0x10000EA04, symSize: 0x8C }
  - { offsetInCU: 0x3F2C1, offset: 0x3F2C1, size: 0x8, addend: 0x0, symName: __ZNSt3__114__split_bufferI8FileDataRNS_9allocatorIS1_EEE5clearB8ue170006Ev, symObjAddr: 0xAA1C, symBinAddr: 0x10000EA90, symSize: 0x28 }
  - { offsetInCU: 0x3F2E7, offset: 0x3F2E7, size: 0x8, addend: 0x0, symName: __ZNKSt3__114__split_bufferI8FileDataRNS_9allocatorIS1_EEE8capacityB8ue170006Ev, symObjAddr: 0xAA44, symBinAddr: 0x10000EAB8, symSize: 0x40 }
  - { offsetInCU: 0x3F30D, offset: 0x3F30D, size: 0x8, addend: 0x0, symName: __ZNSt3__114__split_bufferI8FileDataRNS_9allocatorIS1_EEE17__destruct_at_endB8ue170006EPS1_, symObjAddr: 0xAA84, symBinAddr: 0x10000EAF8, symSize: 0x2C }
  - { offsetInCU: 0x3F341, offset: 0x3F341, size: 0x8, addend: 0x0, symName: __ZNSt3__114__split_bufferI8FileDataRNS_9allocatorIS1_EEE17__destruct_at_endB8ue170006EPS1_NS_17integral_constantIbLb0EEE, symObjAddr: 0xAAB0, symBinAddr: 0x10000EB24, symSize: 0x80 }
  - { offsetInCU: 0x3F381, offset: 0x3F381, size: 0x8, addend: 0x0, symName: __ZNKSt3__114__split_bufferI8FileDataRNS_9allocatorIS1_EEE9__end_capB8ue170006Ev, symObjAddr: 0xAB30, symBinAddr: 0x10000EBA4, symSize: 0x28 }
  - { offsetInCU: 0x3F3A7, offset: 0x3F3A7, size: 0x8, addend: 0x0, symName: __ZNKSt3__117__compressed_pairIP8FileDataRNS_9allocatorIS1_EEE5firstB8ue170006Ev, symObjAddr: 0xAB58, symBinAddr: 0x10000EBCC, symSize: 0x24 }
  - { offsetInCU: 0x3F3CD, offset: 0x3F3CD, size: 0x8, addend: 0x0, symName: __ZNSt3__16vectorImNS_9allocatorImEEED2B8ue170006Ev, symObjAddr: 0xAB7C, symBinAddr: 0x10000EBF0, symSize: 0x40 }
  - { offsetInCU: 0x3F3F7, offset: 0x3F3F7, size: 0x8, addend: 0x0, symName: __ZNSt3__16vectorINS0_I8FileDataNS_9allocatorIS1_EEEENS2_IS4_EEED2B8ue170006Ev, symObjAddr: 0xABBC, symBinAddr: 0x10000EC30, symSize: 0x40 }
  - { offsetInCU: 0x3F421, offset: 0x3F421, size: 0x8, addend: 0x0, symName: __ZNSt3__16vectorI8FileDataNS_9allocatorIS1_EEED2B8ue170006Ev, symObjAddr: 0xABFC, symBinAddr: 0x10000EC70, symSize: 0x40 }
  - { offsetInCU: 0x3F44B, offset: 0x3F44B, size: 0x8, addend: 0x0, symName: __ZNSt3__112basic_stringIcNS_11char_traitsIcEENS_9allocatorIcEEEC2B8ue170006ILi0EEEPKc, symObjAddr: 0xAC3C, symBinAddr: 0x10000ECB0, symSize: 0x58 }
  - { offsetInCU: 0x3F48B, offset: 0x3F48B, size: 0x8, addend: 0x0, symName: __ZNSt3__117__compressed_pairINS_12basic_stringIcNS_11char_traitsIcEENS_9allocatorIcEEE5__repES5_EC1B8ue170006INS_18__default_init_tagESA_EEOT_OT0_, symObjAddr: 0xAC94, symBinAddr: 0x10000ED08, symSize: 0x3C }
  - { offsetInCU: 0x3F4E3, offset: 0x3F4E3, size: 0x8, addend: 0x0, symName: __ZNSt3__111char_traitsIcE6lengthB8ue170006EPKc, symObjAddr: 0xACD0, symBinAddr: 0x10000ED44, symSize: 0x34 }
  - { offsetInCU: 0x3F506, offset: 0x3F506, size: 0x8, addend: 0x0, symName: __ZNSt3__117__compressed_pairINS_12basic_stringIcNS_11char_traitsIcEENS_9allocatorIcEEE5__repES5_EC2B8ue170006INS_18__default_init_tagESA_EEOT_OT0_, symObjAddr: 0xAD04, symBinAddr: 0x10000ED78, symSize: 0x3C }
  - { offsetInCU: 0x3F55E, offset: 0x3F55E, size: 0x8, addend: 0x0, symName: __ZNSt3__122__compressed_pair_elemINS_12basic_stringIcNS_11char_traitsIcEENS_9allocatorIcEEE5__repELi0ELb0EEC2B8ue170006ENS_18__default_init_tagE, symObjAddr: 0xAD40, symBinAddr: 0x10000EDB4, symSize: 0x14 }
  - { offsetInCU: 0x3F592, offset: 0x3F592, size: 0x8, addend: 0x0, symName: __ZNSt3__122__compressed_pair_elemINS_9allocatorIcEELi1ELb1EEC2B8ue170006ENS_18__default_init_tagE, symObjAddr: 0xAD54, symBinAddr: 0x10000EDC8, symSize: 0x2C }
  - { offsetInCU: 0x3F5C6, offset: 0x3F5C6, size: 0x8, addend: 0x0, symName: __ZNSt3__19allocatorIcEC2B8ue170006Ev, symObjAddr: 0xAD80, symBinAddr: 0x10000EDF4, symSize: 0x2C }
  - { offsetInCU: 0x3F5F0, offset: 0x3F5F0, size: 0x8, addend: 0x0, symName: __ZNSt3__116__non_trivial_ifILb1ENS_9allocatorIcEEEC2B8ue170006Ev, symObjAddr: 0xADAC, symBinAddr: 0x10000EE20, symSize: 0x14 }
  - { offsetInCU: 0x3F61A, offset: 0x3F61A, size: 0x8, addend: 0x0, symName: __ZNKSt3__112basic_stringIcNS_11char_traitsIcEENS_9allocatorIcEEE4dataB8ue170006Ev, symObjAddr: 0xADE4, symBinAddr: 0x10000EE58, symSize: 0x28 }
  - { offsetInCU: 0x3F640, offset: 0x3F640, size: 0x8, addend: 0x0, symName: __ZNKSt3__112basic_stringIcNS_11char_traitsIcEENS_9allocatorIcEEE13__get_pointerB8ue170006Ev, symObjAddr: 0xAE20, symBinAddr: 0x10000EE94, symSize: 0x54 }
  - { offsetInCU: 0x3F666, offset: 0x3F666, size: 0x8, addend: 0x0, symName: __ZNKSt3__112basic_stringIcNS_11char_traitsIcEENS_9allocatorIcEEE18__get_long_pointerB8ue170006Ev, symObjAddr: 0xAE74, symBinAddr: 0x10000EEE8, symSize: 0x28 }
  - { offsetInCU: 0x3F68C, offset: 0x3F68C, size: 0x8, addend: 0x0, symName: __ZNKSt3__112basic_stringIcNS_11char_traitsIcEENS_9allocatorIcEEE19__get_short_pointerB8ue170006Ev, symObjAddr: 0xAE9C, symBinAddr: 0x10000EF10, symSize: 0x28 }
  - { offsetInCU: 0x3F6B2, offset: 0x3F6B2, size: 0x8, addend: 0x0, symName: __ZNSt3__114pointer_traitsIPKcE10pointer_toB8ue170006ERS1_, symObjAddr: 0xAEC4, symBinAddr: 0x10000EF38, symSize: 0x14 }
  - { offsetInCU: 0x3F6E0, offset: 0x3F6E0, size: 0x8, addend: 0x0, symName: __ZNKSt3__16__lessIvvEclB8ue170006IllEEbRKT_RKT0_, symObjAddr: 0xAF2C, symBinAddr: 0x10000EFA0, symSize: 0x34 }
  - { offsetInCU: 0x3F734, offset: 0x3F734, size: 0x8, addend: 0x0, symName: __ZN2ff17AtomicFlagWrapper12test_and_setENSt3__112memory_orderE, symObjAddr: 0xB06C, symBinAddr: 0x10000F0E0, symSize: 0x30 }
  - { offsetInCU: 0x3F768, offset: 0x3F768, size: 0x8, addend: 0x0, symName: __ZNSt3__111atomic_flag12test_and_setB8ue170006ENS_12memory_orderE, symObjAddr: 0xB09C, symBinAddr: 0x10000F110, symSize: 0x38 }
  - { offsetInCU: 0x3F79C, offset: 0x3F79C, size: 0x8, addend: 0x0, symName: __ZN2ff17AtomicFlagWrapper5clearENSt3__112memory_orderE, symObjAddr: 0xB1BC, symBinAddr: 0x10000F230, symSize: 0x2C }
  - { offsetInCU: 0x3F7D0, offset: 0x3F7D0, size: 0x8, addend: 0x0, symName: __ZNSt3__111atomic_flag5clearB8ue170006ENS_12memory_orderE, symObjAddr: 0xB1E8, symBinAddr: 0x10000F25C, symSize: 0x34 }
  - { offsetInCU: 0x3F804, offset: 0x3F804, size: 0x8, addend: 0x0, symName: __ZNSt3__16vectorI8FileDataNS_9allocatorIS1_EEEC2B8ue170006Ev, symObjAddr: 0xB2AC, symBinAddr: 0x10000F320, symSize: 0x4C }
  - { offsetInCU: 0x3F82E, offset: 0x3F82E, size: 0x8, addend: 0x0, symName: __ZNSt3__117__compressed_pairIP8FileDataNS_9allocatorIS1_EEEC1B8ue170006IDnNS_18__default_init_tagEEEOT_OT0_, symObjAddr: 0xB2F8, symBinAddr: 0x10000F36C, symSize: 0x3C }
  - { offsetInCU: 0x3F886, offset: 0x3F886, size: 0x8, addend: 0x0, symName: __ZNSt3__117__compressed_pairIP8FileDataNS_9allocatorIS1_EEEC2B8ue170006IDnNS_18__default_init_tagEEEOT_OT0_, symObjAddr: 0xB334, symBinAddr: 0x10000F3A8, symSize: 0x40 }
  - { offsetInCU: 0x3F8DE, offset: 0x3F8DE, size: 0x8, addend: 0x0, symName: __ZNSt3__122__compressed_pair_elemINS_9allocatorI8FileDataEELi1ELb1EEC2B8ue170006ENS_18__default_init_tagE, symObjAddr: 0xB374, symBinAddr: 0x10000F3E8, symSize: 0x2C }
  - { offsetInCU: 0x3F912, offset: 0x3F912, size: 0x8, addend: 0x0, symName: __ZNSt3__19allocatorI8FileDataEC2B8ue170006Ev, symObjAddr: 0xB3A0, symBinAddr: 0x10000F414, symSize: 0x2C }
  - { offsetInCU: 0x3F93C, offset: 0x3F93C, size: 0x8, addend: 0x0, symName: __ZNSt3__116__non_trivial_ifILb1ENS_9allocatorI8FileDataEEEC2B8ue170006Ev, symObjAddr: 0xB3CC, symBinAddr: 0x10000F440, symSize: 0x14 }
  - { offsetInCU: 0x3F965, offset: 0x3F965, size: 0x8, addend: 0x0, symName: __ZL5isdotPKc, symObjAddr: 0xB3E0, symBinAddr: 0x10000F454, symSize: 0x90 }
  - { offsetInCU: 0x3F9A0, offset: 0x3F9A0, size: 0x8, addend: 0x0, symName: __ZNKSt3__112basic_stringIcNS_11char_traitsIcEENS_9allocatorIcEEE4sizeB8ue170006Ev, symObjAddr: 0xB470, symBinAddr: 0x10000F4E4, symSize: 0x54 }
  - { offsetInCU: 0x3F9C6, offset: 0x3F9C6, size: 0x8, addend: 0x0, symName: __ZNKSt3__112basic_stringIcNS_11char_traitsIcEENS_9allocatorIcEEE6substrB8ue170006Emm, symObjAddr: 0xB520, symBinAddr: 0x10000F594, symSize: 0x68 }
  - { offsetInCU: 0x3FA09, offset: 0x3FA09, size: 0x8, addend: 0x0, symName: __ZL7mapFilePKcRmRPh, symObjAddr: 0xB588, symBinAddr: 0x10000F5FC, symSize: 0x210 }
  - { offsetInCU: 0x3FA90, offset: 0x3FA90, size: 0x8, addend: 0x0, symName: __ZNSt3__16vectorI8FileDataNS_9allocatorIS1_EEE12emplace_backIJRPhRA1024_cRmEEERS1_DpOT_, symObjAddr: 0xB798, symBinAddr: 0x10000F80C, symSize: 0x8C }
  - { offsetInCU: 0x3FB00, offset: 0x3FB00, size: 0x8, addend: 0x0, symName: __ZNSt3__16vectorI8FileDataNS_9allocatorIS1_EEE12emplace_backIJRPhRPKcRmEEERS1_DpOT_, symObjAddr: 0xB824, symBinAddr: 0x10000F898, symSize: 0x8C }
  - { offsetInCU: 0x3FB6A, offset: 0x3FB6A, size: 0x8, addend: 0x0, symName: __ZNKSt3__112basic_stringIcNS_11char_traitsIcEENS_9allocatorIcEEE15__get_long_sizeB8ue170006Ev, symObjAddr: 0xB8B0, symBinAddr: 0x10000F924, symSize: 0x28 }
  - { offsetInCU: 0x3FB90, offset: 0x3FB90, size: 0x8, addend: 0x0, symName: __ZNKSt3__112basic_stringIcNS_11char_traitsIcEENS_9allocatorIcEEE16__get_short_sizeB8ue170006Ev, symObjAddr: 0xB8D8, symBinAddr: 0x10000F94C, symSize: 0x34 }
  - { offsetInCU: 0x3FBB6, offset: 0x3FBB6, size: 0x8, addend: 0x0, symName: __ZNKSt3__112basic_stringIcNS_11char_traitsIcEENS_9allocatorIcEEEcvNS_17basic_string_viewIcS2_EEB8ue170006Ev, symObjAddr: 0xB9BC, symBinAddr: 0x10000FA30, symSize: 0x50 }
  - { offsetInCU: 0x3FBDC, offset: 0x3FBDC, size: 0x8, addend: 0x0, symName: __ZNSt3__117basic_string_viewIcNS_11char_traitsIcEEEC1B8ue170006EPKc, symObjAddr: 0xBA0C, symBinAddr: 0x10000FA80, symSize: 0x34 }
  - { offsetInCU: 0x3FC15, offset: 0x3FC15, size: 0x8, addend: 0x0, symName: __ZNKSt3__117basic_string_viewIcNS_11char_traitsIcEEE4sizeB8ue170006Ev, symObjAddr: 0xBA40, symBinAddr: 0x10000FAB4, symSize: 0x18 }
  - { offsetInCU: 0x3FC3B, offset: 0x3FC3B, size: 0x8, addend: 0x0, symName: __ZNKSt3__117basic_string_viewIcNS_11char_traitsIcEEE7compareES3_, symObjAddr: 0xBA58, symBinAddr: 0x10000FACC, symSize: 0x13C }
  - { offsetInCU: 0x3FC8E, offset: 0x3FC8E, size: 0x8, addend: 0x0, symName: __ZNSt3__111char_traitsIcE7compareB8ue170006EPKcS3_m, symObjAddr: 0xBB94, symBinAddr: 0x10000FC08, symSize: 0x34 }
  - { offsetInCU: 0x3FCCD, offset: 0x3FCCD, size: 0x8, addend: 0x0, symName: __ZNKSt3__117basic_string_viewIcNS_11char_traitsIcEEE4dataB8ue170006Ev, symObjAddr: 0xBBC8, symBinAddr: 0x10000FC3C, symSize: 0x18 }
  - { offsetInCU: 0x3FCF3, offset: 0x3FCF3, size: 0x8, addend: 0x0, symName: __ZNSt3__117basic_string_viewIcNS_11char_traitsIcEEEC1B8ue170006EPKcm, symObjAddr: 0xBBE0, symBinAddr: 0x10000FC54, symSize: 0x3C }
  - { offsetInCU: 0x3FD3B, offset: 0x3FD3B, size: 0x8, addend: 0x0, symName: __ZNSt3__117basic_string_viewIcNS_11char_traitsIcEEEC2B8ue170006EPKcm, symObjAddr: 0xBC1C, symBinAddr: 0x10000FC90, symSize: 0x2C }
  - { offsetInCU: 0x3FD83, offset: 0x3FD83, size: 0x8, addend: 0x0, symName: __ZNSt3__117basic_string_viewIcNS_11char_traitsIcEEEC2B8ue170006EPKc, symObjAddr: 0xBC48, symBinAddr: 0x10000FCBC, symSize: 0x44 }
  - { offsetInCU: 0x3FDBC, offset: 0x3FDBC, size: 0x8, addend: 0x0, symName: __ZNSt3__19allocatorIcEC1B8ue170006Ev, symObjAddr: 0xBCB0, symBinAddr: 0x10000FD24, symSize: 0x2C }
  - { offsetInCU: 0x3FDE6, offset: 0x3FDE6, size: 0x8, addend: 0x0, symName: __ZNSt3__16vectorI8FileDataNS_9allocatorIS1_EEE22__construct_one_at_endB8ue170006IJRPhRA1024_cRmEEEvDpOT_, symObjAddr: 0xBCDC, symBinAddr: 0x10000FD50, symSize: 0xA0 }
  - { offsetInCU: 0x3FE5D, offset: 0x3FE5D, size: 0x8, addend: 0x0, symName: __ZNSt3__16vectorI8FileDataNS_9allocatorIS1_EEE24__emplace_back_slow_pathIJRPhRA1024_cRmEEEvDpOT_, symObjAddr: 0xBD7C, symBinAddr: 0x10000FDF0, symSize: 0xE8 }
  - { offsetInCU: 0x3FEE5, offset: 0x3FEE5, size: 0x8, addend: 0x0, symName: __ZNSt3__16vectorI8FileDataNS_9allocatorIS1_EEE4backB8ue170006Ev, symObjAddr: 0xBE64, symBinAddr: 0x10000FED8, symSize: 0x1C }
  - { offsetInCU: 0x3FF0B, offset: 0x3FF0B, size: 0x8, addend: 0x0, symName: __ZNSt3__116allocator_traitsINS_9allocatorI8FileDataEEE9constructB8ue170006IS2_JRPhRA1024_cRmEvvEEvRS3_PT_DpOT0_, symObjAddr: 0xBE80, symBinAddr: 0x10000FEF4, symSize: 0x40 }
  - { offsetInCU: 0x3FF88, offset: 0x3FF88, size: 0x8, addend: 0x0, symName: __ZN8FileDataC1EPhRKNSt3__112basic_stringIcNS1_11char_traitsIcEENS1_9allocatorIcEEEEm, symObjAddr: 0xBF5C, symBinAddr: 0x10000FFD0, symSize: 0x44 }
  - { offsetInCU: 0x3FFDF, offset: 0x3FFDF, size: 0x8, addend: 0x0, symName: __ZN8FileDataC2EPhRKNSt3__112basic_stringIcNS1_11char_traitsIcEENS1_9allocatorIcEEEEm, symObjAddr: 0xBFA0, symBinAddr: 0x100010014, symSize: 0x50 }
  - { offsetInCU: 0x40036, offset: 0x40036, size: 0x8, addend: 0x0, symName: __ZNSt3__16vectorI8FileDataNS_9allocatorIS1_EEE22__construct_one_at_endB8ue170006IJRPhRPKcRmEEEvDpOT_, symObjAddr: 0xBFF0, symBinAddr: 0x100010064, symSize: 0xA0 }
  - { offsetInCU: 0x400AD, offset: 0x400AD, size: 0x8, addend: 0x0, symName: __ZNSt3__16vectorI8FileDataNS_9allocatorIS1_EEE24__emplace_back_slow_pathIJRPhRPKcRmEEEvDpOT_, symObjAddr: 0xC090, symBinAddr: 0x100010104, symSize: 0xE8 }
  - { offsetInCU: 0x40135, offset: 0x40135, size: 0x8, addend: 0x0, symName: __ZNSt3__116allocator_traitsINS_9allocatorI8FileDataEEE9constructB8ue170006IS2_JRPhRPKcRmEvvEEvRS3_PT_DpOT0_, symObjAddr: 0xC178, symBinAddr: 0x1000101EC, symSize: 0x40 }
  - { offsetInCU: 0x401B2, offset: 0x401B2, size: 0x8, addend: 0x0, symName: __ZNSt3__16vectorIPN2ff7ff_nodeENS_9allocatorIS3_EEEC2B8ue170006Ev, symObjAddr: 0xC258, symBinAddr: 0x1000102CC, symSize: 0x4C }
  - { offsetInCU: 0x401DC, offset: 0x401DC, size: 0x8, addend: 0x0, symName: __ZNSt3__117__compressed_pairIPPN2ff7ff_nodeENS_9allocatorIS3_EEEC1B8ue170006IDnNS_18__default_init_tagEEEOT_OT0_, symObjAddr: 0xC2A4, symBinAddr: 0x100010318, symSize: 0x3C }
  - { offsetInCU: 0x40234, offset: 0x40234, size: 0x8, addend: 0x0, symName: __ZNSt3__117__compressed_pairIPPN2ff7ff_nodeENS_9allocatorIS3_EEEC2B8ue170006IDnNS_18__default_init_tagEEEOT_OT0_, symObjAddr: 0xC2E0, symBinAddr: 0x100010354, symSize: 0x40 }
  - { offsetInCU: 0x4028C, offset: 0x4028C, size: 0x8, addend: 0x0, symName: __ZNSt3__122__compressed_pair_elemIPPN2ff7ff_nodeELi0ELb0EEC2B8ue170006IDnvEEOT_, symObjAddr: 0xC320, symBinAddr: 0x100010394, symSize: 0x1C }
  - { offsetInCU: 0x402CE, offset: 0x402CE, size: 0x8, addend: 0x0, symName: __ZNSt3__122__compressed_pair_elemINS_9allocatorIPN2ff7ff_nodeEEELi1ELb1EEC2B8ue170006ENS_18__default_init_tagE, symObjAddr: 0xC33C, symBinAddr: 0x1000103B0, symSize: 0x2C }
  - { offsetInCU: 0x40302, offset: 0x40302, size: 0x8, addend: 0x0, symName: __ZNSt3__19allocatorIPN2ff7ff_nodeEEC2B8ue170006Ev, symObjAddr: 0xC368, symBinAddr: 0x1000103DC, symSize: 0x2C }
  - { offsetInCU: 0x4032C, offset: 0x4032C, size: 0x8, addend: 0x0, symName: __ZNSt3__116__non_trivial_ifILb1ENS_9allocatorIPN2ff7ff_nodeEEEEC2B8ue170006Ev, symObjAddr: 0xC394, symBinAddr: 0x100010408, symSize: 0x14 }
  - { offsetInCU: 0x40356, offset: 0x40356, size: 0x8, addend: 0x0, symName: __ZNSt3__16vectorIPN2ff7ff_nodeENS_9allocatorIS3_EEE9__end_capB8ue170006Ev, symObjAddr: 0xC3A8, symBinAddr: 0x10001041C, symSize: 0x28 }
  - { offsetInCU: 0x40382, offset: 0x40382, size: 0x8, addend: 0x0, symName: __ZNSt3__16vectorIPN2ff7ff_nodeENS_9allocatorIS3_EEE22__construct_one_at_endB8ue170006IJS3_EEEvDpOT_, symObjAddr: 0xC3D0, symBinAddr: 0x100010444, symSize: 0x90 }
  - { offsetInCU: 0x403D1, offset: 0x403D1, size: 0x8, addend: 0x0, symName: __ZNSt3__16vectorIPN2ff7ff_nodeENS_9allocatorIS3_EEE21__push_back_slow_pathIS3_EEvOT_, symObjAddr: 0xC460, symBinAddr: 0x1000104D4, symSize: 0xD8 }
  - { offsetInCU: 0x4042F, offset: 0x4042F, size: 0x8, addend: 0x0, symName: __ZNSt3__117__compressed_pairIPPN2ff7ff_nodeENS_9allocatorIS3_EEE5firstB8ue170006Ev, symObjAddr: 0xC538, symBinAddr: 0x1000105AC, symSize: 0x24 }
  - { offsetInCU: 0x40455, offset: 0x40455, size: 0x8, addend: 0x0, symName: __ZNSt3__122__compressed_pair_elemIPPN2ff7ff_nodeELi0ELb0EE5__getB8ue170006Ev, symObjAddr: 0xC55C, symBinAddr: 0x1000105D0, symSize: 0x14 }
  - { offsetInCU: 0x40496, offset: 0x40496, size: 0x8, addend: 0x0, symName: __ZNSt3__16vectorIPN2ff7ff_nodeENS_9allocatorIS3_EEE21_ConstructTransactionC1B8ue170006ERS6_m, symObjAddr: 0xC570, symBinAddr: 0x1000105E4, symSize: 0x3C }
  - { offsetInCU: 0x404DE, offset: 0x404DE, size: 0x8, addend: 0x0, symName: __ZNSt3__116allocator_traitsINS_9allocatorIPN2ff7ff_nodeEEEE9constructB8ue170006IS4_JS4_EvvEEvRS5_PT_DpOT0_, symObjAddr: 0xC5AC, symBinAddr: 0x100010620, symSize: 0x30 }
  - { offsetInCU: 0x40533, offset: 0x40533, size: 0x8, addend: 0x0, symName: __ZNSt3__16vectorIPN2ff7ff_nodeENS_9allocatorIS3_EEE7__allocB8ue170006Ev, symObjAddr: 0xC5DC, symBinAddr: 0x100010650, symSize: 0x28 }
  - { offsetInCU: 0x40559, offset: 0x40559, size: 0x8, addend: 0x0, symName: __ZNSt3__16vectorIPN2ff7ff_nodeENS_9allocatorIS3_EEE21_ConstructTransactionD1B8ue170006Ev, symObjAddr: 0xC618, symBinAddr: 0x10001068C, symSize: 0x2C }
  - { offsetInCU: 0x40583, offset: 0x40583, size: 0x8, addend: 0x0, symName: __ZNSt3__16vectorIPN2ff7ff_nodeENS_9allocatorIS3_EEE21_ConstructTransactionC2B8ue170006ERS6_m, symObjAddr: 0xC644, symBinAddr: 0x1000106B8, symSize: 0x44 }
  - { offsetInCU: 0x405CB, offset: 0x405CB, size: 0x8, addend: 0x0, symName: __ZNSt3__117__compressed_pairIPPN2ff7ff_nodeENS_9allocatorIS3_EEE6secondB8ue170006Ev, symObjAddr: 0xC6B4, symBinAddr: 0x100010728, symSize: 0x24 }
  - { offsetInCU: 0x405F1, offset: 0x405F1, size: 0x8, addend: 0x0, symName: __ZNSt3__122__compressed_pair_elemINS_9allocatorIPN2ff7ff_nodeEEELi1ELb1EE5__getB8ue170006Ev, symObjAddr: 0xC6D8, symBinAddr: 0x10001074C, symSize: 0x14 }
  - { offsetInCU: 0x40617, offset: 0x40617, size: 0x8, addend: 0x0, symName: __ZNSt3__16vectorIPN2ff7ff_nodeENS_9allocatorIS3_EEE21_ConstructTransactionD2B8ue170006Ev, symObjAddr: 0xC6EC, symBinAddr: 0x100010760, symSize: 0x20 }
  - { offsetInCU: 0x40641, offset: 0x40641, size: 0x8, addend: 0x0, symName: __ZNKSt3__16vectorIPN2ff7ff_nodeENS_9allocatorIS3_EEE11__recommendB8ue170006Em, symObjAddr: 0xC70C, symBinAddr: 0x100010780, symSize: 0xB4 }
  - { offsetInCU: 0x40696, offset: 0x40696, size: 0x8, addend: 0x0, symName: __ZNKSt3__16vectorIPN2ff7ff_nodeENS_9allocatorIS3_EEE4sizeB8ue170006Ev, symObjAddr: 0xC7C0, symBinAddr: 0x100010834, symSize: 0x28 }
  - { offsetInCU: 0x406BC, offset: 0x406BC, size: 0x8, addend: 0x0, symName: __ZNSt3__114__split_bufferIPN2ff7ff_nodeERNS_9allocatorIS3_EEEC1EmmS6_, symObjAddr: 0xC7E8, symBinAddr: 0x10001085C, symSize: 0x44 }
  - { offsetInCU: 0x40712, offset: 0x40712, size: 0x8, addend: 0x0, symName: __ZNSt3__114__split_bufferIPN2ff7ff_nodeERNS_9allocatorIS3_EEED1Ev, symObjAddr: 0xC93C, symBinAddr: 0x1000109B0, symSize: 0x2C }
  - { offsetInCU: 0x4073E, offset: 0x4073E, size: 0x8, addend: 0x0, symName: __ZNKSt3__16vectorIPN2ff7ff_nodeENS_9allocatorIS3_EEE8max_sizeEv, symObjAddr: 0xC968, symBinAddr: 0x1000109DC, symSize: 0x60 }
  - { offsetInCU: 0x40766, offset: 0x40766, size: 0x8, addend: 0x0, symName: __ZNKSt3__16vectorIPN2ff7ff_nodeENS_9allocatorIS3_EEE20__throw_length_errorB8ue170006Ev, symObjAddr: 0xC9C8, symBinAddr: 0x100010A3C, symSize: 0x1C }
  - { offsetInCU: 0x4078C, offset: 0x4078C, size: 0x8, addend: 0x0, symName: __ZNKSt3__16vectorIPN2ff7ff_nodeENS_9allocatorIS3_EEE8capacityB8ue170006Ev, symObjAddr: 0xC9E4, symBinAddr: 0x100010A58, symSize: 0x40 }
  - { offsetInCU: 0x407BD, offset: 0x407BD, size: 0x8, addend: 0x0, symName: __ZNSt3__116allocator_traitsINS_9allocatorIPN2ff7ff_nodeEEEE8max_sizeB8ue170006IS5_vvEEmRKS5_, symObjAddr: 0xCA24, symBinAddr: 0x100010A98, symSize: 0x28 }
  - { offsetInCU: 0x407E9, offset: 0x407E9, size: 0x8, addend: 0x0, symName: __ZNKSt3__16vectorIPN2ff7ff_nodeENS_9allocatorIS3_EEE7__allocB8ue170006Ev, symObjAddr: 0xCA4C, symBinAddr: 0x100010AC0, symSize: 0x28 }
  - { offsetInCU: 0x4080F, offset: 0x4080F, size: 0x8, addend: 0x0, symName: __ZNKSt3__117__compressed_pairIPPN2ff7ff_nodeENS_9allocatorIS3_EEE6secondB8ue170006Ev, symObjAddr: 0xCA74, symBinAddr: 0x100010AE8, symSize: 0x24 }
  - { offsetInCU: 0x40835, offset: 0x40835, size: 0x8, addend: 0x0, symName: __ZNKSt3__122__compressed_pair_elemINS_9allocatorIPN2ff7ff_nodeEEELi1ELb1EE5__getB8ue170006Ev, symObjAddr: 0xCA98, symBinAddr: 0x100010B0C, symSize: 0x14 }
  - { offsetInCU: 0x4085B, offset: 0x4085B, size: 0x8, addend: 0x0, symName: __ZNKSt3__16vectorIPN2ff7ff_nodeENS_9allocatorIS3_EEE9__end_capB8ue170006Ev, symObjAddr: 0xCAAC, symBinAddr: 0x100010B20, symSize: 0x28 }
  - { offsetInCU: 0x40881, offset: 0x40881, size: 0x8, addend: 0x0, symName: __ZNKSt3__117__compressed_pairIPPN2ff7ff_nodeENS_9allocatorIS3_EEE5firstB8ue170006Ev, symObjAddr: 0xCAD4, symBinAddr: 0x100010B48, symSize: 0x24 }
  - { offsetInCU: 0x408A7, offset: 0x408A7, size: 0x8, addend: 0x0, symName: __ZNKSt3__122__compressed_pair_elemIPPN2ff7ff_nodeELi0ELb0EE5__getB8ue170006Ev, symObjAddr: 0xCAF8, symBinAddr: 0x100010B6C, symSize: 0x14 }
  - { offsetInCU: 0x408CD, offset: 0x408CD, size: 0x8, addend: 0x0, symName: __ZNSt3__114__split_bufferIPN2ff7ff_nodeERNS_9allocatorIS3_EEEC2EmmS6_, symObjAddr: 0xCB0C, symBinAddr: 0x100010B80, symSize: 0xD4 }
  - { offsetInCU: 0x40940, offset: 0x40940, size: 0x8, addend: 0x0, symName: __ZNSt3__117__compressed_pairIPPN2ff7ff_nodeERNS_9allocatorIS3_EEEC1B8ue170006IDnS7_EEOT_OT0_, symObjAddr: 0xCBE0, symBinAddr: 0x100010C54, symSize: 0x3C }
  - { offsetInCU: 0x40998, offset: 0x40998, size: 0x8, addend: 0x0, symName: __ZNSt3__114__split_bufferIPN2ff7ff_nodeERNS_9allocatorIS3_EEE7__allocB8ue170006Ev, symObjAddr: 0xCC5C, symBinAddr: 0x100010CD0, symSize: 0x28 }
  - { offsetInCU: 0x409BE, offset: 0x409BE, size: 0x8, addend: 0x0, symName: __ZNSt3__114__split_bufferIPN2ff7ff_nodeERNS_9allocatorIS3_EEE9__end_capB8ue170006Ev, symObjAddr: 0xCC84, symBinAddr: 0x100010CF8, symSize: 0x28 }
  - { offsetInCU: 0x409E4, offset: 0x409E4, size: 0x8, addend: 0x0, symName: __ZNSt3__117__compressed_pairIPPN2ff7ff_nodeERNS_9allocatorIS3_EEEC2B8ue170006IDnS7_EEOT_OT0_, symObjAddr: 0xCCAC, symBinAddr: 0x100010D20, symSize: 0x48 }
  - { offsetInCU: 0x40A3C, offset: 0x40A3C, size: 0x8, addend: 0x0, symName: __ZNSt3__122__compressed_pair_elemIRNS_9allocatorIPN2ff7ff_nodeEEELi1ELb0EEC2B8ue170006IS6_vEEOT_, symObjAddr: 0xCCF4, symBinAddr: 0x100010D68, symSize: 0x20 }
  - { offsetInCU: 0x40A7E, offset: 0x40A7E, size: 0x8, addend: 0x0, symName: __ZNSt3__19allocatorIPN2ff7ff_nodeEE8allocateB8ue170006Em, symObjAddr: 0xCD14, symBinAddr: 0x100010D88, symSize: 0x58 }
  - { offsetInCU: 0x40AB2, offset: 0x40AB2, size: 0x8, addend: 0x0, symName: __ZNSt3__117__compressed_pairIPPN2ff7ff_nodeERNS_9allocatorIS3_EEE6secondB8ue170006Ev, symObjAddr: 0xCD6C, symBinAddr: 0x100010DE0, symSize: 0x28 }
  - { offsetInCU: 0x40AD8, offset: 0x40AD8, size: 0x8, addend: 0x0, symName: __ZNSt3__122__compressed_pair_elemIRNS_9allocatorIPN2ff7ff_nodeEEELi1ELb0EE5__getB8ue170006Ev, symObjAddr: 0xCD94, symBinAddr: 0x100010E08, symSize: 0x18 }
  - { offsetInCU: 0x40AFE, offset: 0x40AFE, size: 0x8, addend: 0x0, symName: __ZNSt3__117__compressed_pairIPPN2ff7ff_nodeERNS_9allocatorIS3_EEE5firstB8ue170006Ev, symObjAddr: 0xCDAC, symBinAddr: 0x100010E20, symSize: 0x24 }
  - { offsetInCU: 0x40B24, offset: 0x40B24, size: 0x8, addend: 0x0, symName: __ZNKSt3__16vectorIPN2ff7ff_nodeENS_9allocatorIS3_EEE17__annotate_deleteB8ue170006Ev, symObjAddr: 0xCDD0, symBinAddr: 0x100010E44, symSize: 0xB8 }
  - { offsetInCU: 0x40B4A, offset: 0x40B4A, size: 0x8, addend: 0x0, symName: __ZNSt3__116reverse_iteratorIPPN2ff7ff_nodeEEC1B8ue170006ES4_, symObjAddr: 0xCF00, symBinAddr: 0x100010F74, symSize: 0x34 }
  - { offsetInCU: 0x40B82, offset: 0x40B82, size: 0x8, addend: 0x0, symName: __ZNKSt3__116reverse_iteratorIPPN2ff7ff_nodeEE4baseB8ue170006Ev, symObjAddr: 0xCF34, symBinAddr: 0x100010FA8, symSize: 0x18 }
  - { offsetInCU: 0x40BA8, offset: 0x40BA8, size: 0x8, addend: 0x0, symName: __ZNKSt3__16vectorIPN2ff7ff_nodeENS_9allocatorIS3_EEE14__annotate_newB8ue170006Em, symObjAddr: 0xCF88, symBinAddr: 0x100010FFC, symSize: 0xAC }
  - { offsetInCU: 0x40BDD, offset: 0x40BDD, size: 0x8, addend: 0x0, symName: __ZNKSt3__16vectorIPN2ff7ff_nodeENS_9allocatorIS3_EEE31__annotate_contiguous_containerB8ue170006EPKvS8_S8_S8_, symObjAddr: 0xD034, symBinAddr: 0x1000110A8, symSize: 0x20 }
  - { offsetInCU: 0x40C33, offset: 0x40C33, size: 0x8, addend: 0x0, symName: __ZNKSt3__16vectorIPN2ff7ff_nodeENS_9allocatorIS3_EEE4dataB8ue170006Ev, symObjAddr: 0xD054, symBinAddr: 0x1000110C8, symSize: 0x28 }
  - { offsetInCU: 0x40C7F, offset: 0x40C7F, size: 0x8, addend: 0x0, symName: __ZNKSt3__111__move_loopINS_17_ClassicAlgPolicyEEclB8ue170006INS_16reverse_iteratorIPPN2ff7ff_nodeEEES9_S9_EENS_4pairIT_T1_EESB_T0_SC_, symObjAddr: 0xD334, symBinAddr: 0x1000113A8, symSize: 0xA0 }
  - { offsetInCU: 0x40CEA, offset: 0x40CEA, size: 0x8, addend: 0x0, symName: __ZNSt3__119__unwrap_range_implINS_16reverse_iteratorIPPN2ff7ff_nodeEEES6_E8__unwrapB8ue170006ES6_S6_, symObjAddr: 0xD520, symBinAddr: 0x100011594, symSize: 0x84 }
  - { offsetInCU: 0x40D21, offset: 0x40D21, size: 0x8, addend: 0x0, symName: __ZNSt3__14pairINS_16reverse_iteratorIPPN2ff7ff_nodeEEES6_EC1B8ue170006IS6_S6_LPv0EEEOT_OT0_, symObjAddr: 0xD5A4, symBinAddr: 0x100011618, symSize: 0x3C }
  - { offsetInCU: 0x40D7F, offset: 0x40D7F, size: 0x8, addend: 0x0, symName: __ZNSt3__14pairINS_16reverse_iteratorIPPN2ff7ff_nodeEEES6_EC2B8ue170006IS6_S6_LPv0EEEOT_OT0_, symObjAddr: 0xD5E0, symBinAddr: 0x100011654, symSize: 0x34 }
  - { offsetInCU: 0x40DDD, offset: 0x40DDD, size: 0x8, addend: 0x0, symName: __ZNSt3__18_IterOpsINS_17_ClassicAlgPolicyEE11__iter_moveB8ue170006IRNS_16reverse_iteratorIPPN2ff7ff_nodeEEEEENS_9enable_ifIXsr12is_referenceIDTdeclsr3stdE7declvalIRT_EEEEE5valueEDTclsr3stdE4movedeclsr3stdE7declvalISD_EEEEE4typeEOSC_, symObjAddr: 0xD65C, symBinAddr: 0x1000116D0, symSize: 0x28 }
  - { offsetInCU: 0x40E09, offset: 0x40E09, size: 0x8, addend: 0x0, symName: __ZNKSt3__116reverse_iteratorIPPN2ff7ff_nodeEEdeB8ue170006Ev, symObjAddr: 0xD684, symBinAddr: 0x1000116F8, symSize: 0x28 }
  - { offsetInCU: 0x40E3D, offset: 0x40E3D, size: 0x8, addend: 0x0, symName: __ZNSt3__116reverse_iteratorIPPN2ff7ff_nodeEEppB8ue170006Ev, symObjAddr: 0xD6AC, symBinAddr: 0x100011720, symSize: 0x20 }
  - { offsetInCU: 0x40E63, offset: 0x40E63, size: 0x8, addend: 0x0, symName: __ZNSt3__18_IterOpsINS_17_ClassicAlgPolicyEE25__validate_iter_referenceB8ue170006IRNS_16reverse_iteratorIPPN2ff7ff_nodeEEEEEvv, symObjAddr: 0xD6CC, symBinAddr: 0x100011740, symSize: 0x4 }
  - { offsetInCU: 0x40E81, offset: 0x40E81, size: 0x8, addend: 0x0, symName: __ZNSt3__118__unwrap_iter_implINS_16reverse_iteratorIPPN2ff7ff_nodeEEELb0EE8__unwrapB8ue170006ES6_, symObjAddr: 0xD6D0, symBinAddr: 0x100011744, symSize: 0x24 }
  - { offsetInCU: 0x40EA4, offset: 0x40EA4, size: 0x8, addend: 0x0, symName: __ZNSt3__119__unwrap_range_implINS_16reverse_iteratorIPPN2ff7ff_nodeEEES6_E8__rewrapB8ue170006ES6_S6_, symObjAddr: 0xD6F4, symBinAddr: 0x100011768, symSize: 0x5C }
  - { offsetInCU: 0x40ED5, offset: 0x40ED5, size: 0x8, addend: 0x0, symName: __ZNSt3__118__unwrap_iter_implINS_16reverse_iteratorIPPN2ff7ff_nodeEEELb0EE8__rewrapB8ue170006ES6_S6_, symObjAddr: 0xD750, symBinAddr: 0x1000117C4, symSize: 0x2C }
  - { offsetInCU: 0x40F02, offset: 0x40F02, size: 0x8, addend: 0x0, symName: __ZNSt3__116reverse_iteratorIPPN2ff7ff_nodeEEC2B8ue170006ES4_, symObjAddr: 0xD77C, symBinAddr: 0x1000117F0, symSize: 0x28 }
  - { offsetInCU: 0x40F3A, offset: 0x40F3A, size: 0x8, addend: 0x0, symName: __ZNSt3__114__split_bufferIPN2ff7ff_nodeERNS_9allocatorIS3_EEED2Ev, symObjAddr: 0xD7A4, symBinAddr: 0x100011818, symSize: 0x8C }
  - { offsetInCU: 0x40F66, offset: 0x40F66, size: 0x8, addend: 0x0, symName: __ZNSt3__114__split_bufferIPN2ff7ff_nodeERNS_9allocatorIS3_EEE5clearB8ue170006Ev, symObjAddr: 0xD830, symBinAddr: 0x1000118A4, symSize: 0x28 }
  - { offsetInCU: 0x40F8C, offset: 0x40F8C, size: 0x8, addend: 0x0, symName: __ZNSt3__116allocator_traitsINS_9allocatorIPN2ff7ff_nodeEEEE10deallocateB8ue170006ERS5_PS4_m, symObjAddr: 0xD858, symBinAddr: 0x1000118CC, symSize: 0x34 }
  - { offsetInCU: 0x40FCE, offset: 0x40FCE, size: 0x8, addend: 0x0, symName: __ZNKSt3__114__split_bufferIPN2ff7ff_nodeERNS_9allocatorIS3_EEE8capacityB8ue170006Ev, symObjAddr: 0xD88C, symBinAddr: 0x100011900, symSize: 0x40 }
  - { offsetInCU: 0x40FF4, offset: 0x40FF4, size: 0x8, addend: 0x0, symName: __ZNSt3__114__split_bufferIPN2ff7ff_nodeERNS_9allocatorIS3_EEE17__destruct_at_endB8ue170006EPS3_, symObjAddr: 0xD8CC, symBinAddr: 0x100011940, symSize: 0x2C }
  - { offsetInCU: 0x41028, offset: 0x41028, size: 0x8, addend: 0x0, symName: __ZNSt3__114__split_bufferIPN2ff7ff_nodeERNS_9allocatorIS3_EEE17__destruct_at_endB8ue170006EPS3_NS_17integral_constantIbLb0EEE, symObjAddr: 0xD8F8, symBinAddr: 0x10001196C, symSize: 0x80 }
  - { offsetInCU: 0x41068, offset: 0x41068, size: 0x8, addend: 0x0, symName: __ZNSt3__116allocator_traitsINS_9allocatorIPN2ff7ff_nodeEEEE7destroyB8ue170006IS4_vvEEvRS5_PT_, symObjAddr: 0xD978, symBinAddr: 0x1000119EC, symSize: 0x28 }
  - { offsetInCU: 0x410A3, offset: 0x410A3, size: 0x8, addend: 0x0, symName: __ZNSt3__19allocatorIPN2ff7ff_nodeEE10deallocateB8ue170006EPS3_m, symObjAddr: 0xD9D4, symBinAddr: 0x100011A48, symSize: 0x40 }
  - { offsetInCU: 0x410E5, offset: 0x410E5, size: 0x8, addend: 0x0, symName: __ZNKSt3__114__split_bufferIPN2ff7ff_nodeERNS_9allocatorIS3_EEE9__end_capB8ue170006Ev, symObjAddr: 0xDA14, symBinAddr: 0x100011A88, symSize: 0x28 }
  - { offsetInCU: 0x4110B, offset: 0x4110B, size: 0x8, addend: 0x0, symName: __ZNKSt3__117__compressed_pairIPPN2ff7ff_nodeERNS_9allocatorIS3_EEE5firstB8ue170006Ev, symObjAddr: 0xDA3C, symBinAddr: 0x100011AB0, symSize: 0x24 }
  - { offsetInCU: 0x41131, offset: 0x41131, size: 0x8, addend: 0x0, symName: __ZN8L_WorkerC2ERKNSt3__16vectorI8FileDataNS0_9allocatorIS2_EEEEb, symObjAddr: 0xDA60, symBinAddr: 0x100011AD4, symSize: 0x94 }
  - { offsetInCU: 0x41177, offset: 0x41177, size: 0x8, addend: 0x0, symName: __ZN2ff11ff_monode_tI4TaskS1_EC2Ev, symObjAddr: 0xDAF4, symBinAddr: 0x100011B68, symSize: 0x84 }
  - { offsetInCU: 0x411A1, offset: 0x411A1, size: 0x8, addend: 0x0, symName: __ZN2ff11ff_monode_tI4TaskS1_ED2Ev, symObjAddr: 0xDB78, symBinAddr: 0x100011BEC, symSize: 0x2C }
  - { offsetInCU: 0x411CB, offset: 0x411CB, size: 0x8, addend: 0x0, symName: __ZN2ff7ff_node6set_idEl, symObjAddr: 0xDBA4, symBinAddr: 0x100011C18, symSize: 0x20 }
  - { offsetInCU: 0x41200, offset: 0x41200, size: 0x8, addend: 0x0, symName: __ZN2ff7ff_node8set_neosEl, symObjAddr: 0xDBC4, symBinAddr: 0x100011C38, symSize: 0x20 }
  - { offsetInCU: 0x41235, offset: 0x41235, size: 0x8, addend: 0x0, symName: __ZN2ff7ff_node4pushEPv, symObjAddr: 0xDBE4, symBinAddr: 0x100011C58, symSize: 0x34 }
  - { offsetInCU: 0x4126A, offset: 0x4126A, size: 0x8, addend: 0x0, symName: __ZN2ff7ff_node3popEPPv, symObjAddr: 0xDC18, symBinAddr: 0x100011C8C, symSize: 0x70 }
  - { offsetInCU: 0x4129F, offset: 0x4129F, size: 0x8, addend: 0x0, symName: __ZN2ff7ff_node4PushEPvmm, symObjAddr: 0xDC88, symBinAddr: 0x100011CFC, symSize: 0x190 }
  - { offsetInCU: 0x41369, offset: 0x41369, size: 0x8, addend: 0x0, symName: __ZN2ff7ff_node3PopEPPvmm, symObjAddr: 0xDE18, symBinAddr: 0x100011E8C, symSize: 0x1A4 }
  - { offsetInCU: 0x41424, offset: 0x41424, size: 0x8, addend: 0x0, symName: __ZN2ff9ff_monode19init_input_blockingERP23_opaque_pthread_mutex_tRP22_opaque_pthread_cond_tb, symObjAddr: 0xDFBC, symBinAddr: 0x100012030, symSize: 0x50 }
  - { offsetInCU: 0x41477, offset: 0x41477, size: 0x8, addend: 0x0, symName: __ZN2ff9ff_monode20init_output_blockingERP23_opaque_pthread_mutex_tRP22_opaque_pthread_cond_tb, symObjAddr: 0xE00C, symBinAddr: 0x100012080, symSize: 0x50 }
  - { offsetInCU: 0x414CA, offset: 0x414CA, size: 0x8, addend: 0x0, symName: __ZN2ff9ff_monode19set_output_blockingERP23_opaque_pthread_mutex_tRP22_opaque_pthread_cond_tb, symObjAddr: 0xE05C, symBinAddr: 0x1000120D0, symSize: 0x48 }
  - { offsetInCU: 0x4151D, offset: 0x4151D, size: 0x8, addend: 0x0, symName: __ZN2ff9ff_monode10set_cons_cEP22_opaque_pthread_cond_t, symObjAddr: 0xE0A4, symBinAddr: 0x100012118, symSize: 0x38 }
  - { offsetInCU: 0x41552, offset: 0x41552, size: 0x8, addend: 0x0, symName: __ZN2ff9ff_monode10get_cons_cEv, symObjAddr: 0xE0DC, symBinAddr: 0x100012150, symSize: 0x30 }
  - { offsetInCU: 0x41578, offset: 0x41578, size: 0x8, addend: 0x0, symName: __ZN2ff9ff_monode12skipfirstpopEb, symObjAddr: 0xE10C, symBinAddr: 0x100012180, symSize: 0x50 }
  - { offsetInCU: 0x415AD, offset: 0x415AD, size: 0x8, addend: 0x0, symName: __ZN2ff7ff_node19create_input_bufferEib, symObjAddr: 0xE15C, symBinAddr: 0x1000121D0, symSize: 0x128 }
  - { offsetInCU: 0x415F1, offset: 0x415F1, size: 0x8, addend: 0x0, symName: __ZN2ff7ff_node22create_input_buffer_mpEibi, symObjAddr: 0xE284, symBinAddr: 0x1000122F8, symSize: 0xA8 }
  - { offsetInCU: 0x41644, offset: 0x41644, size: 0x8, addend: 0x0, symName: __ZN2ff9ff_monode20create_output_bufferEib, symObjAddr: 0xE32C, symBinAddr: 0x1000123A0, symSize: 0x154 }
  - { offsetInCU: 0x41697, offset: 0x41697, size: 0x8, addend: 0x0, symName: __ZN2ff7ff_node17set_output_bufferEPNS_16uSWSR_Ptr_BufferE, symObjAddr: 0xE480, symBinAddr: 0x1000124F4, symSize: 0x4C }
  - { offsetInCU: 0x416CC, offset: 0x416CC, size: 0x8, addend: 0x0, symName: __ZN2ff7ff_node16set_input_bufferEPNS_16uSWSR_Ptr_BufferE, symObjAddr: 0xE4CC, symBinAddr: 0x100012540, symSize: 0x4C }
  - { offsetInCU: 0x41701, offset: 0x41701, size: 0x8, addend: 0x0, symName: __ZN2ff7ff_node9set_inputERKNS_7svectorIPS0_EE, symObjAddr: 0xE518, symBinAddr: 0x10001258C, symSize: 0x18 }
  - { offsetInCU: 0x41733, offset: 0x41733, size: 0x8, addend: 0x0, symName: __ZN2ff7ff_node9set_inputEPS0_, symObjAddr: 0xE530, symBinAddr: 0x1000125A4, symSize: 0x4C }
  - { offsetInCU: 0x41768, offset: 0x41768, size: 0x8, addend: 0x0, symName: __ZN2ff7ff_node18set_input_feedbackEPS0_, symObjAddr: 0xE57C, symBinAddr: 0x1000125F0, symSize: 0x18 }
  - { offsetInCU: 0x4179A, offset: 0x4179A, size: 0x8, addend: 0x0, symName: __ZN2ff9ff_monode10set_outputERKNS_7svectorIPNS_7ff_nodeEEE, symObjAddr: 0xE594, symBinAddr: 0x100012608, symSize: 0x34 }
  - { offsetInCU: 0x417CF, offset: 0x417CF, size: 0x8, addend: 0x0, symName: __ZN2ff9ff_monode10set_outputEPNS_7ff_nodeE, symObjAddr: 0xE5C8, symBinAddr: 0x10001263C, symSize: 0x38 }
  - { offsetInCU: 0x41804, offset: 0x41804, size: 0x8, addend: 0x0, symName: __ZN2ff9ff_monode19set_output_feedbackEPNS_7ff_nodeE, symObjAddr: 0xE600, symBinAddr: 0x100012674, symSize: 0x38 }
  - { offsetInCU: 0x41839, offset: 0x41839, size: 0x8, addend: 0x0, symName: __ZN2ff7ff_node19set_input_channelidElb, symObjAddr: 0xE638, symBinAddr: 0x1000126AC, symSize: 0x1C }
  - { offsetInCU: 0x41877, offset: 0x41877, size: 0x8, addend: 0x0, symName: __ZN2ff9ff_monode7prepareEv, symObjAddr: 0xE654, symBinAddr: 0x1000126C8, symSize: 0x74 }
  - { offsetInCU: 0x4189D, offset: 0x4189D, size: 0x8, addend: 0x0, symName: __ZN2ff9ff_monode6dryrunEv, symObjAddr: 0xE6C8, symBinAddr: 0x10001273C, symSize: 0x184 }
  - { offsetInCU: 0x418FD, offset: 0x418FD, size: 0x8, addend: 0x0, symName: __ZN2ff9ff_monode23set_scheduling_ondemandEi, symObjAddr: 0xE84C, symBinAddr: 0x1000128C0, symSize: 0x50 }
  - { offsetInCU: 0x41932, offset: 0x41932, size: 0x8, addend: 0x0, symName: __ZNK2ff9ff_monode15ondemand_bufferEv, symObjAddr: 0xE89C, symBinAddr: 0x100012910, symSize: 0x18 }
  - { offsetInCU: 0x41958, offset: 0x41958, size: 0x8, addend: 0x0, symName: __ZN2ff9ff_monode3runEb, symObjAddr: 0xE8B4, symBinAddr: 0x100012928, symSize: 0x158 }
  - { offsetInCU: 0x4198A, offset: 0x4198A, size: 0x8, addend: 0x0, symName: __ZN2ff9ff_monode14freeze_and_runEb, symObjAddr: 0xEA0C, symBinAddr: 0x100012A80, symSize: 0x5C }
  - { offsetInCU: 0x419BC, offset: 0x419BC, size: 0x8, addend: 0x0, symName: __ZN2ff9ff_monode4waitEv, symObjAddr: 0xEA68, symBinAddr: 0x100012ADC, symSize: 0x50 }
  - { offsetInCU: 0x419E2, offset: 0x419E2, size: 0x8, addend: 0x0, symName: __ZN2ff7ff_node13wait_freezingEv, symObjAddr: 0xEAB8, symBinAddr: 0x100012B2C, symSize: 0x60 }
  - { offsetInCU: 0x41A08, offset: 0x41A08, size: 0x8, addend: 0x0, symName: __ZN2ff7ff_node4stopEv, symObjAddr: 0xEB18, symBinAddr: 0x100012B8C, symSize: 0x54 }
  - { offsetInCU: 0x41A2E, offset: 0x41A2E, size: 0x8, addend: 0x0, symName: __ZN2ff7ff_node6freezeEv, symObjAddr: 0xEB6C, symBinAddr: 0x100012BE0, symSize: 0x54 }
  - { offsetInCU: 0x41A54, offset: 0x41A54, size: 0x8, addend: 0x0, symName: __ZN2ff7ff_node4thawEbl, symObjAddr: 0xEBC0, symBinAddr: 0x100012C34, symSize: 0x70 }
  - { offsetInCU: 0x41A95, offset: 0x41A95, size: 0x8, addend: 0x0, symName: __ZNK2ff7ff_node8isfrozenEv, symObjAddr: 0xEC30, symBinAddr: 0x100012CA4, symSize: 0x78 }
  - { offsetInCU: 0x41ABB, offset: 0x41ABB, size: 0x8, addend: 0x0, symName: __ZNK2ff9ff_monode4doneEv, symObjAddr: 0xECA8, symBinAddr: 0x100012D1C, symSize: 0x34 }
  - { offsetInCU: 0x41AE1, offset: 0x41AE1, size: 0x8, addend: 0x0, symName: __ZNK2ff7ff_node15isoutbuffermineEv, symObjAddr: 0xECDC, symBinAddr: 0x100012D50, symSize: 0x1C }
  - { offsetInCU: 0x41B07, offset: 0x41B07, size: 0x8, addend: 0x0, symName: __ZN2ff9ff_monode11cardinalityEPNS_11spinBarrierE, symObjAddr: 0xECF8, symBinAddr: 0x100012D6C, symSize: 0x38 }
  - { offsetInCU: 0x41B3C, offset: 0x41B3C, size: 0x8, addend: 0x0, symName: __ZNK2ff7ff_node11cardinalityEv, symObjAddr: 0xED30, symBinAddr: 0x100012DA4, symSize: 0x14 }
  - { offsetInCU: 0x41B62, offset: 0x41B62, size: 0x8, addend: 0x0, symName: __ZN2ff9ff_monode5setlbEPNS_15ff_loadbalancerEb, symObjAddr: 0xED44, symBinAddr: 0x100012DB8, symSize: 0xAC }
  - { offsetInCU: 0x41BA6, offset: 0x41BA6, size: 0x8, addend: 0x0, symName: __ZN2ff7ff_node5setgtEPNS_11ff_gathererEb, symObjAddr: 0xEDF0, symBinAddr: 0x100012E64, symSize: 0x1C }
  - { offsetInCU: 0x41BE4, offset: 0x41BE4, size: 0x8, addend: 0x0, symName: __ZN2ff7ff_node6ffTimeEv, symObjAddr: 0xEE0C, symBinAddr: 0x100012E80, symSize: 0x30 }
  - { offsetInCU: 0x41C0A, offset: 0x41C0A, size: 0x8, addend: 0x0, symName: __ZN2ff7ff_node7wffTimeEv, symObjAddr: 0xEE3C, symBinAddr: 0x100012EB0, symSize: 0x30 }
  - { offsetInCU: 0x41C30, offset: 0x41C30, size: 0x8, addend: 0x0, symName: __ZN8L_WorkerD1Ev, symObjAddr: 0xEE6C, symBinAddr: 0x100012EE0, symSize: 0x2C }
  - { offsetInCU: 0x41C5C, offset: 0x41C5C, size: 0x8, addend: 0x0, symName: __ZN8L_WorkerD0Ev, symObjAddr: 0xEE98, symBinAddr: 0x100012F0C, symSize: 0x34 }
  - { offsetInCU: 0x41C88, offset: 0x41C88, size: 0x8, addend: 0x0, symName: __ZN2ff11ff_monode_tI4TaskS1_E3svcEPv, symObjAddr: 0xEECC, symBinAddr: 0x100012F40, symSize: 0x34 }
  - { offsetInCU: 0x41CBD, offset: 0x41CBD, size: 0x8, addend: 0x0, symName: __ZN2ff7ff_node8svc_initEv, symObjAddr: 0xEF00, symBinAddr: 0x100012F74, symSize: 0x14 }
  - { offsetInCU: 0x41CE3, offset: 0x41CE3, size: 0x8, addend: 0x0, symName: __ZN2ff7ff_node7svc_endEv, symObjAddr: 0xEF14, symBinAddr: 0x100012F88, symSize: 0x10 }
  - { offsetInCU: 0x41D09, offset: 0x41D09, size: 0x8, addend: 0x0, symName: __ZN2ff7ff_node8nodeInitEv, symObjAddr: 0xEF24, symBinAddr: 0x100012F98, symSize: 0x14 }
  - { offsetInCU: 0x41D2F, offset: 0x41D2F, size: 0x8, addend: 0x0, symName: __ZN2ff7ff_node7nodeEndEv, symObjAddr: 0xEF38, symBinAddr: 0x100012FAC, symSize: 0x10 }
  - { offsetInCU: 0x41D55, offset: 0x41D55, size: 0x8, addend: 0x0, symName: __ZN2ff7ff_node9eosnotifyEl, symObjAddr: 0xEF48, symBinAddr: 0x100012FBC, symSize: 0x14 }
  - { offsetInCU: 0x41D87, offset: 0x41D87, size: 0x8, addend: 0x0, symName: __ZNK2ff7ff_node8get_neosEv, symObjAddr: 0xEF5C, symBinAddr: 0x100012FD0, symSize: 0x18 }
  - { offsetInCU: 0x41DAD, offset: 0x41DAD, size: 0x8, addend: 0x0, symName: __ZNK2ff7ff_node9get_my_idEv, symObjAddr: 0xEF74, symBinAddr: 0x100012FE8, symSize: 0x18 }
  - { offsetInCU: 0x41DD3, offset: 0x41DD3, size: 0x8, addend: 0x0, symName: __ZN2ff7ff_node11change_nodeEPS0_S1_bb, symObjAddr: 0xEF8C, symBinAddr: 0x100013000, symSize: 0x34 }
  - { offsetInCU: 0x41E35, offset: 0x41E35, size: 0x8, addend: 0x0, symName: __ZN2ff7ff_node22change_outputqueuesizeEmRm, symObjAddr: 0xEFC0, symBinAddr: 0x100013034, symSize: 0x90 }
  - { offsetInCU: 0x41E79, offset: 0x41E79, size: 0x8, addend: 0x0, symName: __ZN2ff7ff_node21change_inputqueuesizeEmRm, symObjAddr: 0xF050, symBinAddr: 0x1000130C4, symSize: 0x90 }
  - { offsetInCU: 0x41EBD, offset: 0x41EBD, size: 0x8, addend: 0x0, symName: __ZN2ff9ff_monode13get_out_nodesERNS_7svectorIPNS_7ff_nodeEEE, symObjAddr: 0xF0E0, symBinAddr: 0x100013154, symSize: 0xA8 }
  - { offsetInCU: 0x41EF2, offset: 0x41EF2, size: 0x8, addend: 0x0, symName: __ZN2ff9ff_monode22get_out_nodes_feedbackERNS_7svectorIPNS_7ff_nodeEEE, symObjAddr: 0xF188, symBinAddr: 0x1000131FC, symSize: 0x30 }
  - { offsetInCU: 0x41F27, offset: 0x41F27, size: 0x8, addend: 0x0, symName: __ZN2ff7ff_node12get_in_nodesERNS_7svectorIPS0_EE, symObjAddr: 0xF1B8, symBinAddr: 0x10001322C, symSize: 0x34 }
  - { offsetInCU: 0x41F5C, offset: 0x41F5C, size: 0x8, addend: 0x0, symName: __ZN2ff7ff_node21get_in_nodes_feedbackERNS_7svectorIPS0_EE, symObjAddr: 0xF1EC, symBinAddr: 0x100013260, symSize: 0x14 }
  - { offsetInCU: 0x41F8E, offset: 0x41F8E, size: 0x8, addend: 0x0, symName: __ZN2ff7ff_node11setAffinityEi, symObjAddr: 0xF200, symBinAddr: 0x100013274, symSize: 0x6C }
  - { offsetInCU: 0x41FC3, offset: 0x41FC3, size: 0x8, addend: 0x0, symName: __ZN2ff9ff_monode11set_barrierEPNS_11spinBarrierE, symObjAddr: 0xF26C, symBinAddr: 0x1000132E0, symSize: 0x38 }
  - { offsetInCU: 0x41FF8, offset: 0x41FF8, size: 0x8, addend: 0x0, symName: __ZNK2ff9ff_monode11get_barrierEv, symObjAddr: 0xF2A4, symBinAddr: 0x100013318, symSize: 0x30 }
  - { offsetInCU: 0x4201E, offset: 0x4201E, size: 0x8, addend: 0x0, symName: __ZNK2ff7ff_node8getCPUIdEv, symObjAddr: 0xF2D4, symBinAddr: 0x100013348, symSize: 0x1C }
  - { offsetInCU: 0x42044, offset: 0x42044, size: 0x8, addend: 0x0, symName: __ZN2ff7ff_node3putEPv, symObjAddr: 0xF2F0, symBinAddr: 0x100013364, symSize: 0x88 }
  - { offsetInCU: 0x42079, offset: 0x42079, size: 0x8, addend: 0x0, symName: __ZN2ff7ff_node3getEPPv, symObjAddr: 0xF378, symBinAddr: 0x1000133EC, symSize: 0x34 }
  - { offsetInCU: 0x420AE, offset: 0x420AE, size: 0x8, addend: 0x0, symName: __ZN2ff7ff_node12losetime_outEm, symObjAddr: 0xF3AC, symBinAddr: 0x100013420, symSize: 0x28 }
  - { offsetInCU: 0x420E3, offset: 0x420E3, size: 0x8, addend: 0x0, symName: __ZN2ff7ff_node11losetime_inEm, symObjAddr: 0xF3D4, symBinAddr: 0x100013448, symSize: 0x28 }
  - { offsetInCU: 0x42118, offset: 0x42118, size: 0x8, addend: 0x0, symName: __ZNK2ff7ff_node13get_in_bufferEv, symObjAddr: 0xF3FC, symBinAddr: 0x100013470, symSize: 0x18 }
  - { offsetInCU: 0x4213E, offset: 0x4213E, size: 0x8, addend: 0x0, symName: __ZNK2ff7ff_node14get_out_bufferEv, symObjAddr: 0xF414, symBinAddr: 0x100013488, symSize: 0x18 }
  - { offsetInCU: 0x42164, offset: 0x42164, size: 0x8, addend: 0x0, symName: __ZNK2ff9ff_monode12getstarttimeEv, symObjAddr: 0xF42C, symBinAddr: 0x1000134A0, symSize: 0x40 }
  - { offsetInCU: 0x4218A, offset: 0x4218A, size: 0x8, addend: 0x0, symName: __ZNK2ff9ff_monode11getstoptimeEv, symObjAddr: 0xF46C, symBinAddr: 0x1000134E0, symSize: 0x40 }
  - { offsetInCU: 0x421B0, offset: 0x421B0, size: 0x8, addend: 0x0, symName: __ZNK2ff9ff_monode12getwstartimeEv, symObjAddr: 0xF4AC, symBinAddr: 0x100013520, symSize: 0x40 }
  - { offsetInCU: 0x421D6, offset: 0x421D6, size: 0x8, addend: 0x0, symName: __ZNK2ff9ff_monode12getwstoptimeEv, symObjAddr: 0xF4EC, symBinAddr: 0x100013560, symSize: 0x40 }
  - { offsetInCU: 0x421FC, offset: 0x421FC, size: 0x8, addend: 0x0, symName: __ZN2ff9ff_monode11ff_send_outEPvimm, symObjAddr: 0xF52C, symBinAddr: 0x1000135A0, symSize: 0xB0 }
  - { offsetInCU: 0x4225E, offset: 0x4225E, size: 0x8, addend: 0x0, symName: __ZN2ff7ff_node5resetEv, symObjAddr: 0xF5DC, symBinAddr: 0x100013650, symSize: 0x70 }
  - { offsetInCU: 0x42284, offset: 0x42284, size: 0x8, addend: 0x0, symName: __ZNK2ff7ff_node12isMultiInputEv, symObjAddr: 0xF64C, symBinAddr: 0x1000136C0, symSize: 0x18 }
  - { offsetInCU: 0x422AA, offset: 0x422AA, size: 0x8, addend: 0x0, symName: __ZNK2ff9ff_monode13isMultiOutputEv, symObjAddr: 0xF664, symBinAddr: 0x1000136D8, symSize: 0x18 }
  - { offsetInCU: 0x422D0, offset: 0x422D0, size: 0x8, addend: 0x0, symName: __ZNK2ff7ff_node9isAll2AllEv, symObjAddr: 0xF67C, symBinAddr: 0x1000136F0, symSize: 0x18 }
  - { offsetInCU: 0x422F6, offset: 0x422F6, size: 0x8, addend: 0x0, symName: __ZNK2ff7ff_node6isFarmEv, symObjAddr: 0xF694, symBinAddr: 0x100013708, symSize: 0x18 }
  - { offsetInCU: 0x4231C, offset: 0x4231C, size: 0x8, addend: 0x0, symName: __ZNK2ff7ff_node7isOFarmEv, symObjAddr: 0xF6AC, symBinAddr: 0x100013720, symSize: 0x18 }
  - { offsetInCU: 0x42342, offset: 0x42342, size: 0x8, addend: 0x0, symName: __ZNK2ff7ff_node6isCompEv, symObjAddr: 0xF6C4, symBinAddr: 0x100013738, symSize: 0x18 }
  - { offsetInCU: 0x42368, offset: 0x42368, size: 0x8, addend: 0x0, symName: __ZNK2ff7ff_node6isPipeEv, symObjAddr: 0xF6DC, symBinAddr: 0x100013750, symSize: 0x18 }
  - { offsetInCU: 0x4238E, offset: 0x4238E, size: 0x8, addend: 0x0, symName: __ZN2ff7ff_node14set_multiinputEv, symObjAddr: 0xF6F4, symBinAddr: 0x100013768, symSize: 0x10 }
  - { offsetInCU: 0x423B4, offset: 0x423B4, size: 0x8, addend: 0x0, symName: __ZN2ff7ff_node15push_comp_localEPv, symObjAddr: 0xF704, symBinAddr: 0x100013778, symSize: 0x18 }
  - { offsetInCU: 0x423E9, offset: 0x423E9, size: 0x8, addend: 0x0, symName: __ZNK2ff9ff_monode14get_channel_idEv, symObjAddr: 0xF71C, symBinAddr: 0x100013790, symSize: 0x28 }
  - { offsetInCU: 0x4240F, offset: 0x4240F, size: 0x8, addend: 0x0, symName: __ZNK2ff9ff_monode19get_num_outchannelsEv, symObjAddr: 0xF744, symBinAddr: 0x1000137B8, symSize: 0x28 }
  - { offsetInCU: 0x42435, offset: 0x42435, size: 0x8, addend: 0x0, symName: __ZNK2ff9ff_monode18get_num_inchannelsEv, symObjAddr: 0xF76C, symBinAddr: 0x1000137E0, symSize: 0x28 }
  - { offsetInCU: 0x4245B, offset: 0x4245B, size: 0x8, addend: 0x0, symName: __ZNK2ff9ff_monode24get_num_feedbackchannelsEv, symObjAddr: 0xF794, symBinAddr: 0x100013808, symSize: 0x28 }
  - { offsetInCU: 0x42481, offset: 0x42481, size: 0x8, addend: 0x0, symName: __ZN2ff9ff_monode12propagateEOSEPv, symObjAddr: 0xF7BC, symBinAddr: 0x100013830, symSize: 0x74 }
  - { offsetInCU: 0x424B6, offset: 0x424B6, size: 0x8, addend: 0x0, symName: __ZN2ff7ff_node12input_activeEb, symObjAddr: 0xF830, symBinAddr: 0x1000138A4, symSize: 0x58 }
  - { offsetInCU: 0x424EB, offset: 0x424EB, size: 0x8, addend: 0x0, symName: __ZN2ff7ff_node16registerCallbackEPFbPvimmS1_ES1_, symObjAddr: 0xF888, symBinAddr: 0x1000138FC, symSize: 0x2C }
  - { offsetInCU: 0x4252F, offset: 0x4252F, size: 0x8, addend: 0x0, symName: __ZN2ff7ff_node25registerAllGatherCallbackEPFiPvPS1_S1_ES1_, symObjAddr: 0xF8B4, symBinAddr: 0x100013928, symSize: 0x18 }
  - { offsetInCU: 0x4256D, offset: 0x4256D, size: 0x8, addend: 0x0, symName: __ZN2ff9ff_monode13blocking_modeEb, symObjAddr: 0xF8CC, symBinAddr: 0x100013940, symSize: 0x50 }
  - { offsetInCU: 0x425A2, offset: 0x425A2, size: 0x8, addend: 0x0, symName: __ZN2ff7ff_node10no_barrierEv, symObjAddr: 0xF91C, symBinAddr: 0x100013990, symSize: 0x18 }
  - { offsetInCU: 0x425C8, offset: 0x425C8, size: 0x8, addend: 0x0, symName: __ZN2ff7ff_node10no_mappingEv, symObjAddr: 0xF934, symBinAddr: 0x1000139A8, symSize: 0x18 }
  - { offsetInCU: 0x425EE, offset: 0x425EE, size: 0x8, addend: 0x0, symName: __ZN2ff9ff_monode14ff_send_out_toEPvimm, symObjAddr: 0xF94C, symBinAddr: 0x1000139C0, symSize: 0xEC }
  - { offsetInCU: 0x42650, offset: 0x42650, size: 0x8, addend: 0x0, symName: __ZN8L_Worker3svcEP4Task, symObjAddr: 0xFA38, symBinAddr: 0x100013AAC, symSize: 0x1C8 }
  - { offsetInCU: 0x426CA, offset: 0x426CA, size: 0x8, addend: 0x0, symName: __ZN2ff9ff_monodeC2Ei, symObjAddr: 0xFC00, symBinAddr: 0x100013C74, symSize: 0x13C }
  - { offsetInCU: 0x42703, offset: 0x42703, size: 0x8, addend: 0x0, symName: __ZN2ff11ff_monode_tI4TaskS1_ED1Ev, symObjAddr: 0xFD3C, symBinAddr: 0x100013DB0, symSize: 0x14 }
  - { offsetInCU: 0x4272D, offset: 0x4272D, size: 0x8, addend: 0x0, symName: __ZN2ff11ff_monode_tI4TaskS1_ED0Ev, symObjAddr: 0xFD50, symBinAddr: 0x100013DC4, symSize: 0xC }
  - { offsetInCU: 0x42757, offset: 0x42757, size: 0x8, addend: 0x0, symName: __ZN2ff7ff_nodeC2Ev, symObjAddr: 0xFD5C, symBinAddr: 0x100013DD0, symSize: 0x11C }
  - { offsetInCU: 0x42781, offset: 0x42781, size: 0x8, addend: 0x0, symName: __ZN2ff15ff_loadbalancerC1Em, symObjAddr: 0xFE78, symBinAddr: 0x100013EEC, symSize: 0x34 }
  - { offsetInCU: 0x427BA, offset: 0x427BA, size: 0x8, addend: 0x0, symName: __ZN2ff7ff_nodeD2Ev, symObjAddr: 0xFEAC, symBinAddr: 0x100013F20, symSize: 0x284 }
  - { offsetInCU: 0x427E4, offset: 0x427E4, size: 0x8, addend: 0x0, symName: __ZN2ff9ff_monodeD1Ev, symObjAddr: 0x10130, symBinAddr: 0x1000141A4, symSize: 0x14 }
  - { offsetInCU: 0x4280E, offset: 0x4280E, size: 0x8, addend: 0x0, symName: __ZN2ff9ff_monodeD0Ev, symObjAddr: 0x10144, symBinAddr: 0x1000141B8, symSize: 0xC }
  - { offsetInCU: 0x42838, offset: 0x42838, size: 0x8, addend: 0x0, symName: __ZN2ff7ff_node19init_input_blockingERP23_opaque_pthread_mutex_tRP22_opaque_pthread_cond_tb, symObjAddr: 0x10170, symBinAddr: 0x1000141E4, symSize: 0x1C0 }
  - { offsetInCU: 0x42888, offset: 0x42888, size: 0x8, addend: 0x0, symName: __ZN2ff7ff_node20init_output_blockingERP23_opaque_pthread_mutex_tRP22_opaque_pthread_cond_tb, symObjAddr: 0x10330, symBinAddr: 0x1000143A4, symSize: 0x1C0 }
  - { offsetInCU: 0x428D8, offset: 0x428D8, size: 0x8, addend: 0x0, symName: __ZN2ff7ff_node19set_output_blockingERP23_opaque_pthread_mutex_tRP22_opaque_pthread_cond_tb, symObjAddr: 0x104F0, symBinAddr: 0x100014564, symSize: 0xCC }
  - { offsetInCU: 0x4292B, offset: 0x4292B, size: 0x8, addend: 0x0, symName: __ZN2ff7ff_node10set_cons_cEP22_opaque_pthread_cond_t, symObjAddr: 0x105BC, symBinAddr: 0x100014630, symSize: 0xA8 }
  - { offsetInCU: 0x42960, offset: 0x42960, size: 0x8, addend: 0x0, symName: __ZN2ff7ff_node10get_cons_cEv, symObjAddr: 0x10664, symBinAddr: 0x1000146D8, symSize: 0x18 }
  - { offsetInCU: 0x42986, offset: 0x42986, size: 0x8, addend: 0x0, symName: __ZN2ff7ff_node12skipfirstpopEb, symObjAddr: 0x1067C, symBinAddr: 0x1000146F0, symSize: 0x2C }
  - { offsetInCU: 0x429BB, offset: 0x429BB, size: 0x8, addend: 0x0, symName: __ZN2ff7ff_node20create_output_bufferEib, symObjAddr: 0x106A8, symBinAddr: 0x10001471C, symSize: 0x128 }
  - { offsetInCU: 0x429FF, offset: 0x429FF, size: 0x8, addend: 0x0, symName: __ZN2ff7ff_node10set_outputERKNS_7svectorIPS0_EE, symObjAddr: 0x107D0, symBinAddr: 0x100014844, symSize: 0x18 }
  - { offsetInCU: 0x42A31, offset: 0x42A31, size: 0x8, addend: 0x0, symName: __ZN2ff7ff_node10set_outputEPS0_, symObjAddr: 0x107E8, symBinAddr: 0x10001485C, symSize: 0x4C }
  - { offsetInCU: 0x42A66, offset: 0x42A66, size: 0x8, addend: 0x0, symName: __ZN2ff7ff_node19set_output_feedbackEPS0_, symObjAddr: 0x10834, symBinAddr: 0x1000148A8, symSize: 0x18 }
  - { offsetInCU: 0x42A98, offset: 0x42A98, size: 0x8, addend: 0x0, symName: __ZN2ff7ff_node7prepareEv, symObjAddr: 0x1084C, symBinAddr: 0x1000148C0, symSize: 0x20 }
  - { offsetInCU: 0x42ABE, offset: 0x42ABE, size: 0x8, addend: 0x0, symName: __ZN2ff7ff_node6dryrunEv, symObjAddr: 0x1086C, symBinAddr: 0x1000148E0, symSize: 0x54 }
  - { offsetInCU: 0x42AE4, offset: 0x42AE4, size: 0x8, addend: 0x0, symName: __ZN2ff7ff_node23set_scheduling_ondemandEi, symObjAddr: 0x108C0, symBinAddr: 0x100014934, symSize: 0x14 }
  - { offsetInCU: 0x42B16, offset: 0x42B16, size: 0x8, addend: 0x0, symName: __ZNK2ff7ff_node15ondemand_bufferEv, symObjAddr: 0x108D4, symBinAddr: 0x100014948, symSize: 0x14 }
  - { offsetInCU: 0x42B3C, offset: 0x42B3C, size: 0x8, addend: 0x0, symName: __ZN2ff7ff_node3runEb, symObjAddr: 0x108E8, symBinAddr: 0x10001495C, symSize: 0x10C }
  - { offsetInCU: 0x42B6E, offset: 0x42B6E, size: 0x8, addend: 0x0, symName: __ZN2ff7ff_node14freeze_and_runEb, symObjAddr: 0x109F4, symBinAddr: 0x100014A68, symSize: 0x118 }
  - { offsetInCU: 0x42BA0, offset: 0x42BA0, size: 0x8, addend: 0x0, symName: __ZN2ff7ff_node4waitEv, symObjAddr: 0x10B0C, symBinAddr: 0x100014B80, symSize: 0x60 }
  - { offsetInCU: 0x42BC6, offset: 0x42BC6, size: 0x8, addend: 0x0, symName: __ZNK2ff7ff_node4doneEv, symObjAddr: 0x10B6C, symBinAddr: 0x100014BE0, symSize: 0x78 }
  - { offsetInCU: 0x42BEC, offset: 0x42BEC, size: 0x8, addend: 0x0, symName: __ZN2ff7ff_node11cardinalityEPNS_11spinBarrierE, symObjAddr: 0x10BE4, symBinAddr: 0x100014C58, symSize: 0x24 }
  - { offsetInCU: 0x42C21, offset: 0x42C21, size: 0x8, addend: 0x0, symName: __ZN2ff7ff_node5setlbEPNS_15ff_loadbalancerEb, symObjAddr: 0x10C08, symBinAddr: 0x100014C7C, symSize: 0x1C }
  - { offsetInCU: 0x42C5F, offset: 0x42C5F, size: 0x8, addend: 0x0, symName: __ZN2ff7ff_nodeD1Ev, symObjAddr: 0x10C24, symBinAddr: 0x100014C98, symSize: 0x14 }
  - { offsetInCU: 0x42C89, offset: 0x42C89, size: 0x8, addend: 0x0, symName: __ZN2ff7ff_nodeD0Ev, symObjAddr: 0x10C38, symBinAddr: 0x100014CAC, symSize: 0xC }
  - { offsetInCU: 0x42CB3, offset: 0x42CB3, size: 0x8, addend: 0x0, symName: __ZN2ff7ff_node13get_out_nodesERNS_7svectorIPS0_EE, symObjAddr: 0x10C44, symBinAddr: 0x100014CB8, symSize: 0x34 }
  - { offsetInCU: 0x42CE8, offset: 0x42CE8, size: 0x8, addend: 0x0, symName: __ZN2ff7ff_node22get_out_nodes_feedbackERNS_7svectorIPS0_EE, symObjAddr: 0x10C78, symBinAddr: 0x100014CEC, symSize: 0x14 }
  - { offsetInCU: 0x42D1A, offset: 0x42D1A, size: 0x8, addend: 0x0, symName: __ZN2ff7ff_node11set_barrierEPNS_11spinBarrierE, symObjAddr: 0x10C8C, symBinAddr: 0x100014D00, symSize: 0x20 }
  - { offsetInCU: 0x42D4F, offset: 0x42D4F, size: 0x8, addend: 0x0, symName: __ZNK2ff7ff_node11get_barrierEv, symObjAddr: 0x10CAC, symBinAddr: 0x100014D20, symSize: 0x18 }
  - { offsetInCU: 0x42D75, offset: 0x42D75, size: 0x8, addend: 0x0, symName: __ZNK2ff7ff_node12getstarttimeEv, symObjAddr: 0x10CC4, symBinAddr: 0x100014D38, symSize: 0x24 }
  - { offsetInCU: 0x42D9B, offset: 0x42D9B, size: 0x8, addend: 0x0, symName: __ZNK2ff7ff_node11getstoptimeEv, symObjAddr: 0x10CE8, symBinAddr: 0x100014D5C, symSize: 0x24 }
  - { offsetInCU: 0x42DC1, offset: 0x42DC1, size: 0x8, addend: 0x0, symName: __ZNK2ff7ff_node12getwstartimeEv, symObjAddr: 0x10D0C, symBinAddr: 0x100014D80, symSize: 0x24 }
  - { offsetInCU: 0x42DE7, offset: 0x42DE7, size: 0x8, addend: 0x0, symName: __ZNK2ff7ff_node12getwstoptimeEv, symObjAddr: 0x10D30, symBinAddr: 0x100014DA4, symSize: 0x24 }
  - { offsetInCU: 0x42E0D, offset: 0x42E0D, size: 0x8, addend: 0x0, symName: __ZN2ff7ff_node11ff_send_outEPvimm, symObjAddr: 0x10D54, symBinAddr: 0x100014DC8, symSize: 0xBC }
  - { offsetInCU: 0x42E7E, offset: 0x42E7E, size: 0x8, addend: 0x0, symName: __ZNK2ff7ff_node13isMultiOutputEv, symObjAddr: 0x10E10, symBinAddr: 0x100014E84, symSize: 0x18 }
  - { offsetInCU: 0x42EA4, offset: 0x42EA4, size: 0x8, addend: 0x0, symName: __ZNK2ff7ff_node14get_channel_idEv, symObjAddr: 0x10E28, symBinAddr: 0x100014E9C, symSize: 0x14 }
  - { offsetInCU: 0x42ECA, offset: 0x42ECA, size: 0x8, addend: 0x0, symName: __ZNK2ff7ff_node19get_num_outchannelsEv, symObjAddr: 0x10E3C, symBinAddr: 0x100014EB0, symSize: 0x14 }
  - { offsetInCU: 0x42EF0, offset: 0x42EF0, size: 0x8, addend: 0x0, symName: __ZNK2ff7ff_node18get_num_inchannelsEv, symObjAddr: 0x10E50, symBinAddr: 0x100014EC4, symSize: 0x14 }
  - { offsetInCU: 0x42F16, offset: 0x42F16, size: 0x8, addend: 0x0, symName: __ZNK2ff7ff_node24get_num_feedbackchannelsEv, symObjAddr: 0x10E64, symBinAddr: 0x100014ED8, symSize: 0x14 }
  - { offsetInCU: 0x42F3C, offset: 0x42F3C, size: 0x8, addend: 0x0, symName: __ZN2ff7ff_node12propagateEOSEPv, symObjAddr: 0x10E78, symBinAddr: 0x100014EEC, symSize: 0x14 }
  - { offsetInCU: 0x42F71, offset: 0x42F71, size: 0x8, addend: 0x0, symName: __ZN2ff7ff_node13blocking_modeEb, symObjAddr: 0x10E8C, symBinAddr: 0x100014F00, symSize: 0x34 }
  - { offsetInCU: 0x42FA6, offset: 0x42FA6, size: 0x8, addend: 0x0, symName: __ZN2ff16uSWSR_Ptr_BufferC1Embb, symObjAddr: 0x10EC0, symBinAddr: 0x100014F34, symSize: 0x58 }
  - { offsetInCU: 0x42FFD, offset: 0x42FFD, size: 0x8, addend: 0x0, symName: __ZN2ff16uSWSR_Ptr_Buffer4initEv, symObjAddr: 0x10F18, symBinAddr: 0x100014F8C, symSize: 0x11C }
  - { offsetInCU: 0x43023, offset: 0x43023, size: 0x8, addend: 0x0, symName: __ZN2ff16uSWSR_Ptr_BufferC2Embb, symObjAddr: 0x11034, symBinAddr: 0x1000150A8, symSize: 0x18C }
  - { offsetInCU: 0x4307A, offset: 0x4307A, size: 0x8, addend: 0x0, symName: __ZN2ff17AtomicFlagWrapperC1Ev, symObjAddr: 0x111C0, symBinAddr: 0x100015234, symSize: 0x2C }
  - { offsetInCU: 0x430A6, offset: 0x430A6, size: 0x8, addend: 0x0, symName: __ZN2ff10BufferPoolC1Eibm, symObjAddr: 0x111EC, symBinAddr: 0x100015260, symSize: 0x50 }
  - { offsetInCU: 0x430FA, offset: 0x430FA, size: 0x8, addend: 0x0, symName: __ZN2ff16uSWSR_Ptr_Buffer4pushEPv, symObjAddr: 0x1124C, symBinAddr: 0x1000152C0, symSize: 0x128 }
  - { offsetInCU: 0x4314C, offset: 0x4314C, size: 0x8, addend: 0x0, symName: __ZN2ff16uSWSR_Ptr_Buffer3popEPPv, symObjAddr: 0x11374, symBinAddr: 0x1000153E8, symSize: 0x138 }
  - { offsetInCU: 0x4319E, offset: 0x4319E, size: 0x8, addend: 0x0, symName: __ZN2ff10BufferPoolD1Ev, symObjAddr: 0x114AC, symBinAddr: 0x100015520, symSize: 0x2C }
  - { offsetInCU: 0x431C8, offset: 0x431C8, size: 0x8, addend: 0x0, symName: __ZN2ff17AtomicFlagWrapperC2Ev, symObjAddr: 0x114D8, symBinAddr: 0x10001554C, symSize: 0x34 }
  - { offsetInCU: 0x431F4, offset: 0x431F4, size: 0x8, addend: 0x0, symName: __ZNSt3__111atomic_flagC1B8ue170006Eb, symObjAddr: 0x1150C, symBinAddr: 0x100015580, symSize: 0x40 }
  - { offsetInCU: 0x4322C, offset: 0x4322C, size: 0x8, addend: 0x0, symName: __ZNSt3__111atomic_flagC2B8ue170006Eb, symObjAddr: 0x1154C, symBinAddr: 0x1000155C0, symSize: 0x40 }
  - { offsetInCU: 0x43264, offset: 0x43264, size: 0x8, addend: 0x0, symName: __ZNSt3__117__cxx_atomic_implIbNS_22__cxx_atomic_base_implIbEEEC1B8ue170006Eb, symObjAddr: 0x1158C, symBinAddr: 0x100015600, symSize: 0x40 }
  - { offsetInCU: 0x4329D, offset: 0x4329D, size: 0x8, addend: 0x0, symName: __ZNSt3__117__cxx_atomic_implIbNS_22__cxx_atomic_base_implIbEEEC2B8ue170006Eb, symObjAddr: 0x115CC, symBinAddr: 0x100015640, symSize: 0x40 }
  - { offsetInCU: 0x432D6, offset: 0x432D6, size: 0x8, addend: 0x0, symName: __ZNSt3__122__cxx_atomic_base_implIbEC2Eb, symObjAddr: 0x1160C, symBinAddr: 0x100015680, symSize: 0x2C }
  - { offsetInCU: 0x4330F, offset: 0x4330F, size: 0x8, addend: 0x0, symName: __ZN2ff10BufferPoolC2Eibm, symObjAddr: 0x11638, symBinAddr: 0x1000156AC, symSize: 0x1A8 }
  - { offsetInCU: 0x433B3, offset: 0x433B3, size: 0x8, addend: 0x0, symName: __ZN2ff8dynqueueC1Eib, symObjAddr: 0x117E0, symBinAddr: 0x100015854, symSize: 0x48 }
  - { offsetInCU: 0x433F9, offset: 0x433F9, size: 0x8, addend: 0x0, symName: __ZN2ff15SWSR_Ptr_BufferC1Emb, symObjAddr: 0x11828, symBinAddr: 0x10001589C, symSize: 0x48 }
  - { offsetInCU: 0x4343B, offset: 0x4343B, size: 0x8, addend: 0x0, symName: __ZN2ff15SWSR_Ptr_Buffer4initEb, symObjAddr: 0x11870, symBinAddr: 0x1000158E4, symSize: 0xE8 }
  - { offsetInCU: 0x4346F, offset: 0x4346F, size: 0x8, addend: 0x0, symName: __ZN2ff15SWSR_Ptr_Buffer4pushEPv, symObjAddr: 0x11958, symBinAddr: 0x1000159CC, symSize: 0x114 }
  - { offsetInCU: 0x434A3, offset: 0x434A3, size: 0x8, addend: 0x0, symName: __ZN2ff15SWSR_Ptr_BufferD1Ev, symObjAddr: 0x11A6C, symBinAddr: 0x100015AE0, symSize: 0x2C }
  - { offsetInCU: 0x434CD, offset: 0x434CD, size: 0x8, addend: 0x0, symName: __ZN2ff8dynqueueD1Ev, symObjAddr: 0x11A98, symBinAddr: 0x100015B0C, symSize: 0x2C }
  - { offsetInCU: 0x434F7, offset: 0x434F7, size: 0x8, addend: 0x0, symName: __ZN2ff8dynqueueC2Eib, symObjAddr: 0x11AC4, symBinAddr: 0x100015B38, symSize: 0x1FC }
  - { offsetInCU: 0x43567, offset: 0x43567, size: 0x8, addend: 0x0, symName: __ZN2ff15SWSR_Ptr_BufferC2Emb, symObjAddr: 0x11CC0, symBinAddr: 0x100015D34, symSize: 0x54 }
  - { offsetInCU: 0x435A9, offset: 0x435A9, size: 0x8, addend: 0x0, symName: __ZN2ff15SWSR_Ptr_Buffer3popEPPv, symObjAddr: 0x11D14, symBinAddr: 0x100015D88, symSize: 0x7C }
  - { offsetInCU: 0x435DE, offset: 0x435DE, size: 0x8, addend: 0x0, symName: __ZN2ff15SWSR_Ptr_Buffer5emptyEv, symObjAddr: 0x11D90, symBinAddr: 0x100015E04, symSize: 0x2C }
  - { offsetInCU: 0x43604, offset: 0x43604, size: 0x8, addend: 0x0, symName: __ZN2ff15SWSR_Ptr_Buffer3incEv, symObjAddr: 0x11DBC, symBinAddr: 0x100015E30, symSize: 0x8C }
  - { offsetInCU: 0x43629, offset: 0x43629, size: 0x8, addend: 0x0, symName: __ZL16getAlignedMemorymm, symObjAddr: 0x11E48, symBinAddr: 0x100015EBC, symSize: 0x58 }
  - { offsetInCU: 0x43672, offset: 0x43672, size: 0x8, addend: 0x0, symName: __ZN2ff15SWSR_Ptr_Buffer5resetEb, symObjAddr: 0x11EA0, symBinAddr: 0x100015F14, symSize: 0xE0 }
  - { offsetInCU: 0x436C4, offset: 0x436C4, size: 0x8, addend: 0x0, symName: __ZN2ff15SWSR_Ptr_Buffer9availableEv, symObjAddr: 0x11F80, symBinAddr: 0x100015FF4, symSize: 0x2C }
  - { offsetInCU: 0x436EA, offset: 0x436EA, size: 0x8, addend: 0x0, symName: __ZN2ff15SWSR_Ptr_BufferD2Ev, symObjAddr: 0x11FAC, symBinAddr: 0x100016020, symSize: 0x38 }
  - { offsetInCU: 0x43713, offset: 0x43713, size: 0x8, addend: 0x0, symName: __ZL17freeAlignedMemoryPv, symObjAddr: 0x11FE4, symBinAddr: 0x100016058, symSize: 0x3C }
  - { offsetInCU: 0x4373C, offset: 0x4373C, size: 0x8, addend: 0x0, symName: __ZN2ff8dynqueueD2Ev, symObjAddr: 0x12020, symBinAddr: 0x100016094, symSize: 0x114 }
  - { offsetInCU: 0x4379A, offset: 0x4379A, size: 0x8, addend: 0x0, symName: __ZNK2ff15SWSR_Ptr_Buffer10buffersizeEv, symObjAddr: 0x12134, symBinAddr: 0x1000161A8, symSize: 0x18 }
  - { offsetInCU: 0x437C0, offset: 0x437C0, size: 0x8, addend: 0x0, symName: __ZN2ff16uSWSR_Ptr_Buffer9availableEv, symObjAddr: 0x1214C, symBinAddr: 0x1000161C0, symSize: 0x2C }
  - { offsetInCU: 0x437E6, offset: 0x437E6, size: 0x8, addend: 0x0, symName: __ZN2ff10BufferPool6next_wEm, symObjAddr: 0x12178, symBinAddr: 0x1000161EC, symSize: 0x9C }
  - { offsetInCU: 0x43847, offset: 0x43847, size: 0x8, addend: 0x0, symName: __ZN2ff8dynqueue4pushEPv, symObjAddr: 0x12214, symBinAddr: 0x100016288, symSize: 0xA4 }
  - { offsetInCU: 0x43889, offset: 0x43889, size: 0x8, addend: 0x0, symName: __ZN2ff8dynqueue9allocnodeEv, symObjAddr: 0x122B8, symBinAddr: 0x10001632C, symSize: 0x5C }
  - { offsetInCU: 0x438DC, offset: 0x438DC, size: 0x8, addend: 0x0, symName: __ZN2ff10BufferPool6next_rEv, symObjAddr: 0x12314, symBinAddr: 0x100016388, symSize: 0x4C }
  - { offsetInCU: 0x4392F, offset: 0x4392F, size: 0x8, addend: 0x0, symName: __ZN2ff10BufferPool7releaseEPNS_15SWSR_Ptr_BufferE, symObjAddr: 0x12360, symBinAddr: 0x1000163D4, symSize: 0x64 }
  - { offsetInCU: 0x43963, offset: 0x43963, size: 0x8, addend: 0x0, symName: __ZN2ff8dynqueue3popEPPv, symObjAddr: 0x123C4, symBinAddr: 0x100016438, symSize: 0xF8 }
  - { offsetInCU: 0x439B3, offset: 0x439B3, size: 0x8, addend: 0x0, symName: __ZN2ff10BufferPoolD2Ev, symObjAddr: 0x124BC, symBinAddr: 0x100016530, symSize: 0xC0 }
  - { offsetInCU: 0x43A11, offset: 0x43A11, size: 0x8, addend: 0x0, symName: __ZN2ff7ff_node8thWorkerC1EPS0_l, symObjAddr: 0x1257C, symBinAddr: 0x1000165F0, symSize: 0x3C }
  - { offsetInCU: 0x43A59, offset: 0x43A59, size: 0x8, addend: 0x0, symName: __ZN2ff7ff_node8thWorkerC2EPS0_l, symObjAddr: 0x125B8, symBinAddr: 0x10001662C, symSize: 0x70 }
  - { offsetInCU: 0x43AA1, offset: 0x43AA1, size: 0x8, addend: 0x0, symName: __ZN2ff9ff_threadC2EPNS_11spinBarrierEb, symObjAddr: 0x12628, symBinAddr: 0x10001669C, symSize: 0x114 }
  - { offsetInCU: 0x43AE7, offset: 0x43AE7, size: 0x8, addend: 0x0, symName: __ZN2ff7ff_node8thWorkerD1Ev, symObjAddr: 0x1273C, symBinAddr: 0x1000167B0, symSize: 0x2C }
  - { offsetInCU: 0x43B14, offset: 0x43B14, size: 0x8, addend: 0x0, symName: __ZN2ff7ff_node8thWorkerD0Ev, symObjAddr: 0x12768, symBinAddr: 0x1000167DC, symSize: 0x30 }
  - { offsetInCU: 0x43B41, offset: 0x43B41, size: 0x8, addend: 0x0, symName: __ZN2ff7ff_node8thWorker3svcEPv, symObjAddr: 0x12798, symBinAddr: 0x10001680C, symSize: 0x3CC }
  - { offsetInCU: 0x43BEB, offset: 0x43BEB, size: 0x8, addend: 0x0, symName: __ZN2ff7ff_node8thWorker8svc_initEv, symObjAddr: 0x12B64, symBinAddr: 0x100016BD8, symSize: 0x48 }
  - { offsetInCU: 0x43C11, offset: 0x43C11, size: 0x8, addend: 0x0, symName: __ZN2ff7ff_node8thWorker7svc_endEv, symObjAddr: 0x12BAC, symBinAddr: 0x100016C20, symSize: 0x48 }
  - { offsetInCU: 0x43C37, offset: 0x43C37, size: 0x8, addend: 0x0, symName: __ZN2ff9ff_thread11set_barrierEPNS_11spinBarrierE, symObjAddr: 0x12BF4, symBinAddr: 0x100016C68, symSize: 0x20 }
  - { offsetInCU: 0x43C6C, offset: 0x43C6C, size: 0x8, addend: 0x0, symName: __ZNK2ff9ff_thread11get_barrierEv, symObjAddr: 0x12C14, symBinAddr: 0x100016C88, symSize: 0x18 }
  - { offsetInCU: 0x43C92, offset: 0x43C92, size: 0x8, addend: 0x0, symName: __ZN2ff9ff_thread10no_mappingEv, symObjAddr: 0x12C2C, symBinAddr: 0x100016CA0, symSize: 0x18 }
  - { offsetInCU: 0x43CB8, offset: 0x43CB8, size: 0x8, addend: 0x0, symName: __ZN2ff7ff_node8thWorker3runEb, symObjAddr: 0x12C44, symBinAddr: 0x100016CB8, symSize: 0x7C }
  - { offsetInCU: 0x43CF9, offset: 0x43CF9, size: 0x8, addend: 0x0, symName: __ZN2ff9ff_thread5spawnEi, symObjAddr: 0x12CC0, symBinAddr: 0x100016D34, symSize: 0x204 }
  - { offsetInCU: 0x43D4C, offset: 0x43D4C, size: 0x8, addend: 0x0, symName: __ZN2ff7ff_node8thWorker4waitEv, symObjAddr: 0x12EC4, symBinAddr: 0x100016F38, symSize: 0x24 }
  - { offsetInCU: 0x43D72, offset: 0x43D72, size: 0x8, addend: 0x0, symName: __ZN2ff7ff_node8thWorker13wait_freezingEv, symObjAddr: 0x12EE8, symBinAddr: 0x100016F5C, symSize: 0x24 }
  - { offsetInCU: 0x43D98, offset: 0x43D98, size: 0x8, addend: 0x0, symName: __ZN2ff9ff_thread4stopEv, symObjAddr: 0x12F0C, symBinAddr: 0x100016F80, symSize: 0x1C }
  - { offsetInCU: 0x43DBE, offset: 0x43DBE, size: 0x8, addend: 0x0, symName: __ZN2ff7ff_node8thWorker6freezeEv, symObjAddr: 0x12F28, symBinAddr: 0x100016F9C, symSize: 0x24 }
  - { offsetInCU: 0x43DE4, offset: 0x43DE4, size: 0x8, addend: 0x0, symName: __ZN2ff9ff_thread4thawEbl, symObjAddr: 0x12F4C, symBinAddr: 0x100016FC0, symSize: 0x80 }
  - { offsetInCU: 0x43E25, offset: 0x43E25, size: 0x8, addend: 0x0, symName: __ZNK2ff7ff_node8thWorker8isfrozenEv, symObjAddr: 0x12FCC, symBinAddr: 0x100017040, symSize: 0x28 }
  - { offsetInCU: 0x43E4B, offset: 0x43E4B, size: 0x8, addend: 0x0, symName: __ZNK2ff7ff_node8thWorker4doneEv, symObjAddr: 0x12FF4, symBinAddr: 0x100017068, symSize: 0x28 }
  - { offsetInCU: 0x43E71, offset: 0x43E71, size: 0x8, addend: 0x0, symName: __ZN2ff9ff_threadD1Ev, symObjAddr: 0x1301C, symBinAddr: 0x100017090, symSize: 0x14 }
  - { offsetInCU: 0x43E9B, offset: 0x43E9B, size: 0x8, addend: 0x0, symName: __ZN2ff9ff_threadD0Ev, symObjAddr: 0x13030, symBinAddr: 0x1000170A4, symSize: 0xC }
  - { offsetInCU: 0x43EC5, offset: 0x43EC5, size: 0x8, addend: 0x0, symName: __ZN2ff9ff_thread8svc_initEv, symObjAddr: 0x1303C, symBinAddr: 0x1000170B0, symSize: 0x14 }
  - { offsetInCU: 0x43EEB, offset: 0x43EEB, size: 0x8, addend: 0x0, symName: __ZN2ff9ff_thread7svc_endEv, symObjAddr: 0x13050, symBinAddr: 0x1000170C4, symSize: 0x10 }
  - { offsetInCU: 0x43F11, offset: 0x43F11, size: 0x8, addend: 0x0, symName: __ZN2ff9ff_thread3runEb, symObjAddr: 0x13060, symBinAddr: 0x1000170D4, symSize: 0x38 }
  - { offsetInCU: 0x43F43, offset: 0x43F43, size: 0x8, addend: 0x0, symName: __ZN2ff9ff_thread4waitEv, symObjAddr: 0x13098, symBinAddr: 0x10001710C, symSize: 0x140 }
  - { offsetInCU: 0x43F78, offset: 0x43F78, size: 0x8, addend: 0x0, symName: __ZN2ff9ff_thread13wait_freezingEv, symObjAddr: 0x131D8, symBinAddr: 0x10001724C, symSize: 0x78 }
  - { offsetInCU: 0x43F9E, offset: 0x43F9E, size: 0x8, addend: 0x0, symName: __ZN2ff9ff_thread6freezeEv, symObjAddr: 0x13250, symBinAddr: 0x1000172C4, symSize: 0x20 }
  - { offsetInCU: 0x43FC4, offset: 0x43FC4, size: 0x8, addend: 0x0, symName: __ZNK2ff9ff_thread8isfrozenEv, symObjAddr: 0x13270, symBinAddr: 0x1000172E4, symSize: 0x24 }
  - { offsetInCU: 0x43FEA, offset: 0x43FEA, size: 0x8, addend: 0x0, symName: __ZNK2ff9ff_thread4doneEv, symObjAddr: 0x13294, symBinAddr: 0x100017308, symSize: 0x6C }
  - { offsetInCU: 0x44010, offset: 0x44010, size: 0x8, addend: 0x0, symName: __ZNSt3__113__atomic_baseImLb1EEmmB8ue170006Ev, symObjAddr: 0x13300, symBinAddr: 0x100017374, symSize: 0x30 }
  - { offsetInCU: 0x44036, offset: 0x44036, size: 0x8, addend: 0x0, symName: __ZNSt3__113__atomic_baseImLb1EE9fetch_subB8ue170006EmNS_12memory_orderE, symObjAddr: 0x13330, symBinAddr: 0x1000173A4, symSize: 0x34 }
  - { offsetInCU: 0x44078, offset: 0x44078, size: 0x8, addend: 0x0, symName: __ZN2ff7ff_node8thWorkerD2Ev, symObjAddr: 0x13450, symBinAddr: 0x1000174C4, symSize: 0x2C }
  - { offsetInCU: 0x440A5, offset: 0x440A5, size: 0x8, addend: 0x0, symName: __ZN2ff9ff_threadD2Ev, symObjAddr: 0x1347C, symBinAddr: 0x1000174F0, symSize: 0x14 }
  - { offsetInCU: 0x440CF, offset: 0x440CF, size: 0x8, addend: 0x0, symName: __ZNK2ff7ff_node12skipfirstpopEv, symObjAddr: 0x13490, symBinAddr: 0x100017504, symSize: 0x1C }
  - { offsetInCU: 0x440F5, offset: 0x440F5, size: 0x8, addend: 0x0, symName: __ZN2ff7ff_node8thWorker3popEPPv, symObjAddr: 0x134AC, symBinAddr: 0x100017520, symSize: 0x44 }
  - { offsetInCU: 0x4412A, offset: 0x4412A, size: 0x8, addend: 0x0, symName: __ZN2ff7ff_node8thWorker4pushEPv, symObjAddr: 0x134F0, symBinAddr: 0x100017564, symSize: 0x48 }
  - { offsetInCU: 0x4415F, offset: 0x4415F, size: 0x8, addend: 0x0, symName: __ZN2ff7ff_node8setCPUIdEi, symObjAddr: 0x13538, symBinAddr: 0x1000175AC, symSize: 0x20 }
  - { offsetInCU: 0x44194, offset: 0x44194, size: 0x8, addend: 0x0, symName: __ZNSt3__113__atomic_baseImLb1EE9fetch_addB8ue170006EmNS_12memory_orderE, symObjAddr: 0x13570, symBinAddr: 0x1000175E4, symSize: 0x34 }
  - { offsetInCU: 0x441D6, offset: 0x441D6, size: 0x8, addend: 0x0, symName: __ZN2ff9ff_thread14thread_routineEv, symObjAddr: 0x136A4, symBinAddr: 0x100017718, symSize: 0x254 }
  - { offsetInCU: 0x4420A, offset: 0x4420A, size: 0x8, addend: 0x0, symName: __ZL14ff_getThreadIDv, symObjAddr: 0x138F8, symBinAddr: 0x10001796C, symSize: 0x8 }
  - { offsetInCU: 0x44228, offset: 0x44228, size: 0x8, addend: 0x0, symName: __ZN2ff9ff_thread21disable_cancelabilityEv, symObjAddr: 0x13900, symBinAddr: 0x100017974, symSize: 0x60 }
  - { offsetInCU: 0x4424E, offset: 0x4424E, size: 0x8, addend: 0x0, symName: __ZN2ff9ff_thread20enable_cancelabilityEv, symObjAddr: 0x13960, symBinAddr: 0x1000179D4, symSize: 0x60 }
  - { offsetInCU: 0x44274, offset: 0x44274, size: 0x8, addend: 0x0, symName: __ZN2ff7svectorIPNS_7ff_nodeEE9push_backERKS2_, symObjAddr: 0x139C0, symBinAddr: 0x100017A34, symSize: 0x78 }
  - { offsetInCU: 0x442A8, offset: 0x442A8, size: 0x8, addend: 0x0, symName: __ZN2ff7svectorIPNS_7ff_nodeEE7reserveEm, symObjAddr: 0x13A38, symBinAddr: 0x100017AAC, symSize: 0xAC }
  - { offsetInCU: 0x442DC, offset: 0x442DC, size: 0x8, addend: 0x0, symName: __ZN2ff15ff_loadbalancerC2Em, symObjAddr: 0x13AE4, symBinAddr: 0x100017B58, symSize: 0x1DC }
  - { offsetInCU: 0x44315, offset: 0x44315, size: 0x8, addend: 0x0, symName: __ZNSt3__15dequeIPN2ff7ff_nodeENS_9allocatorIS3_EEEC1B8ue170006Ev, symObjAddr: 0x13CC0, symBinAddr: 0x100017D34, symSize: 0x2C }
  - { offsetInCU: 0x4433F, offset: 0x4433F, size: 0x8, addend: 0x0, symName: __ZN2ff7svectorIbEC1Em, symObjAddr: 0x13CEC, symBinAddr: 0x100017D60, symSize: 0x34 }
  - { offsetInCU: 0x44377, offset: 0x44377, size: 0x8, addend: 0x0, symName: __ZN2ff7svectorIbED1Ev, symObjAddr: 0x13D20, symBinAddr: 0x100017D94, symSize: 0x2C }
  - { offsetInCU: 0x443A1, offset: 0x443A1, size: 0x8, addend: 0x0, symName: __ZNSt3__15dequeIPN2ff7ff_nodeENS_9allocatorIS3_EEED1B8ue170006Ev, symObjAddr: 0x13D4C, symBinAddr: 0x100017DC0, symSize: 0x2C }
  - { offsetInCU: 0x443CB, offset: 0x443CB, size: 0x8, addend: 0x0, symName: __ZN2ff15ff_loadbalancerD1Ev, symObjAddr: 0x13D78, symBinAddr: 0x100017DEC, symSize: 0x2C }
  - { offsetInCU: 0x443F5, offset: 0x443F5, size: 0x8, addend: 0x0, symName: __ZN2ff15ff_loadbalancerD0Ev, symObjAddr: 0x13DA4, symBinAddr: 0x100017E18, symSize: 0x30 }
  - { offsetInCU: 0x4441F, offset: 0x4441F, size: 0x8, addend: 0x0, symName: __ZN2ff15ff_loadbalancer3svcEPv, symObjAddr: 0x13DD4, symBinAddr: 0x100017E48, symSize: 0xC44 }
  - { offsetInCU: 0x4455F, offset: 0x4455F, size: 0x8, addend: 0x0, symName: __ZN2ff15ff_loadbalancer8svc_initEv, symObjAddr: 0x14A18, symBinAddr: 0x100018A8C, symSize: 0x88 }
  - { offsetInCU: 0x44585, offset: 0x44585, size: 0x8, addend: 0x0, symName: __ZN2ff15ff_loadbalancer7svc_endEv, symObjAddr: 0x14AA0, symBinAddr: 0x100018B14, symSize: 0x60 }
  - { offsetInCU: 0x445AB, offset: 0x445AB, size: 0x8, addend: 0x0, symName: __ZN2ff15ff_loadbalancer10no_mappingEv, symObjAddr: 0x14B00, symBinAddr: 0x100018B74, symSize: 0x18 }
  - { offsetInCU: 0x445D1, offset: 0x445D1, size: 0x8, addend: 0x0, symName: __ZN2ff15ff_loadbalancer3runEb, symObjAddr: 0x14B18, symBinAddr: 0x100018B8C, symSize: 0xA8 }
  - { offsetInCU: 0x44603, offset: 0x44603, size: 0x8, addend: 0x0, symName: __ZN2ff15ff_loadbalancer4waitEv, symObjAddr: 0x14BC0, symBinAddr: 0x100018C34, symSize: 0x118 }
  - { offsetInCU: 0x44655, offset: 0x44655, size: 0x8, addend: 0x0, symName: __ZN2ff15ff_loadbalancer13wait_freezingEv, symObjAddr: 0x14CD8, symBinAddr: 0x100018D4C, symSize: 0x110 }
  - { offsetInCU: 0x446A7, offset: 0x446A7, size: 0x8, addend: 0x0, symName: __ZN2ff15ff_loadbalancer4stopEv, symObjAddr: 0x14DE8, symBinAddr: 0x100018E5C, symSize: 0x90 }
  - { offsetInCU: 0x446EA, offset: 0x446EA, size: 0x8, addend: 0x0, symName: __ZN2ff15ff_loadbalancer6freezeEv, symObjAddr: 0x14E78, symBinAddr: 0x100018EEC, symSize: 0x84 }
  - { offsetInCU: 0x4472D, offset: 0x4472D, size: 0x8, addend: 0x0, symName: __ZN2ff15ff_loadbalancer4thawEbl, symObjAddr: 0x14EFC, symBinAddr: 0x100018F70, symSize: 0x110 }
  - { offsetInCU: 0x4478E, offset: 0x4478E, size: 0x8, addend: 0x0, symName: __ZN2ff15ff_loadbalancer10set_cons_cEP22_opaque_pthread_cond_t, symObjAddr: 0x1500C, symBinAddr: 0x100019080, symSize: 0xA8 }
  - { offsetInCU: 0x447C2, offset: 0x447C2, size: 0x8, addend: 0x0, symName: __ZN2ff15ff_loadbalancer10get_cons_cEv, symObjAddr: 0x150B4, symBinAddr: 0x100019128, symSize: 0x18 }
  - { offsetInCU: 0x447E8, offset: 0x447E8, size: 0x8, addend: 0x0, symName: __ZN2ff15ff_loadbalancer12selectworkerEv, symObjAddr: 0x150CC, symBinAddr: 0x100019140, symSize: 0x30 }
  - { offsetInCU: 0x4480E, offset: 0x4480E, size: 0x8, addend: 0x0, symName: __ZN2ff15ff_loadbalancer9nattemptsEv, symObjAddr: 0x150FC, symBinAddr: 0x100019170, symSize: 0x18 }
  - { offsetInCU: 0x44834, offset: 0x44834, size: 0x8, addend: 0x0, symName: __ZN2ff15ff_loadbalancer12losetime_outEm, symObjAddr: 0x15114, symBinAddr: 0x100019188, symSize: 0x28 }
  - { offsetInCU: 0x44868, offset: 0x44868, size: 0x8, addend: 0x0, symName: __ZN2ff15ff_loadbalancer11losetime_inEm, symObjAddr: 0x1513C, symBinAddr: 0x1000191B0, symSize: 0x28 }
  - { offsetInCU: 0x4489C, offset: 0x4489C, size: 0x8, addend: 0x0, symName: __ZN2ff15ff_loadbalancer13schedule_taskEPvmm, symObjAddr: 0x15164, symBinAddr: 0x1000191D8, symSize: 0x358 }
  - { offsetInCU: 0x4494F, offset: 0x4494F, size: 0x8, addend: 0x0, symName: __ZN2ff15ff_loadbalancer12collect_taskEPPvRNSt3__15dequeIPNS_7ff_nodeENS3_9allocatorIS6_EEEERNS3_16__deque_iteratorIS6_PS6_RS6_PSC_lLl512EEE, symObjAddr: 0x154BC, symBinAddr: 0x100019530, symSize: 0x478 }
  - { offsetInCU: 0x44A0B, offset: 0x44A0B, size: 0x8, addend: 0x0, symName: __ZN2ff15ff_loadbalancer14ff_send_out_toEPvimm, symObjAddr: 0x15934, symBinAddr: 0x1000199A8, symSize: 0x1EC }
  - { offsetInCU: 0x44AE4, offset: 0x44AE4, size: 0x8, addend: 0x0, symName: __ZN2ff15ff_loadbalancer14broadcast_taskEPv, symObjAddr: 0x15B20, symBinAddr: 0x100019B94, symSize: 0x41C }
  - { offsetInCU: 0x44BAF, offset: 0x44BAF, size: 0x8, addend: 0x0, symName: __ZN2ff15ff_loadbalancer11thawWorkersEbl, symObjAddr: 0x15F3C, symBinAddr: 0x100019FB0, symSize: 0x100 }
  - { offsetInCU: 0x44C10, offset: 0x44C10, size: 0x8, addend: 0x0, symName: __ZN2ff15ff_loadbalancer6ffTimeEv, symObjAddr: 0x1603C, symBinAddr: 0x10001A0B0, symSize: 0x30 }
  - { offsetInCU: 0x44C36, offset: 0x44C36, size: 0x8, addend: 0x0, symName: __ZN2ff15ff_loadbalancer7wffTimeEv, symObjAddr: 0x1606C, symBinAddr: 0x10001A0E0, symSize: 0x30 }
  - { offsetInCU: 0x44C5C, offset: 0x44C5C, size: 0x8, addend: 0x0, symName: __ZNK2ff15ff_loadbalancer12getstarttimeEv, symObjAddr: 0x1609C, symBinAddr: 0x10001A110, symSize: 0x18 }
  - { offsetInCU: 0x44C82, offset: 0x44C82, size: 0x8, addend: 0x0, symName: __ZNK2ff15ff_loadbalancer11getstoptimeEv, symObjAddr: 0x160B4, symBinAddr: 0x10001A128, symSize: 0x18 }
  - { offsetInCU: 0x44CA8, offset: 0x44CA8, size: 0x8, addend: 0x0, symName: __ZNK2ff15ff_loadbalancer12getwstartimeEv, symObjAddr: 0x160CC, symBinAddr: 0x10001A140, symSize: 0x18 }
  - { offsetInCU: 0x44CCE, offset: 0x44CCE, size: 0x8, addend: 0x0, symName: __ZNK2ff15ff_loadbalancer12getwstoptimeEv, symObjAddr: 0x160E4, symBinAddr: 0x10001A158, symSize: 0x18 }
  - { offsetInCU: 0x44CF4, offset: 0x44CF4, size: 0x8, addend: 0x0, symName: __ZNSt3__15dequeIPN2ff7ff_nodeENS_9allocatorIS3_EEEC2B8ue170006Ev, symObjAddr: 0x160FC, symBinAddr: 0x10001A170, symSize: 0x5C }
  - { offsetInCU: 0x44D1E, offset: 0x44D1E, size: 0x8, addend: 0x0, symName: __ZNSt3__114__split_bufferIPPN2ff7ff_nodeENS_9allocatorIS4_EEEC1B8ue170006Ev, symObjAddr: 0x16158, symBinAddr: 0x10001A1CC, symSize: 0x2C }
  - { offsetInCU: 0x44D4E, offset: 0x44D4E, size: 0x8, addend: 0x0, symName: __ZNSt3__117__compressed_pairImNS_9allocatorIPN2ff7ff_nodeEEEEC1B8ue170006IiNS_18__default_init_tagEEEOT_OT0_, symObjAddr: 0x16184, symBinAddr: 0x10001A1F8, symSize: 0x3C }
  - { offsetInCU: 0x44DA6, offset: 0x44DA6, size: 0x8, addend: 0x0, symName: __ZNKSt3__15dequeIPN2ff7ff_nodeENS_9allocatorIS3_EEE14__annotate_newB8ue170006Em, symObjAddr: 0x161C0, symBinAddr: 0x10001A234, symSize: 0xC8 }
  - { offsetInCU: 0x44DDB, offset: 0x44DDB, size: 0x8, addend: 0x0, symName: __ZNSt3__114__split_bufferIPPN2ff7ff_nodeENS_9allocatorIS4_EEEC2B8ue170006Ev, symObjAddr: 0x16288, symBinAddr: 0x10001A2FC, symSize: 0x50 }
  - { offsetInCU: 0x44E05, offset: 0x44E05, size: 0x8, addend: 0x0, symName: __ZNSt3__117__compressed_pairIPPPN2ff7ff_nodeENS_9allocatorIS4_EEEC1B8ue170006IDnNS_18__default_init_tagEEEOT_OT0_, symObjAddr: 0x162D8, symBinAddr: 0x10001A34C, symSize: 0x3C }
  - { offsetInCU: 0x44E5D, offset: 0x44E5D, size: 0x8, addend: 0x0, symName: __ZNSt3__117__compressed_pairIPPPN2ff7ff_nodeENS_9allocatorIS4_EEEC2B8ue170006IDnNS_18__default_init_tagEEEOT_OT0_, symObjAddr: 0x16314, symBinAddr: 0x10001A388, symSize: 0x40 }
  - { offsetInCU: 0x44EB5, offset: 0x44EB5, size: 0x8, addend: 0x0, symName: __ZNSt3__122__compressed_pair_elemIPPPN2ff7ff_nodeELi0ELb0EEC2B8ue170006IDnvEEOT_, symObjAddr: 0x16354, symBinAddr: 0x10001A3C8, symSize: 0x1C }
  - { offsetInCU: 0x44EF7, offset: 0x44EF7, size: 0x8, addend: 0x0, symName: __ZNSt3__122__compressed_pair_elemINS_9allocatorIPPN2ff7ff_nodeEEELi1ELb1EEC2B8ue170006ENS_18__default_init_tagE, symObjAddr: 0x16370, symBinAddr: 0x10001A3E4, symSize: 0x2C }
  - { offsetInCU: 0x44F2B, offset: 0x44F2B, size: 0x8, addend: 0x0, symName: __ZNSt3__19allocatorIPPN2ff7ff_nodeEEC2B8ue170006Ev, symObjAddr: 0x1639C, symBinAddr: 0x10001A410, symSize: 0x2C }
  - { offsetInCU: 0x44F55, offset: 0x44F55, size: 0x8, addend: 0x0, symName: __ZNSt3__116__non_trivial_ifILb1ENS_9allocatorIPPN2ff7ff_nodeEEEEC2B8ue170006Ev, symObjAddr: 0x163C8, symBinAddr: 0x10001A43C, symSize: 0x14 }
  - { offsetInCU: 0x44F7F, offset: 0x44F7F, size: 0x8, addend: 0x0, symName: __ZNSt3__117__compressed_pairImNS_9allocatorIPN2ff7ff_nodeEEEEC2B8ue170006IiNS_18__default_init_tagEEEOT_OT0_, symObjAddr: 0x163DC, symBinAddr: 0x10001A450, symSize: 0x40 }
  - { offsetInCU: 0x44FD7, offset: 0x44FD7, size: 0x8, addend: 0x0, symName: __ZNSt3__122__compressed_pair_elemImLi0ELb0EEC2B8ue170006IivEEOT_, symObjAddr: 0x1641C, symBinAddr: 0x10001A490, symSize: 0x24 }
  - { offsetInCU: 0x45019, offset: 0x45019, size: 0x8, addend: 0x0, symName: __ZNKSt3__15dequeIPN2ff7ff_nodeENS_9allocatorIS3_EEE18__annotate_from_toB8ue170006EmmNS6_22__asan_annotation_typeENS6_23__asan_annotation_placeE, symObjAddr: 0x16440, symBinAddr: 0x10001A4B4, symSize: 0x580 }
  - { offsetInCU: 0x451D5, offset: 0x451D5, size: 0x8, addend: 0x0, symName: __ZNKSt3__114__split_bufferIPPN2ff7ff_nodeENS_9allocatorIS4_EEE4sizeB8ue170006Ev, symObjAddr: 0x169C0, symBinAddr: 0x10001AA34, symSize: 0x28 }
  - { offsetInCU: 0x451FB, offset: 0x451FB, size: 0x8, addend: 0x0, symName: __ZNKSt3__114__split_bufferIPPN2ff7ff_nodeENS_9allocatorIS4_EEE5beginB8ue170006Ev, symObjAddr: 0x169E8, symBinAddr: 0x10001AA5C, symSize: 0x18 }
  - { offsetInCU: 0x45221, offset: 0x45221, size: 0x8, addend: 0x0, symName: __ZNKSt3__15dequeIPN2ff7ff_nodeENS_9allocatorIS3_EEE4sizeB8ue170006Ev, symObjAddr: 0x16A00, symBinAddr: 0x10001AA74, symSize: 0x28 }
  - { offsetInCU: 0x45247, offset: 0x45247, size: 0x8, addend: 0x0, symName: __ZNKSt3__15dequeIPN2ff7ff_nodeENS_9allocatorIS3_EEE5emptyB8ue170006Ev, symObjAddr: 0x16A28, symBinAddr: 0x10001AA9C, symSize: 0x30 }
  - { offsetInCU: 0x4526D, offset: 0x4526D, size: 0x8, addend: 0x0, symName: __ZNKSt3__15dequeIPN2ff7ff_nodeENS_9allocatorIS3_EEE44__annotate_double_ended_contiguous_containerB8ue170006EPKvS8_S8_S8_S8_S8_, symObjAddr: 0x16A58, symBinAddr: 0x10001AACC, symSize: 0x28 }
  - { offsetInCU: 0x452DB, offset: 0x452DB, size: 0x8, addend: 0x0, symName: __ZNKSt3__15dequeIPN2ff7ff_nodeENS_9allocatorIS3_EEE6__sizeB8ue170006Ev, symObjAddr: 0x16A80, symBinAddr: 0x10001AAF4, symSize: 0x28 }
  - { offsetInCU: 0x45301, offset: 0x45301, size: 0x8, addend: 0x0, symName: __ZNKSt3__117__compressed_pairImNS_9allocatorIPN2ff7ff_nodeEEEE5firstB8ue170006Ev, symObjAddr: 0x16AA8, symBinAddr: 0x10001AB1C, symSize: 0x24 }
  - { offsetInCU: 0x45327, offset: 0x45327, size: 0x8, addend: 0x0, symName: __ZNKSt3__122__compressed_pair_elemImLi0ELb0EE5__getB8ue170006Ev, symObjAddr: 0x16ACC, symBinAddr: 0x10001AB40, symSize: 0x14 }
  - { offsetInCU: 0x4534D, offset: 0x4534D, size: 0x8, addend: 0x0, symName: __ZN2ff7svectorIbEC2Em, symObjAddr: 0x16AE0, symBinAddr: 0x10001AB54, symSize: 0x80 }
  - { offsetInCU: 0x45385, offset: 0x45385, size: 0x8, addend: 0x0, symName: __ZN2ff7svectorIbE7reserveEm, symObjAddr: 0x16B60, symBinAddr: 0x10001ABD4, symSize: 0xAC }
  - { offsetInCU: 0x453B9, offset: 0x453B9, size: 0x8, addend: 0x0, symName: __ZN2ff7svectorIbED2Ev, symObjAddr: 0x16C0C, symBinAddr: 0x10001AC80, symSize: 0x70 }
  - { offsetInCU: 0x453E3, offset: 0x453E3, size: 0x8, addend: 0x0, symName: __ZN2ff7svectorIbE5clearEv, symObjAddr: 0x16C7C, symBinAddr: 0x10001ACF0, symSize: 0x4C }
  - { offsetInCU: 0x45409, offset: 0x45409, size: 0x8, addend: 0x0, symName: __ZNK2ff7svectorIbE4sizeEv, symObjAddr: 0x16CC8, symBinAddr: 0x10001AD3C, symSize: 0x18 }
  - { offsetInCU: 0x4542F, offset: 0x4542F, size: 0x8, addend: 0x0, symName: __ZN2ff7svectorIbE8pop_backEv, symObjAddr: 0x16CE0, symBinAddr: 0x10001AD54, symSize: 0x20 }
  - { offsetInCU: 0x45455, offset: 0x45455, size: 0x8, addend: 0x0, symName: __ZNSt3__15dequeIPN2ff7ff_nodeENS_9allocatorIS3_EEED2B8ue170006Ev, symObjAddr: 0x16D00, symBinAddr: 0x10001AD74, symSize: 0xA4 }
  - { offsetInCU: 0x454AB, offset: 0x454AB, size: 0x8, addend: 0x0, symName: __ZNSt3__15dequeIPN2ff7ff_nodeENS_9allocatorIS3_EEE5clearEv, symObjAddr: 0x16DA4, symBinAddr: 0x10001AE18, symSize: 0x180 }
  - { offsetInCU: 0x45507, offset: 0x45507, size: 0x8, addend: 0x0, symName: __ZNKSt3__15dequeIPN2ff7ff_nodeENS_9allocatorIS3_EEE17__annotate_deleteB8ue170006Ev, symObjAddr: 0x16F24, symBinAddr: 0x10001AF98, symSize: 0xE8 }
  - { offsetInCU: 0x4554A, offset: 0x4554A, size: 0x8, addend: 0x0, symName: __ZNSt3__114__split_bufferIPPN2ff7ff_nodeENS_9allocatorIS4_EEE5beginB8ue170006Ev, symObjAddr: 0x1700C, symBinAddr: 0x10001B080, symSize: 0x18 }
  - { offsetInCU: 0x45570, offset: 0x45570, size: 0x8, addend: 0x0, symName: __ZNSt3__114__split_bufferIPPN2ff7ff_nodeENS_9allocatorIS4_EEE3endB8ue170006Ev, symObjAddr: 0x17024, symBinAddr: 0x10001B098, symSize: 0x18 }
  - { offsetInCU: 0x45596, offset: 0x45596, size: 0x8, addend: 0x0, symName: __ZNSt3__15dequeIPN2ff7ff_nodeENS_9allocatorIS3_EEE7__allocB8ue170006Ev, symObjAddr: 0x1703C, symBinAddr: 0x10001B0B0, symSize: 0x28 }
  - { offsetInCU: 0x455BC, offset: 0x455BC, size: 0x8, addend: 0x0, symName: __ZNSt3__114__split_bufferIPPN2ff7ff_nodeENS_9allocatorIS4_EEED1Ev, symObjAddr: 0x17064, symBinAddr: 0x10001B0D8, symSize: 0x2C }
  - { offsetInCU: 0x455E8, offset: 0x455E8, size: 0x8, addend: 0x0, symName: __ZNSt3__15dequeIPN2ff7ff_nodeENS_9allocatorIS3_EEE5beginB8ue170006Ev, symObjAddr: 0x17090, symBinAddr: 0x10001B104, symSize: 0xB8 }
  - { offsetInCU: 0x4561D, offset: 0x4561D, size: 0x8, addend: 0x0, symName: __ZNSt3__15dequeIPN2ff7ff_nodeENS_9allocatorIS3_EEE3endB8ue170006Ev, symObjAddr: 0x17148, symBinAddr: 0x10001B1BC, symSize: 0xBC }
  - { offsetInCU: 0x45661, offset: 0x45661, size: 0x8, addend: 0x0, symName: __ZNKSt3__116__deque_iteratorIPN2ff7ff_nodeEPS3_RS3_PS4_lLl512EEdeB8ue170006Ev, symObjAddr: 0x17238, symBinAddr: 0x10001B2AC, symSize: 0x18 }
  - { offsetInCU: 0x45687, offset: 0x45687, size: 0x8, addend: 0x0, symName: __ZNSt3__116__deque_iteratorIPN2ff7ff_nodeEPS3_RS3_PS4_lLl512EEppB8ue170006Ev, symObjAddr: 0x17250, symBinAddr: 0x10001B2C4, symSize: 0x70 }
  - { offsetInCU: 0x456AD, offset: 0x456AD, size: 0x8, addend: 0x0, symName: __ZNSt3__15dequeIPN2ff7ff_nodeENS_9allocatorIS3_EEE6__sizeB8ue170006Ev, symObjAddr: 0x172C0, symBinAddr: 0x10001B334, symSize: 0x28 }
  - { offsetInCU: 0x456D3, offset: 0x456D3, size: 0x8, addend: 0x0, symName: __ZNSt3__114__split_bufferIPPN2ff7ff_nodeENS_9allocatorIS4_EEE5frontB8ue170006Ev, symObjAddr: 0x172E8, symBinAddr: 0x10001B35C, symSize: 0x18 }
  - { offsetInCU: 0x456F9, offset: 0x456F9, size: 0x8, addend: 0x0, symName: __ZNSt3__114__split_bufferIPPN2ff7ff_nodeENS_9allocatorIS4_EEE9pop_frontB8ue170006Ev, symObjAddr: 0x17300, symBinAddr: 0x10001B374, symSize: 0x2C }
  - { offsetInCU: 0x4571F, offset: 0x4571F, size: 0x8, addend: 0x0, symName: __ZNKSt3__114__split_bufferIPPN2ff7ff_nodeENS_9allocatorIS4_EEE5emptyB8ue170006Ev, symObjAddr: 0x1732C, symBinAddr: 0x10001B3A0, symSize: 0x28 }
  - { offsetInCU: 0x45745, offset: 0x45745, size: 0x8, addend: 0x0, symName: __ZNSt3__116__deque_iteratorIPN2ff7ff_nodeEPS3_RS3_PS4_lLl512EEC1B8ue170006ES6_S4_, symObjAddr: 0x17354, symBinAddr: 0x10001B3C8, symSize: 0x3C }
  - { offsetInCU: 0x4578D, offset: 0x4578D, size: 0x8, addend: 0x0, symName: __ZNSt3__116__deque_iteratorIPN2ff7ff_nodeEPS3_RS3_PS4_lLl512EEC2B8ue170006ES6_S4_, symObjAddr: 0x17390, symBinAddr: 0x10001B404, symSize: 0x2C }
  - { offsetInCU: 0x457D5, offset: 0x457D5, size: 0x8, addend: 0x0, symName: __ZNSt3__117__compressed_pairImNS_9allocatorIPN2ff7ff_nodeEEEE5firstB8ue170006Ev, symObjAddr: 0x173EC, symBinAddr: 0x10001B460, symSize: 0x24 }
  - { offsetInCU: 0x457FB, offset: 0x457FB, size: 0x8, addend: 0x0, symName: __ZNSt3__122__compressed_pair_elemImLi0ELb0EE5__getB8ue170006Ev, symObjAddr: 0x17410, symBinAddr: 0x10001B484, symSize: 0x14 }
  - { offsetInCU: 0x45821, offset: 0x45821, size: 0x8, addend: 0x0, symName: __ZNSt3__114__split_bufferIPPN2ff7ff_nodeENS_9allocatorIS4_EEE19__destruct_at_beginB8ue170006EPS4_, symObjAddr: 0x17424, symBinAddr: 0x10001B498, symSize: 0x2C }
  - { offsetInCU: 0x45855, offset: 0x45855, size: 0x8, addend: 0x0, symName: __ZNSt3__114__split_bufferIPPN2ff7ff_nodeENS_9allocatorIS4_EEE19__destruct_at_beginEPS4_NS_17integral_constantIbLb1EEE, symObjAddr: 0x17450, symBinAddr: 0x10001B4C4, symSize: 0x20 }
  - { offsetInCU: 0x45895, offset: 0x45895, size: 0x8, addend: 0x0, symName: __ZNKSt3__15dequeIPN2ff7ff_nodeENS_9allocatorIS3_EEE22__annotate_whole_blockB8ue170006EmNS6_22__asan_annotation_typeE, symObjAddr: 0x17470, symBinAddr: 0x10001B4E4, symSize: 0xAC }
  - { offsetInCU: 0x45906, offset: 0x45906, size: 0x8, addend: 0x0, symName: __ZNKSt3__15dequeIPN2ff7ff_nodeENS_9allocatorIS3_EEE23__annotate_poison_blockB8ue170006EPKvS8_, symObjAddr: 0x1751C, symBinAddr: 0x10001B590, symSize: 0x44 }
  - { offsetInCU: 0x4594A, offset: 0x4594A, size: 0x8, addend: 0x0, symName: __ZNSt3__117__compressed_pairImNS_9allocatorIPN2ff7ff_nodeEEEE6secondB8ue170006Ev, symObjAddr: 0x17560, symBinAddr: 0x10001B5D4, symSize: 0x24 }
  - { offsetInCU: 0x45970, offset: 0x45970, size: 0x8, addend: 0x0, symName: __ZNSt3__114__split_bufferIPPN2ff7ff_nodeENS_9allocatorIS4_EEED2Ev, symObjAddr: 0x17584, symBinAddr: 0x10001B5F8, symSize: 0x8C }
  - { offsetInCU: 0x4599C, offset: 0x4599C, size: 0x8, addend: 0x0, symName: __ZNSt3__114__split_bufferIPPN2ff7ff_nodeENS_9allocatorIS4_EEE5clearB8ue170006Ev, symObjAddr: 0x17610, symBinAddr: 0x10001B684, symSize: 0x28 }
  - { offsetInCU: 0x459C2, offset: 0x459C2, size: 0x8, addend: 0x0, symName: __ZNSt3__116allocator_traitsINS_9allocatorIPPN2ff7ff_nodeEEEE10deallocateB8ue170006ERS6_PS5_m, symObjAddr: 0x17638, symBinAddr: 0x10001B6AC, symSize: 0x34 }
  - { offsetInCU: 0x45A04, offset: 0x45A04, size: 0x8, addend: 0x0, symName: __ZNSt3__114__split_bufferIPPN2ff7ff_nodeENS_9allocatorIS4_EEE7__allocB8ue170006Ev, symObjAddr: 0x1766C, symBinAddr: 0x10001B6E0, symSize: 0x28 }
  - { offsetInCU: 0x45A2A, offset: 0x45A2A, size: 0x8, addend: 0x0, symName: __ZNKSt3__114__split_bufferIPPN2ff7ff_nodeENS_9allocatorIS4_EEE8capacityB8ue170006Ev, symObjAddr: 0x17694, symBinAddr: 0x10001B708, symSize: 0x40 }
  - { offsetInCU: 0x45A50, offset: 0x45A50, size: 0x8, addend: 0x0, symName: __ZNSt3__114__split_bufferIPPN2ff7ff_nodeENS_9allocatorIS4_EEE17__destruct_at_endB8ue170006EPS4_, symObjAddr: 0x176D4, symBinAddr: 0x10001B748, symSize: 0x2C }
  - { offsetInCU: 0x45A84, offset: 0x45A84, size: 0x8, addend: 0x0, symName: __ZNSt3__114__split_bufferIPPN2ff7ff_nodeENS_9allocatorIS4_EEE17__destruct_at_endB8ue170006EPS4_NS_17integral_constantIbLb0EEE, symObjAddr: 0x17700, symBinAddr: 0x10001B774, symSize: 0x80 }
  - { offsetInCU: 0x45AC4, offset: 0x45AC4, size: 0x8, addend: 0x0, symName: __ZNSt3__116allocator_traitsINS_9allocatorIPPN2ff7ff_nodeEEEE7destroyB8ue170006IS5_vvEEvRS6_PT_, symObjAddr: 0x17780, symBinAddr: 0x10001B7F4, symSize: 0x28 }
  - { offsetInCU: 0x45AFF, offset: 0x45AFF, size: 0x8, addend: 0x0, symName: __ZNSt3__19allocatorIPPN2ff7ff_nodeEE10deallocateB8ue170006EPS4_m, symObjAddr: 0x177F0, symBinAddr: 0x10001B864, symSize: 0x40 }
  - { offsetInCU: 0x45B41, offset: 0x45B41, size: 0x8, addend: 0x0, symName: __ZNSt3__117__compressed_pairIPPPN2ff7ff_nodeENS_9allocatorIS4_EEE6secondB8ue170006Ev, symObjAddr: 0x17830, symBinAddr: 0x10001B8A4, symSize: 0x24 }
  - { offsetInCU: 0x45B67, offset: 0x45B67, size: 0x8, addend: 0x0, symName: __ZNSt3__122__compressed_pair_elemINS_9allocatorIPPN2ff7ff_nodeEEELi1ELb1EE5__getB8ue170006Ev, symObjAddr: 0x17854, symBinAddr: 0x10001B8C8, symSize: 0x14 }
  - { offsetInCU: 0x45B8D, offset: 0x45B8D, size: 0x8, addend: 0x0, symName: __ZNKSt3__114__split_bufferIPPN2ff7ff_nodeENS_9allocatorIS4_EEE9__end_capB8ue170006Ev, symObjAddr: 0x17868, symBinAddr: 0x10001B8DC, symSize: 0x28 }
  - { offsetInCU: 0x45BB3, offset: 0x45BB3, size: 0x8, addend: 0x0, symName: __ZNKSt3__117__compressed_pairIPPPN2ff7ff_nodeENS_9allocatorIS4_EEE5firstB8ue170006Ev, symObjAddr: 0x17890, symBinAddr: 0x10001B904, symSize: 0x24 }
  - { offsetInCU: 0x45BD9, offset: 0x45BD9, size: 0x8, addend: 0x0, symName: __ZNKSt3__122__compressed_pair_elemIPPPN2ff7ff_nodeELi0ELb0EE5__getB8ue170006Ev, symObjAddr: 0x178B4, symBinAddr: 0x10001B928, symSize: 0x14 }
  - { offsetInCU: 0x45BFF, offset: 0x45BFF, size: 0x8, addend: 0x0, symName: __ZN2ff15ff_loadbalancerD2Ev, symObjAddr: 0x178C8, symBinAddr: 0x10001B93C, symSize: 0x1AC }
  - { offsetInCU: 0x45C29, offset: 0x45C29, size: 0x8, addend: 0x0, symName: __ZNK2ff15ff_loadbalancer13get_in_bufferEv, symObjAddr: 0x17A74, symBinAddr: 0x10001BAE8, symSize: 0x18 }
  - { offsetInCU: 0x45C4F, offset: 0x45C4F, size: 0x8, addend: 0x0, symName: __ZN2ff15ff_loadbalancer13set_in_bufferEPNS_16uSWSR_Ptr_BufferE, symObjAddr: 0x17A8C, symBinAddr: 0x10001BB00, symSize: 0x24 }
  - { offsetInCU: 0x45C84, offset: 0x45C84, size: 0x8, addend: 0x0, symName: __ZNK2ff7svectorIPNS_7ff_nodeEE4sizeEv, symObjAddr: 0x17AB0, symBinAddr: 0x10001BB24, symSize: 0x18 }
  - { offsetInCU: 0x45CAA, offset: 0x45CAA, size: 0x8, addend: 0x0, symName: __ZN2ff15ff_loadbalancer3popEPPv, symObjAddr: 0x17AC8, symBinAddr: 0x10001BB3C, symSize: 0x20C }
  - { offsetInCU: 0x45D19, offset: 0x45D19, size: 0x8, addend: 0x0, symName: __ZN2ff15ff_loadbalancer8push_eosEPv, symObjAddr: 0x17CD4, symBinAddr: 0x10001BD48, symSize: 0xEC }
  - { offsetInCU: 0x45D69, offset: 0x45D69, size: 0x8, addend: 0x0, symName: __ZN2ff15ff_loadbalancer9push_goonEv, symObjAddr: 0x17DC0, symBinAddr: 0x10001BE34, symSize: 0x3C }
  - { offsetInCU: 0x45D9D, offset: 0x45D9D, size: 0x8, addend: 0x0, symName: __ZNSt3__15dequeIPN2ff7ff_nodeENS_9allocatorIS3_EEE6resizeEm, symObjAddr: 0x17DFC, symBinAddr: 0x10001BE70, symSize: 0xE8 }
  - { offsetInCU: 0x45DD4, offset: 0x45DD4, size: 0x8, addend: 0x0, symName: __ZNSt3__15dequeIPN2ff7ff_nodeENS_9allocatorIS3_EEE9push_backERKS3_, symObjAddr: 0x17EE4, symBinAddr: 0x10001BF58, symSize: 0xAC }
  - { offsetInCU: 0x45E1A, offset: 0x45E1A, size: 0x8, addend: 0x0, symName: __ZN2ff7svectorIPNS_7ff_nodeEEixEm, symObjAddr: 0x17F90, symBinAddr: 0x10001C004, symSize: 0x44 }
  - { offsetInCU: 0x45E4F, offset: 0x45E4F, size: 0x8, addend: 0x0, symName: __ZN2ff7svectorIbEixEm, symObjAddr: 0x17FD4, symBinAddr: 0x10001C048, symSize: 0x44 }
  - { offsetInCU: 0x45E84, offset: 0x45E84, size: 0x8, addend: 0x0, symName: __ZNSt3__15dequeIPN2ff7ff_nodeENS_9allocatorIS3_EEE5eraseENS_16__deque_iteratorIS3_PKS3_RS8_PKS9_lLl512EEE, symObjAddr: 0x18018, symBinAddr: 0x10001C08C, symSize: 0x298 }
  - { offsetInCU: 0x45F43, offset: 0x45F43, size: 0x8, addend: 0x0, symName: __ZNSt3__116__deque_iteratorIPN2ff7ff_nodeEPKS3_RS4_PKS5_lLl512EEC1B8ue170006IPS3_RS3_PSB_EERKNS0_IS3_T_T0_T1_lLl512EEEPNS_9enable_ifIXsr14is_convertibleISE_S5_EE5valueEvE4typeE, symObjAddr: 0x182B0, symBinAddr: 0x10001C324, symSize: 0x3C }
  - { offsetInCU: 0x45FA3, offset: 0x45FA3, size: 0x8, addend: 0x0, symName: __ZN2ff15ff_loadbalancer10absorb_eosERNS_7svectorIPNS_7ff_nodeEEEm, symObjAddr: 0x182EC, symBinAddr: 0x10001C360, symSize: 0xF8 }
  - { offsetInCU: 0x46013, offset: 0x46013, size: 0x8, addend: 0x0, symName: __ZNSt3__15dequeIPN2ff7ff_nodeENS_9allocatorIS3_EEE8__appendEm, symObjAddr: 0x1847C, symBinAddr: 0x10001C4F0, symSize: 0x1F0 }
  - { offsetInCU: 0x460CC, offset: 0x460CC, size: 0x8, addend: 0x0, symName: __ZNSt3__15dequeIPN2ff7ff_nodeENS_9allocatorIS3_EEE14__erase_to_endENS_16__deque_iteratorIS3_PKS3_RS8_PKS9_lLl512EEE, symObjAddr: 0x1866C, symBinAddr: 0x10001C6E0, symSize: 0x194 }
  - { offsetInCU: 0x4619B, offset: 0x4619B, size: 0x8, addend: 0x0, symName: __ZNKSt3__116__deque_iteratorIPN2ff7ff_nodeEPS3_RS3_PS4_lLl512EEplB8ue170006El, symObjAddr: 0x18800, symBinAddr: 0x10001C874, symSize: 0x40 }
  - { offsetInCU: 0x461DF, offset: 0x461DF, size: 0x8, addend: 0x0, symName: __ZNKSt3__15dequeIPN2ff7ff_nodeENS_9allocatorIS3_EEE12__back_spareB8ue170006Ev, symObjAddr: 0x18840, symBinAddr: 0x10001C8B4, symSize: 0x54 }
  - { offsetInCU: 0x46205, offset: 0x46205, size: 0x8, addend: 0x0, symName: __ZNSt3__15dequeIPN2ff7ff_nodeENS_9allocatorIS3_EEE19__add_back_capacityEm, symObjAddr: 0x18894, symBinAddr: 0x10001C908, symSize: 0x63C }
  - { offsetInCU: 0x46307, offset: 0x46307, size: 0x8, addend: 0x0, symName: __ZNKSt3__15dequeIPN2ff7ff_nodeENS_9allocatorIS3_EEE24__annotate_increase_backB8ue170006Em, symObjAddr: 0x18ED0, symBinAddr: 0x10001CF44, symSize: 0x7C }
  - { offsetInCU: 0x46360, offset: 0x46360, size: 0x8, addend: 0x0, symName: __ZNSt3__15dequeIPN2ff7ff_nodeENS_9allocatorIS3_EEE13__deque_rangeC1B8ue170006ENS_16__deque_iteratorIS3_PS3_RS3_PS9_lLl512EEESC_, symObjAddr: 0x18F4C, symBinAddr: 0x10001CFC0, symSize: 0x4C }
  - { offsetInCU: 0x463A8, offset: 0x463A8, size: 0x8, addend: 0x0, symName: __ZNKSt3__15dequeIPN2ff7ff_nodeENS_9allocatorIS3_EEE13__deque_range5beginB8ue170006Ev, symObjAddr: 0x18F98, symBinAddr: 0x10001D00C, symSize: 0x24 }
  - { offsetInCU: 0x463CE, offset: 0x463CE, size: 0x8, addend: 0x0, symName: __ZNKSt3__15dequeIPN2ff7ff_nodeENS_9allocatorIS3_EEE13__deque_range3endB8ue170006Ev, symObjAddr: 0x18FBC, symBinAddr: 0x10001D030, symSize: 0x50 }
  - { offsetInCU: 0x463F4, offset: 0x463F4, size: 0x8, addend: 0x0, symName: __ZNKSt3__15dequeIPN2ff7ff_nodeENS_9allocatorIS3_EEE13__deque_rangedeB8ue170006Ev, symObjAddr: 0x19040, symBinAddr: 0x10001D0B4, symSize: 0x7C }
  - { offsetInCU: 0x4642F, offset: 0x4642F, size: 0x8, addend: 0x0, symName: __ZNSt3__15dequeIPN2ff7ff_nodeENS_9allocatorIS3_EEE21_ConstructTransactionC1B8ue170006EPS6_RNS6_19__deque_block_rangeE, symObjAddr: 0x190BC, symBinAddr: 0x10001D130, symSize: 0x3C }
  - { offsetInCU: 0x46477, offset: 0x46477, size: 0x8, addend: 0x0, symName: __ZNSt3__116allocator_traitsINS_9allocatorIPN2ff7ff_nodeEEEE9constructB8ue170006IS4_JEvvEEvRS5_PT_DpOT0_, symObjAddr: 0x190F8, symBinAddr: 0x10001D16C, symSize: 0x28 }
  - { offsetInCU: 0x464B7, offset: 0x464B7, size: 0x8, addend: 0x0, symName: __ZNSt3__15dequeIPN2ff7ff_nodeENS_9allocatorIS3_EEE21_ConstructTransactionD1B8ue170006Ev, symObjAddr: 0x19120, symBinAddr: 0x10001D194, symSize: 0x2C }
  - { offsetInCU: 0x464E1, offset: 0x464E1, size: 0x8, addend: 0x0, symName: __ZNSt3__15dequeIPN2ff7ff_nodeENS_9allocatorIS3_EEE13__deque_rangeppB8ue170006Ev, symObjAddr: 0x1914C, symBinAddr: 0x10001D1C0, symSize: 0x64 }
  - { offsetInCU: 0x46507, offset: 0x46507, size: 0x8, addend: 0x0, symName: __ZNKSt3__15dequeIPN2ff7ff_nodeENS_9allocatorIS3_EEE10__capacityB8ue170006Ev, symObjAddr: 0x191B0, symBinAddr: 0x10001D224, symSize: 0x60 }
  - { offsetInCU: 0x4652D, offset: 0x4652D, size: 0x8, addend: 0x0, symName: __ZNSt3__15dequeIPN2ff7ff_nodeENS_9allocatorIS3_EEE18__recommend_blocksB8ue170006Em, symObjAddr: 0x19210, symBinAddr: 0x10001D284, symSize: 0x40 }
  - { offsetInCU: 0x46551, offset: 0x46551, size: 0x8, addend: 0x0, symName: __ZNKSt3__15dequeIPN2ff7ff_nodeENS_9allocatorIS3_EEE13__front_spareB8ue170006Ev, symObjAddr: 0x19250, symBinAddr: 0x10001D2C4, symSize: 0x18 }
  - { offsetInCU: 0x46577, offset: 0x46577, size: 0x8, addend: 0x0, symName: __ZNSt3__114__split_bufferIPPN2ff7ff_nodeENS_9allocatorIS4_EEE9push_backB8ue170006ERKS4_, symObjAddr: 0x19268, symBinAddr: 0x10001D2DC, symSize: 0x260 }
  - { offsetInCU: 0x465F0, offset: 0x465F0, size: 0x8, addend: 0x0, symName: __ZNKSt3__114__split_bufferIPPN2ff7ff_nodeENS_9allocatorIS4_EEE12__back_spareB8ue170006Ev, symObjAddr: 0x194C8, symBinAddr: 0x10001D53C, symSize: 0x40 }
  - { offsetInCU: 0x46616, offset: 0x46616, size: 0x8, addend: 0x0, symName: __ZNSt3__114__split_bufferIPPN2ff7ff_nodeENS_9allocatorIS4_EEE9push_backEOS4_, symObjAddr: 0x19508, symBinAddr: 0x10001D57C, symSize: 0x260 }
  - { offsetInCU: 0x4668F, offset: 0x4668F, size: 0x8, addend: 0x0, symName: __ZNSt3__116allocator_traitsINS_9allocatorIPN2ff7ff_nodeEEEE8allocateB8ue170006ERS5_m, symObjAddr: 0x19768, symBinAddr: 0x10001D7DC, symSize: 0x2C }
  - { offsetInCU: 0x466C2, offset: 0x466C2, size: 0x8, addend: 0x0, symName: __ZNSt3__114__split_bufferIPPN2ff7ff_nodeENS_9allocatorIS4_EEE10push_frontEOS4_, symObjAddr: 0x19794, symBinAddr: 0x10001D808, symSize: 0x25C }
  - { offsetInCU: 0x4673B, offset: 0x4673B, size: 0x8, addend: 0x0, symName: __ZNSt3__114__split_bufferIPPN2ff7ff_nodeERNS_9allocatorIS4_EEEC1EmmS7_, symObjAddr: 0x199F0, symBinAddr: 0x10001DA64, symSize: 0x44 }
  - { offsetInCU: 0x46791, offset: 0x46791, size: 0x8, addend: 0x0, symName: __ZNSt3__114__split_bufferIPPN2ff7ff_nodeERNS_9allocatorIS4_EEE9push_backEOS4_, symObjAddr: 0x19A34, symBinAddr: 0x10001DAA8, symSize: 0x260 }
  - { offsetInCU: 0x4680A, offset: 0x4680A, size: 0x8, addend: 0x0, symName: __ZNSt3__114__split_bufferIPPN2ff7ff_nodeERNS_9allocatorIS4_EEE4backB8ue170006Ev, symObjAddr: 0x19C94, symBinAddr: 0x10001DD08, symSize: 0x1C }
  - { offsetInCU: 0x46830, offset: 0x46830, size: 0x8, addend: 0x0, symName: __ZNSt3__114__split_bufferIPPN2ff7ff_nodeERNS_9allocatorIS4_EEE5beginB8ue170006Ev, symObjAddr: 0x19CB0, symBinAddr: 0x10001DD24, symSize: 0x18 }
  - { offsetInCU: 0x46856, offset: 0x46856, size: 0x8, addend: 0x0, symName: __ZNSt3__114__split_bufferIPPN2ff7ff_nodeERNS_9allocatorIS4_EEE3endB8ue170006Ev, symObjAddr: 0x19CC8, symBinAddr: 0x10001DD3C, symSize: 0x18 }
  - { offsetInCU: 0x4687C, offset: 0x4687C, size: 0x8, addend: 0x0, symName: __ZNSt3__114__split_bufferIPPN2ff7ff_nodeERNS_9allocatorIS4_EEE9push_backB8ue170006ERKS4_, symObjAddr: 0x19CE0, symBinAddr: 0x10001DD54, symSize: 0x260 }
  - { offsetInCU: 0x468F5, offset: 0x468F5, size: 0x8, addend: 0x0, symName: __ZNSt3__114__split_bufferIPPN2ff7ff_nodeERNS_9allocatorIS4_EEE10push_frontERKS4_, symObjAddr: 0x19F40, symBinAddr: 0x10001DFB4, symSize: 0x25C }
  - { offsetInCU: 0x4696E, offset: 0x4696E, size: 0x8, addend: 0x0, symName: __ZNSt3__114__split_bufferIPPN2ff7ff_nodeENS_9allocatorIS4_EEE9__end_capB8ue170006Ev, symObjAddr: 0x1A1D8, symBinAddr: 0x10001E24C, symSize: 0x28 }
  - { offsetInCU: 0x46994, offset: 0x46994, size: 0x8, addend: 0x0, symName: __ZNSt3__114__split_bufferIPPN2ff7ff_nodeERNS_9allocatorIS4_EEE9__end_capB8ue170006Ev, symObjAddr: 0x1A200, symBinAddr: 0x10001E274, symSize: 0x28 }
  - { offsetInCU: 0x469BA, offset: 0x469BA, size: 0x8, addend: 0x0, symName: __ZNSt3__114__split_bufferIPPN2ff7ff_nodeERNS_9allocatorIS4_EEED1Ev, symObjAddr: 0x1A228, symBinAddr: 0x10001E29C, symSize: 0x2C }
  - { offsetInCU: 0x469E6, offset: 0x469E6, size: 0x8, addend: 0x0, symName: __ZNSt3__114__split_bufferIPPN2ff7ff_nodeERNS_9allocatorIS4_EEE18__construct_at_endINS_13move_iteratorIPS4_EEEENS_9enable_ifIXsr31__has_forward_iterator_categoryIT_EE5valueEvE4typeESE_SE_, symObjAddr: 0x1A294, symBinAddr: 0x10001E308, symSize: 0x60 }
  - { offsetInCU: 0x46A33, offset: 0x46A33, size: 0x8, addend: 0x0, symName: __ZNSt3__113move_iteratorIPPPN2ff7ff_nodeEEC1B8ue170006ES5_, symObjAddr: 0x1A2F4, symBinAddr: 0x10001E368, symSize: 0x34 }
  - { offsetInCU: 0x46A6B, offset: 0x46A6B, size: 0x8, addend: 0x0, symName: __ZNSt3__116allocator_traitsINS_9allocatorIPPN2ff7ff_nodeEEEE9constructB8ue170006IS5_JRKS5_EvvEEvRS6_PT_DpOT0_, symObjAddr: 0x1A328, symBinAddr: 0x10001E39C, symSize: 0x30 }
  - { offsetInCU: 0x46AE6, offset: 0x46AE6, size: 0x8, addend: 0x0, symName: __ZNKSt3__114__move_trivialclB8ue170006IPPN2ff7ff_nodeES5_Li0EEENS_4pairIPT_PT0_EES8_S8_SA_, symObjAddr: 0x1A4D0, symBinAddr: 0x10001E544, symSize: 0x48 }
  - { offsetInCU: 0x46B4F, offset: 0x46B4F, size: 0x8, addend: 0x0, symName: __ZNSt3__119__unwrap_range_implIPPPN2ff7ff_nodeES5_E8__unwrapB8ue170006ES5_S5_, symObjAddr: 0x1A5DC, symBinAddr: 0x10001E650, symSize: 0x58 }
  - { offsetInCU: 0x46B86, offset: 0x46B86, size: 0x8, addend: 0x0, symName: __ZNSt3__14pairIPPPN2ff7ff_nodeES5_EC1B8ue170006IS5_S5_LPv0EEEOT_OT0_, symObjAddr: 0x1A634, symBinAddr: 0x10001E6A8, symSize: 0x3C }
  - { offsetInCU: 0x46BE4, offset: 0x46BE4, size: 0x8, addend: 0x0, symName: __ZNSt3__14pairIPPPN2ff7ff_nodeES5_EC2B8ue170006IS5_S5_LPv0EEEOT_OT0_, symObjAddr: 0x1A670, symBinAddr: 0x10001E6E4, symSize: 0x34 }
  - { offsetInCU: 0x46C42, offset: 0x46C42, size: 0x8, addend: 0x0, symName: __ZNSt3__14pairIPPPN2ff7ff_nodeES5_EC1B8ue170006IRS5_S5_LPv0EEEOT_OT0_, symObjAddr: 0x1A7C0, symBinAddr: 0x10001E834, symSize: 0x3C }
  - { offsetInCU: 0x46CA0, offset: 0x46CA0, size: 0x8, addend: 0x0, symName: __ZNSt3__14pairIPPPN2ff7ff_nodeES5_EC2B8ue170006IRS5_S5_LPv0EEEOT_OT0_, symObjAddr: 0x1A7FC, symBinAddr: 0x10001E870, symSize: 0x34 }
  - { offsetInCU: 0x46CFE, offset: 0x46CFE, size: 0x8, addend: 0x0, symName: __ZNSt3__118__unwrap_iter_implIPPPN2ff7ff_nodeELb1EE8__unwrapB8ue170006ES5_, symObjAddr: 0x1A830, symBinAddr: 0x10001E8A4, symSize: 0x24 }
  - { offsetInCU: 0x46D21, offset: 0x46D21, size: 0x8, addend: 0x0, symName: __ZNSt3__119__unwrap_range_implIPPPN2ff7ff_nodeES5_E8__rewrapB8ue170006ES5_S5_, symObjAddr: 0x1A854, symBinAddr: 0x10001E8C8, symSize: 0x2C }
  - { offsetInCU: 0x46D52, offset: 0x46D52, size: 0x8, addend: 0x0, symName: __ZNSt3__118__unwrap_iter_implIPPPN2ff7ff_nodeELb1EE8__rewrapB8ue170006ES5_S5_, symObjAddr: 0x1A880, symBinAddr: 0x10001E8F4, symSize: 0x50 }
  - { offsetInCU: 0x46D83, offset: 0x46D83, size: 0x8, addend: 0x0, symName: __ZNSt3__114__split_bufferIPPN2ff7ff_nodeERNS_9allocatorIS4_EEE28__construct_at_end_with_sizeINS_13move_iteratorIPS4_EEEEvT_m, symObjAddr: 0x1A8D0, symBinAddr: 0x10001E944, symSize: 0xDC }
  - { offsetInCU: 0x46DE9, offset: 0x46DE9, size: 0x8, addend: 0x0, symName: __ZNSt3__114__split_bufferIPPN2ff7ff_nodeERNS_9allocatorIS4_EEE21_ConstructTransactionC1B8ue170006EPPS4_m, symObjAddr: 0x1A9E8, symBinAddr: 0x10001EA5C, symSize: 0x3C }
  - { offsetInCU: 0x46E35, offset: 0x46E35, size: 0x8, addend: 0x0, symName: __ZNSt3__116allocator_traitsINS_9allocatorIPPN2ff7ff_nodeEEEE9constructB8ue170006IS5_JS5_EvvEEvRS6_PT_DpOT0_, symObjAddr: 0x1AA24, symBinAddr: 0x10001EA98, symSize: 0x30 }
  - { offsetInCU: 0x46E8A, offset: 0x46E8A, size: 0x8, addend: 0x0, symName: __ZNSt3__114__split_bufferIPPN2ff7ff_nodeERNS_9allocatorIS4_EEE7__allocB8ue170006Ev, symObjAddr: 0x1AA54, symBinAddr: 0x10001EAC8, symSize: 0x28 }
  - { offsetInCU: 0x46EB0, offset: 0x46EB0, size: 0x8, addend: 0x0, symName: __ZNKSt3__113move_iteratorIPPPN2ff7ff_nodeEEdeB8ue170006Ev, symObjAddr: 0x1AA7C, symBinAddr: 0x10001EAF0, symSize: 0x2C }
  - { offsetInCU: 0x46ED6, offset: 0x46ED6, size: 0x8, addend: 0x0, symName: __ZNSt3__113move_iteratorIPPPN2ff7ff_nodeEEppB8ue170006Ev, symObjAddr: 0x1AAA8, symBinAddr: 0x10001EB1C, symSize: 0x20 }
  - { offsetInCU: 0x46EFC, offset: 0x46EFC, size: 0x8, addend: 0x0, symName: __ZNSt3__114__split_bufferIPPN2ff7ff_nodeERNS_9allocatorIS4_EEE21_ConstructTransactionD1B8ue170006Ev, symObjAddr: 0x1AAC8, symBinAddr: 0x10001EB3C, symSize: 0x2C }
  - { offsetInCU: 0x46F26, offset: 0x46F26, size: 0x8, addend: 0x0, symName: __ZNSt3__114__split_bufferIPPN2ff7ff_nodeERNS_9allocatorIS4_EEE21_ConstructTransactionC2B8ue170006EPPS4_m, symObjAddr: 0x1AAF4, symBinAddr: 0x10001EB68, symSize: 0x44 }
  - { offsetInCU: 0x46F6C, offset: 0x46F6C, size: 0x8, addend: 0x0, symName: __ZNSt3__117__compressed_pairIPPPN2ff7ff_nodeERNS_9allocatorIS4_EEE6secondB8ue170006Ev, symObjAddr: 0x1AB64, symBinAddr: 0x10001EBD8, symSize: 0x28 }
  - { offsetInCU: 0x46F92, offset: 0x46F92, size: 0x8, addend: 0x0, symName: __ZNSt3__122__compressed_pair_elemIRNS_9allocatorIPPN2ff7ff_nodeEEELi1ELb0EE5__getB8ue170006Ev, symObjAddr: 0x1AB8C, symBinAddr: 0x10001EC00, symSize: 0x18 }
  - { offsetInCU: 0x46FBD, offset: 0x46FBD, size: 0x8, addend: 0x0, symName: __ZNKSt3__16ranges11__iter_move4__fnclB8ue170006IRKPPPN2ff7ff_nodeEEEDTclsr3stdE4movedeclsr3stdE7forwardIT_Efp_EEEOSB_, symObjAddr: 0x1ABA4, symBinAddr: 0x10001EC18, symSize: 0x1C }
  - { offsetInCU: 0x46FFA, offset: 0x46FFA, size: 0x8, addend: 0x0, symName: __ZNSt3__114__split_bufferIPPN2ff7ff_nodeERNS_9allocatorIS4_EEE21_ConstructTransactionD2B8ue170006Ev, symObjAddr: 0x1ABC0, symBinAddr: 0x10001EC34, symSize: 0x20 }
  - { offsetInCU: 0x47024, offset: 0x47024, size: 0x8, addend: 0x0, symName: __ZNKRSt3__113move_iteratorIPPPN2ff7ff_nodeEE4baseB8ue170006Ev, symObjAddr: 0x1AC5C, symBinAddr: 0x10001ECD0, symSize: 0x14 }
  - { offsetInCU: 0x4704A, offset: 0x4704A, size: 0x8, addend: 0x0, symName: __ZNSt3__113move_iteratorIPPPN2ff7ff_nodeEEC2B8ue170006ES5_, symObjAddr: 0x1AC70, symBinAddr: 0x10001ECE4, symSize: 0x20 }
  - { offsetInCU: 0x4708C, offset: 0x4708C, size: 0x8, addend: 0x0, symName: __ZNKSt3__123__move_backward_trivialclB8ue170006IPPN2ff7ff_nodeES5_Li0EEENS_4pairIPT_PT0_EES8_S8_SA_, symObjAddr: 0x1AE38, symBinAddr: 0x10001EEAC, symSize: 0x48 }
  - { offsetInCU: 0x470F5, offset: 0x470F5, size: 0x8, addend: 0x0, symName: __ZNSt3__14pairIPPPN2ff7ff_nodeES5_EC1B8ue170006IRS5_S8_LPv0EEEOT_OT0_, symObjAddr: 0x1AF48, symBinAddr: 0x10001EFBC, symSize: 0x3C }
  - { offsetInCU: 0x47153, offset: 0x47153, size: 0x8, addend: 0x0, symName: __ZNSt3__14pairIPPPN2ff7ff_nodeES5_EC2B8ue170006IRS5_S8_LPv0EEEOT_OT0_, symObjAddr: 0x1AF84, symBinAddr: 0x10001EFF8, symSize: 0x34 }
  - { offsetInCU: 0x471B1, offset: 0x471B1, size: 0x8, addend: 0x0, symName: __ZNSt3__114__split_bufferIPPN2ff7ff_nodeERNS_9allocatorIS4_EEEC2EmmS7_, symObjAddr: 0x1AFB8, symBinAddr: 0x10001F02C, symSize: 0xD4 }
  - { offsetInCU: 0x47224, offset: 0x47224, size: 0x8, addend: 0x0, symName: __ZNSt3__117__compressed_pairIPPPN2ff7ff_nodeERNS_9allocatorIS4_EEEC1B8ue170006IDnS8_EEOT_OT0_, symObjAddr: 0x1B08C, symBinAddr: 0x10001F100, symSize: 0x3C }
  - { offsetInCU: 0x4727C, offset: 0x4727C, size: 0x8, addend: 0x0, symName: __ZNSt3__117__compressed_pairIPPPN2ff7ff_nodeERNS_9allocatorIS4_EEEC2B8ue170006IDnS8_EEOT_OT0_, symObjAddr: 0x1B108, symBinAddr: 0x10001F17C, symSize: 0x48 }
  - { offsetInCU: 0x472D4, offset: 0x472D4, size: 0x8, addend: 0x0, symName: __ZNSt3__122__compressed_pair_elemIRNS_9allocatorIPPN2ff7ff_nodeEEELi1ELb0EEC2B8ue170006IS7_vEEOT_, symObjAddr: 0x1B150, symBinAddr: 0x10001F1C4, symSize: 0x20 }
  - { offsetInCU: 0x47316, offset: 0x47316, size: 0x8, addend: 0x0, symName: __ZNSt3__19allocatorIPPN2ff7ff_nodeEE8allocateB8ue170006Em, symObjAddr: 0x1B170, symBinAddr: 0x10001F1E4, symSize: 0x58 }
  - { offsetInCU: 0x47355, offset: 0x47355, size: 0x8, addend: 0x0, symName: __ZNSt3__116allocator_traitsINS_9allocatorIPPN2ff7ff_nodeEEEE8max_sizeB8ue170006IS6_vvEEmRKS6_, symObjAddr: 0x1B1C8, symBinAddr: 0x10001F23C, symSize: 0x28 }
  - { offsetInCU: 0x47381, offset: 0x47381, size: 0x8, addend: 0x0, symName: __ZNSt3__117__compressed_pairIPPPN2ff7ff_nodeENS_9allocatorIS4_EEE5firstB8ue170006Ev, symObjAddr: 0x1B1F0, symBinAddr: 0x10001F264, symSize: 0x24 }
  - { offsetInCU: 0x473A7, offset: 0x473A7, size: 0x8, addend: 0x0, symName: __ZNSt3__122__compressed_pair_elemIPPPN2ff7ff_nodeELi0ELb0EE5__getB8ue170006Ev, symObjAddr: 0x1B214, symBinAddr: 0x10001F288, symSize: 0x14 }
  - { offsetInCU: 0x473CD, offset: 0x473CD, size: 0x8, addend: 0x0, symName: __ZNSt3__117__compressed_pairIPPPN2ff7ff_nodeERNS_9allocatorIS4_EEE5firstB8ue170006Ev, symObjAddr: 0x1B228, symBinAddr: 0x10001F29C, symSize: 0x24 }
  - { offsetInCU: 0x473F3, offset: 0x473F3, size: 0x8, addend: 0x0, symName: __ZNSt3__114__split_bufferIPPN2ff7ff_nodeERNS_9allocatorIS4_EEED2Ev, symObjAddr: 0x1B24C, symBinAddr: 0x10001F2C0, symSize: 0x8C }
  - { offsetInCU: 0x4741F, offset: 0x4741F, size: 0x8, addend: 0x0, symName: __ZNSt3__114__split_bufferIPPN2ff7ff_nodeERNS_9allocatorIS4_EEE5clearB8ue170006Ev, symObjAddr: 0x1B2D8, symBinAddr: 0x10001F34C, symSize: 0x28 }
  - { offsetInCU: 0x47445, offset: 0x47445, size: 0x8, addend: 0x0, symName: __ZNKSt3__114__split_bufferIPPN2ff7ff_nodeERNS_9allocatorIS4_EEE8capacityB8ue170006Ev, symObjAddr: 0x1B300, symBinAddr: 0x10001F374, symSize: 0x40 }
  - { offsetInCU: 0x4746B, offset: 0x4746B, size: 0x8, addend: 0x0, symName: __ZNSt3__114__split_bufferIPPN2ff7ff_nodeERNS_9allocatorIS4_EEE17__destruct_at_endB8ue170006EPS4_, symObjAddr: 0x1B340, symBinAddr: 0x10001F3B4, symSize: 0x2C }
  - { offsetInCU: 0x4749F, offset: 0x4749F, size: 0x8, addend: 0x0, symName: __ZNSt3__114__split_bufferIPPN2ff7ff_nodeERNS_9allocatorIS4_EEE17__destruct_at_endB8ue170006EPS4_NS_17integral_constantIbLb0EEE, symObjAddr: 0x1B36C, symBinAddr: 0x10001F3E0, symSize: 0x80 }
  - { offsetInCU: 0x474DF, offset: 0x474DF, size: 0x8, addend: 0x0, symName: __ZNKSt3__114__split_bufferIPPN2ff7ff_nodeERNS_9allocatorIS4_EEE9__end_capB8ue170006Ev, symObjAddr: 0x1B3EC, symBinAddr: 0x10001F460, symSize: 0x28 }
  - { offsetInCU: 0x47505, offset: 0x47505, size: 0x8, addend: 0x0, symName: __ZNKSt3__117__compressed_pairIPPPN2ff7ff_nodeERNS_9allocatorIS4_EEE5firstB8ue170006Ev, symObjAddr: 0x1B414, symBinAddr: 0x10001F488, symSize: 0x24 }
  - { offsetInCU: 0x4752B, offset: 0x4752B, size: 0x8, addend: 0x0, symName: __ZNSt3__15dequeIPN2ff7ff_nodeENS_9allocatorIS3_EEE13__deque_rangeC2B8ue170006ENS_16__deque_iteratorIS3_PS3_RS3_PS9_lLl512EEESC_, symObjAddr: 0x1B438, symBinAddr: 0x10001F4AC, symSize: 0x34 }
  - { offsetInCU: 0x47573, offset: 0x47573, size: 0x8, addend: 0x0, symName: __ZNSt3__15dequeIPN2ff7ff_nodeENS_9allocatorIS3_EEE19__deque_block_rangeC1B8ue170006EPS3_S8_, symObjAddr: 0x1B49C, symBinAddr: 0x10001F510, symSize: 0x3C }
  - { offsetInCU: 0x475BB, offset: 0x475BB, size: 0x8, addend: 0x0, symName: __ZNSt3__15dequeIPN2ff7ff_nodeENS_9allocatorIS3_EEE19__deque_block_rangeC2B8ue170006EPS3_S8_, symObjAddr: 0x1B4D8, symBinAddr: 0x10001F54C, symSize: 0x2C }
  - { offsetInCU: 0x47603, offset: 0x47603, size: 0x8, addend: 0x0, symName: __ZNSt3__15dequeIPN2ff7ff_nodeENS_9allocatorIS3_EEE21_ConstructTransactionC2B8ue170006EPS6_RNS6_19__deque_block_rangeE, symObjAddr: 0x1B504, symBinAddr: 0x10001F578, symSize: 0x48 }
  - { offsetInCU: 0x4764B, offset: 0x4764B, size: 0x8, addend: 0x0, symName: __ZNSt3__15dequeIPN2ff7ff_nodeENS_9allocatorIS3_EEE21_ConstructTransactionD2B8ue170006Ev, symObjAddr: 0x1B56C, symBinAddr: 0x10001F5E0, symSize: 0x5C }
  - { offsetInCU: 0x47675, offset: 0x47675, size: 0x8, addend: 0x0, symName: __ZNKSt3__15dequeIPN2ff7ff_nodeENS_9allocatorIS3_EEE22__annotate_shrink_backB8ue170006Emm, symObjAddr: 0x1B66C, symBinAddr: 0x10001F6E0, symSize: 0x60 }
  - { offsetInCU: 0x476B9, offset: 0x476B9, size: 0x8, addend: 0x0, symName: __ZNSt3__15dequeIPN2ff7ff_nodeENS_9allocatorIS3_EEE25__maybe_remove_back_spareB8ue170006Eb, symObjAddr: 0x1B6CC, symBinAddr: 0x10001F740, symSize: 0xE8 }
  - { offsetInCU: 0x476EE, offset: 0x476EE, size: 0x8, addend: 0x0, symName: __ZNKSt3__15dequeIPN2ff7ff_nodeENS_9allocatorIS3_EEE19__back_spare_blocksB8ue170006Ev, symObjAddr: 0x1B818, symBinAddr: 0x10001F88C, symSize: 0x2C }
  - { offsetInCU: 0x47714, offset: 0x47714, size: 0x8, addend: 0x0, symName: __ZNSt3__114__split_bufferIPPN2ff7ff_nodeENS_9allocatorIS4_EEE4backB8ue170006Ev, symObjAddr: 0x1B844, symBinAddr: 0x10001F8B8, symSize: 0x1C }
  - { offsetInCU: 0x4773A, offset: 0x4773A, size: 0x8, addend: 0x0, symName: __ZNSt3__114__split_bufferIPPN2ff7ff_nodeENS_9allocatorIS4_EEE8pop_backB8ue170006Ev, symObjAddr: 0x1B860, symBinAddr: 0x10001F8D4, symSize: 0x2C }
  - { offsetInCU: 0x47760, offset: 0x47760, size: 0x8, addend: 0x0, symName: __ZNSt3__116__deque_iteratorIPN2ff7ff_nodeEPS3_RS3_PS4_lLl512EEpLB8ue170006El, symObjAddr: 0x1B88C, symBinAddr: 0x10001F900, symSize: 0x110 }
  - { offsetInCU: 0x477B2, offset: 0x477B2, size: 0x8, addend: 0x0, symName: __ZNSt3__15dequeIPN2ff7ff_nodeENS_9allocatorIS3_EEE19__add_back_capacityEv, symObjAddr: 0x1B99C, symBinAddr: 0x10001FA10, symSize: 0x34C }
  - { offsetInCU: 0x47868, offset: 0x47868, size: 0x8, addend: 0x0, symName: __ZNSt3__116allocator_traitsINS_9allocatorIPN2ff7ff_nodeEEEE9constructB8ue170006IS4_JRKS4_EvvEEvRS5_PT_DpOT0_, symObjAddr: 0x1BCE8, symBinAddr: 0x10001FD5C, symSize: 0x30 }
  - { offsetInCU: 0x478C2, offset: 0x478C2, size: 0x8, addend: 0x0, symName: __ZNSt3__122__allocator_destructorINS_9allocatorIPN2ff7ff_nodeEEEEC1B8ue170006ERS5_m, symObjAddr: 0x1BD18, symBinAddr: 0x10001FD8C, symSize: 0x3C }
  - { offsetInCU: 0x47979, offset: 0x47979, size: 0x8, addend: 0x0, symName: __ZNSt3__110unique_ptrIPPN2ff7ff_nodeENS_22__allocator_destructorINS_9allocatorIS3_EEEEEC1B8ue170006ILb1EvEES4_NS_16__dependent_typeINS_27__unique_ptr_deleter_sfinaeIS8_EEXT_EE20__good_rval_ref_typeE, symObjAddr: 0x1BD54, symBinAddr: 0x10001FDC8, symSize: 0x3C }
  - { offsetInCU: 0x479CA, offset: 0x479CA, size: 0x8, addend: 0x0, symName: __ZNKSt3__110unique_ptrIPPN2ff7ff_nodeENS_22__allocator_destructorINS_9allocatorIS3_EEEEE3getB8ue170006Ev, symObjAddr: 0x1BD90, symBinAddr: 0x10001FE04, symSize: 0x28 }
  - { offsetInCU: 0x479F0, offset: 0x479F0, size: 0x8, addend: 0x0, symName: __ZNSt3__110unique_ptrIPPN2ff7ff_nodeENS_22__allocator_destructorINS_9allocatorIS3_EEEEE7releaseB8ue170006Ev, symObjAddr: 0x1BDB8, symBinAddr: 0x10001FE2C, symSize: 0x44 }
  - { offsetInCU: 0x47A25, offset: 0x47A25, size: 0x8, addend: 0x0, symName: __ZNSt3__110unique_ptrIPPN2ff7ff_nodeENS_22__allocator_destructorINS_9allocatorIS3_EEEEED1B8ue170006Ev, symObjAddr: 0x1BDFC, symBinAddr: 0x10001FE70, symSize: 0x2C }
  - { offsetInCU: 0x47A4F, offset: 0x47A4F, size: 0x8, addend: 0x0, symName: __ZNSt3__122__allocator_destructorINS_9allocatorIPN2ff7ff_nodeEEEEC2B8ue170006ERS5_m, symObjAddr: 0x1BE28, symBinAddr: 0x10001FE9C, symSize: 0x2C }
  - { offsetInCU: 0x47A95, offset: 0x47A95, size: 0x8, addend: 0x0, symName: __ZNSt3__110unique_ptrIPPN2ff7ff_nodeENS_22__allocator_destructorINS_9allocatorIS3_EEEEEC2B8ue170006ILb1EvEES4_NS_16__dependent_typeINS_27__unique_ptr_deleter_sfinaeIS8_EEXT_EE20__good_rval_ref_typeE, symObjAddr: 0x1BE54, symBinAddr: 0x10001FEC8, symSize: 0x48 }
  - { offsetInCU: 0x47AE6, offset: 0x47AE6, size: 0x8, addend: 0x0, symName: __ZNSt3__117__compressed_pairIPPN2ff7ff_nodeENS_22__allocator_destructorINS_9allocatorIS3_EEEEEC1B8ue170006IRS4_S8_EEOT_OT0_, symObjAddr: 0x1BE9C, symBinAddr: 0x10001FF10, symSize: 0x3C }
  - { offsetInCU: 0x47B3E, offset: 0x47B3E, size: 0x8, addend: 0x0, symName: __ZNSt3__117__compressed_pairIPPN2ff7ff_nodeENS_22__allocator_destructorINS_9allocatorIS3_EEEEEC2B8ue170006IRS4_S8_EEOT_OT0_, symObjAddr: 0x1BED8, symBinAddr: 0x10001FF4C, symSize: 0x48 }
  - { offsetInCU: 0x47B96, offset: 0x47B96, size: 0x8, addend: 0x0, symName: __ZNSt3__122__compressed_pair_elemIPPN2ff7ff_nodeELi0ELb0EEC2B8ue170006IRS4_vEEOT_, symObjAddr: 0x1BF20, symBinAddr: 0x10001FF94, symSize: 0x24 }
  - { offsetInCU: 0x47BD8, offset: 0x47BD8, size: 0x8, addend: 0x0, symName: __ZNSt3__122__compressed_pair_elemINS_22__allocator_destructorINS_9allocatorIPN2ff7ff_nodeEEEEELi1ELb0EEC2B8ue170006IS7_vEEOT_, symObjAddr: 0x1BF44, symBinAddr: 0x10001FFB8, symSize: 0x24 }
  - { offsetInCU: 0x47C1A, offset: 0x47C1A, size: 0x8, addend: 0x0, symName: __ZNKSt3__117__compressed_pairIPPN2ff7ff_nodeENS_22__allocator_destructorINS_9allocatorIS3_EEEEE5firstB8ue170006Ev, symObjAddr: 0x1BF68, symBinAddr: 0x10001FFDC, symSize: 0x24 }
  - { offsetInCU: 0x47C40, offset: 0x47C40, size: 0x8, addend: 0x0, symName: __ZNSt3__117__compressed_pairIPPN2ff7ff_nodeENS_22__allocator_destructorINS_9allocatorIS3_EEEEE5firstB8ue170006Ev, symObjAddr: 0x1BF8C, symBinAddr: 0x100020000, symSize: 0x24 }
  - { offsetInCU: 0x47C66, offset: 0x47C66, size: 0x8, addend: 0x0, symName: __ZNSt3__110unique_ptrIPPN2ff7ff_nodeENS_22__allocator_destructorINS_9allocatorIS3_EEEEED2B8ue170006Ev, symObjAddr: 0x1BFB0, symBinAddr: 0x100020024, symSize: 0x30 }
  - { offsetInCU: 0x47C90, offset: 0x47C90, size: 0x8, addend: 0x0, symName: __ZNSt3__110unique_ptrIPPN2ff7ff_nodeENS_22__allocator_destructorINS_9allocatorIS3_EEEEE5resetB8ue170006ES4_, symObjAddr: 0x1BFE0, symBinAddr: 0x100020054, symSize: 0x78 }
  - { offsetInCU: 0x47CD4, offset: 0x47CD4, size: 0x8, addend: 0x0, symName: __ZNSt3__117__compressed_pairIPPN2ff7ff_nodeENS_22__allocator_destructorINS_9allocatorIS3_EEEEE6secondB8ue170006Ev, symObjAddr: 0x1C058, symBinAddr: 0x1000200CC, symSize: 0x28 }
  - { offsetInCU: 0x47CFA, offset: 0x47CFA, size: 0x8, addend: 0x0, symName: __ZNSt3__122__allocator_destructorINS_9allocatorIPN2ff7ff_nodeEEEEclB8ue170006EPS4_, symObjAddr: 0x1C080, symBinAddr: 0x1000200F4, symSize: 0x34 }
  - { offsetInCU: 0x47D2E, offset: 0x47D2E, size: 0x8, addend: 0x0, symName: __ZNSt3__122__compressed_pair_elemINS_22__allocator_destructorINS_9allocatorIPN2ff7ff_nodeEEEEELi1ELb0EE5__getB8ue170006Ev, symObjAddr: 0x1C0B4, symBinAddr: 0x100020128, symSize: 0x14 }
  - { offsetInCU: 0x47D54, offset: 0x47D54, size: 0x8, addend: 0x0, symName: __ZNKSt3__15dequeIPN2ff7ff_nodeENS_9allocatorIS3_EEE23__annotate_shrink_frontB8ue170006Emm, symObjAddr: 0x1C1B0, symBinAddr: 0x100020224, symSize: 0x70 }
  - { offsetInCU: 0x47D98, offset: 0x47D98, size: 0x8, addend: 0x0, symName: __ZNSt3__15dequeIPN2ff7ff_nodeENS_9allocatorIS3_EEE26__maybe_remove_front_spareB8ue170006Eb, symObjAddr: 0x1C220, symBinAddr: 0x100020294, symSize: 0xEC }
  - { offsetInCU: 0x47DF3, offset: 0x47DF3, size: 0x8, addend: 0x0, symName: __ZNKSt3__120__move_backward_loopINS_17_ClassicAlgPolicyEEclB8ue170006INS_16__deque_iteratorIPN2ff7ff_nodeEPS7_RS7_PS8_lLl512EEESB_Li0EEENS_4pairIT_T0_EESD_SD_SE_, symObjAddr: 0x1C5C4, symBinAddr: 0x100020638, symSize: 0x230 }
  - { offsetInCU: 0x47E98, offset: 0x47E98, size: 0x8, addend: 0x0, symName: __ZNSt3__119__unwrap_range_implINS_16__deque_iteratorIPN2ff7ff_nodeEPS4_RS4_PS5_lLl512EEES8_E8__unwrapB8ue170006ES8_S8_, symObjAddr: 0x1C940, symBinAddr: 0x1000209B4, symSize: 0x84 }
  - { offsetInCU: 0x47ECF, offset: 0x47ECF, size: 0x8, addend: 0x0, symName: __ZNSt3__14pairINS_16__deque_iteratorIPN2ff7ff_nodeEPS4_RS4_PS5_lLl512EEES8_EC1B8ue170006IS8_S8_LPv0EEEOT_OT0_, symObjAddr: 0x1C9C4, symBinAddr: 0x100020A38, symSize: 0x3C }
  - { offsetInCU: 0x47F2D, offset: 0x47F2D, size: 0x8, addend: 0x0, symName: __ZNSt3__14pairINS_16__deque_iteratorIPN2ff7ff_nodeEPS4_RS4_PS5_lLl512EEES8_EC2B8ue170006IS8_S8_LPv0EEEOT_OT0_, symObjAddr: 0x1CA00, symBinAddr: 0x100020A74, symSize: 0x34 }
  - { offsetInCU: 0x47F8B, offset: 0x47F8B, size: 0x8, addend: 0x0, symName: __ZNSt3__127__segmented_iterator_traitsINS_16__deque_iteratorIPN2ff7ff_nodeEPS4_RS4_PS5_lLl512EEEE9__segmentB8ue170006ES8_, symObjAddr: 0x1CA34, symBinAddr: 0x100020AA8, symSize: 0x18 }
  - { offsetInCU: 0x47FAF, offset: 0x47FAF, size: 0x8, addend: 0x0, symName: __ZNSt3__127__segmented_iterator_traitsINS_16__deque_iteratorIPN2ff7ff_nodeEPS4_RS4_PS5_lLl512EEEE7__localB8ue170006ES8_, symObjAddr: 0x1CA90, symBinAddr: 0x100020B04, symSize: 0x18 }
  - { offsetInCU: 0x47FD3, offset: 0x47FD3, size: 0x8, addend: 0x0, symName: __ZNSt3__127__segmented_iterator_traitsINS_16__deque_iteratorIPN2ff7ff_nodeEPS4_RS4_PS5_lLl512EEEE7__beginB8ue170006ES7_, symObjAddr: 0x1CAE0, symBinAddr: 0x100020B54, symSize: 0x18 }
  - { offsetInCU: 0x47FF7, offset: 0x47FF7, size: 0x8, addend: 0x0, symName: __ZNSt3__127__segmented_iterator_traitsINS_16__deque_iteratorIPN2ff7ff_nodeEPS4_RS4_PS5_lLl512EEEE5__endB8ue170006ES7_, symObjAddr: 0x1CAF8, symBinAddr: 0x100020B6C, symSize: 0x1C }
  - { offsetInCU: 0x48037, offset: 0x48037, size: 0x8, addend: 0x0, symName: __ZNKSt3__120__move_backward_loopINS_17_ClassicAlgPolicyEEclB8ue170006IPPN2ff7ff_nodeENS_16__deque_iteratorIS6_S7_RS6_PS7_lLl512EEELi0EEENS_4pairIT_T0_EESD_SD_SE_, symObjAddr: 0x1CCBC, symBinAddr: 0x100020D30, symSize: 0x19C }
  - { offsetInCU: 0x48121, offset: 0x48121, size: 0x8, addend: 0x0, symName: __ZNSt3__119__unwrap_range_implIPPN2ff7ff_nodeES4_E8__unwrapB8ue170006ES4_S4_, symObjAddr: 0x1CEBC, symBinAddr: 0x100020F30, symSize: 0x58 }
  - { offsetInCU: 0x48152, offset: 0x48152, size: 0x8, addend: 0x0, symName: __ZNSt3__14pairIPPN2ff7ff_nodeES4_EC1B8ue170006IS4_S4_LPv0EEEOT_OT0_, symObjAddr: 0x1CF38, symBinAddr: 0x100020FAC, symSize: 0x3C }
  - { offsetInCU: 0x481B0, offset: 0x481B0, size: 0x8, addend: 0x0, symName: __ZNSt3__118__unwrap_iter_implIPPN2ff7ff_nodeELb1EE8__unwrapB8ue170006ES4_, symObjAddr: 0x1CF74, symBinAddr: 0x100020FE8, symSize: 0x24 }
  - { offsetInCU: 0x481D3, offset: 0x481D3, size: 0x8, addend: 0x0, symName: __ZNSt3__14pairIPPN2ff7ff_nodeES4_EC2B8ue170006IS4_S4_LPv0EEEOT_OT0_, symObjAddr: 0x1CF98, symBinAddr: 0x10002100C, symSize: 0x34 }
  - { offsetInCU: 0x48231, offset: 0x48231, size: 0x8, addend: 0x0, symName: __ZNSt3__127__segmented_iterator_traitsINS_16__deque_iteratorIPN2ff7ff_nodeEPS4_RS4_PS5_lLl512EEEE9__composeB8ue170006ES7_S5_, symObjAddr: 0x1D048, symBinAddr: 0x1000210BC, symSize: 0x84 }
  - { offsetInCU: 0x48264, offset: 0x48264, size: 0x8, addend: 0x0, symName: __ZNSt3__14pairIPPN2ff7ff_nodeENS_16__deque_iteratorIS3_S4_RS3_PS4_lLl512EEEEC1B8ue170006IRS4_RS8_LPv0EEEOT_OT0_, symObjAddr: 0x1D0CC, symBinAddr: 0x100021140, symSize: 0x3C }
  - { offsetInCU: 0x482C2, offset: 0x482C2, size: 0x8, addend: 0x0, symName: __ZNSt3__14pairIPPN2ff7ff_nodeENS_16__deque_iteratorIS3_S4_RS3_PS4_lLl512EEEEC2B8ue170006IRS4_RS8_LPv0EEEOT_OT0_, symObjAddr: 0x1D108, symBinAddr: 0x10002117C, symSize: 0x34 }
  - { offsetInCU: 0x48320, offset: 0x48320, size: 0x8, addend: 0x0, symName: __ZNKSt3__123__move_backward_trivialclB8ue170006IPN2ff7ff_nodeES4_Li0EEENS_4pairIPT_PT0_EES7_S7_S9_, symObjAddr: 0x1D234, symBinAddr: 0x1000212A8, symSize: 0x48 }
  - { offsetInCU: 0x48389, offset: 0x48389, size: 0x8, addend: 0x0, symName: __ZNSt3__14pairIPPN2ff7ff_nodeES4_EC1B8ue170006IRS4_S7_LPv0EEEOT_OT0_, symObjAddr: 0x1D41C, symBinAddr: 0x100021490, symSize: 0x3C }
  - { offsetInCU: 0x483E7, offset: 0x483E7, size: 0x8, addend: 0x0, symName: __ZNSt3__14pairIPPN2ff7ff_nodeES4_EC2B8ue170006IRS4_S7_LPv0EEEOT_OT0_, symObjAddr: 0x1D458, symBinAddr: 0x1000214CC, symSize: 0x34 }
  - { offsetInCU: 0x48445, offset: 0x48445, size: 0x8, addend: 0x0, symName: __ZNSt3__118__unwrap_iter_implIPPN2ff7ff_nodeELb1EE8__rewrapB8ue170006ES4_S4_, symObjAddr: 0x1D48C, symBinAddr: 0x100021500, symSize: 0x50 }
  - { offsetInCU: 0x48476, offset: 0x48476, size: 0x8, addend: 0x0, symName: __ZNSt3__14pairIPPN2ff7ff_nodeENS_16__deque_iteratorIS3_S4_RS3_PS4_lLl512EEEEC1B8ue170006IS4_S8_LPv0EEEOT_OT0_, symObjAddr: 0x1D4DC, symBinAddr: 0x100021550, symSize: 0x3C }
  - { offsetInCU: 0x484D4, offset: 0x484D4, size: 0x8, addend: 0x0, symName: __ZNSt3__14pairIPPN2ff7ff_nodeENS_16__deque_iteratorIS3_S4_RS3_PS4_lLl512EEEEC2B8ue170006IS4_S8_LPv0EEEOT_OT0_, symObjAddr: 0x1D518, symBinAddr: 0x10002158C, symSize: 0x34 }
  - { offsetInCU: 0x48532, offset: 0x48532, size: 0x8, addend: 0x0, symName: __ZNSt3__119__unwrap_range_implIPPN2ff7ff_nodeES4_E8__rewrapB8ue170006ES4_S4_, symObjAddr: 0x1D54C, symBinAddr: 0x1000215C0, symSize: 0x2C }
  - { offsetInCU: 0x48563, offset: 0x48563, size: 0x8, addend: 0x0, symName: __ZNSt3__14pairINS_16__deque_iteratorIPN2ff7ff_nodeEPS4_RS4_PS5_lLl512EEES8_EC1B8ue170006IRS8_SB_LPv0EEEOT_OT0_, symObjAddr: 0x1D578, symBinAddr: 0x1000215EC, symSize: 0x3C }
  - { offsetInCU: 0x485C1, offset: 0x485C1, size: 0x8, addend: 0x0, symName: __ZNSt3__14pairINS_16__deque_iteratorIPN2ff7ff_nodeEPS4_RS4_PS5_lLl512EEES8_EC2B8ue170006IRS8_SB_LPv0EEEOT_OT0_, symObjAddr: 0x1D5B4, symBinAddr: 0x100021628, symSize: 0x34 }
  - { offsetInCU: 0x4861F, offset: 0x4861F, size: 0x8, addend: 0x0, symName: __ZNSt3__14pairINS_16__deque_iteratorIPN2ff7ff_nodeEPS4_RS4_PS5_lLl512EEES8_EC1B8ue170006IRS8_S8_LPv0EEEOT_OT0_, symObjAddr: 0x1D5E8, symBinAddr: 0x10002165C, symSize: 0x3C }
  - { offsetInCU: 0x4867D, offset: 0x4867D, size: 0x8, addend: 0x0, symName: __ZNSt3__14pairINS_16__deque_iteratorIPN2ff7ff_nodeEPS4_RS4_PS5_lLl512EEES8_EC2B8ue170006IRS8_S8_LPv0EEEOT_OT0_, symObjAddr: 0x1D624, symBinAddr: 0x100021698, symSize: 0x34 }
  - { offsetInCU: 0x486DB, offset: 0x486DB, size: 0x8, addend: 0x0, symName: __ZNSt3__118__unwrap_iter_implINS_16__deque_iteratorIPN2ff7ff_nodeEPS4_RS4_PS5_lLl512EEELb0EE8__unwrapB8ue170006ES8_, symObjAddr: 0x1D658, symBinAddr: 0x1000216CC, symSize: 0x24 }
  - { offsetInCU: 0x486FE, offset: 0x486FE, size: 0x8, addend: 0x0, symName: __ZNSt3__119__unwrap_range_implINS_16__deque_iteratorIPN2ff7ff_nodeEPS4_RS4_PS5_lLl512EEES8_E8__rewrapB8ue170006ES8_S8_, symObjAddr: 0x1D67C, symBinAddr: 0x1000216F0, symSize: 0x5C }
  - { offsetInCU: 0x4872F, offset: 0x4872F, size: 0x8, addend: 0x0, symName: __ZNSt3__118__unwrap_iter_implINS_16__deque_iteratorIPN2ff7ff_nodeEPS4_RS4_PS5_lLl512EEELb0EE8__rewrapB8ue170006ES8_S8_, symObjAddr: 0x1D6D8, symBinAddr: 0x10002174C, symSize: 0x2C }
  - { offsetInCU: 0x4875C, offset: 0x4875C, size: 0x8, addend: 0x0, symName: __ZNKSt3__15dequeIPN2ff7ff_nodeENS_9allocatorIS3_EEE20__front_spare_blocksB8ue170006Ev, symObjAddr: 0x1D768, symBinAddr: 0x1000217DC, symSize: 0x2C }
  - { offsetInCU: 0x48782, offset: 0x48782, size: 0x8, addend: 0x0, symName: __ZNKSt3__111__move_loopINS_17_ClassicAlgPolicyEEclB8ue170006INS_16__deque_iteratorIPN2ff7ff_nodeEPS7_RS7_PS8_lLl512EEESB_Li0EEENS_4pairIT_T0_EESD_SD_SE_, symObjAddr: 0x1D988, symBinAddr: 0x1000219FC, symSize: 0x88 }
  - { offsetInCU: 0x487EB, offset: 0x487EB, size: 0x8, addend: 0x0, symName: __ZNSt3__111__move_loopINS_17_ClassicAlgPolicyEE12_MoveSegmentINS_16__deque_iteratorIPN2ff7ff_nodeEPS7_RS7_PS8_lLl512EEESB_EC1B8ue170006ERSB_, symObjAddr: 0x1DB84, symBinAddr: 0x100021BF8, symSize: 0x34 }
  - { offsetInCU: 0x48823, offset: 0x48823, size: 0x8, addend: 0x0, symName: __ZNSt3__111__move_loopINS_17_ClassicAlgPolicyEE12_MoveSegmentINS_16__deque_iteratorIPN2ff7ff_nodeEPS7_RS7_PS8_lLl512EEESB_EclB8ue170006ES8_S8_, symObjAddr: 0x1DBB8, symBinAddr: 0x100021C2C, symSize: 0x68 }
  - { offsetInCU: 0x48865, offset: 0x48865, size: 0x8, addend: 0x0, symName: __ZNKSt3__111__move_loopINS_17_ClassicAlgPolicyEEclB8ue170006IPPN2ff7ff_nodeENS_16__deque_iteratorIS6_S7_RS6_PS7_lLl512EEELi0EEENS_4pairIT_T0_EESD_SD_SE_, symObjAddr: 0x1DD98, symBinAddr: 0x100021E0C, symSize: 0x164 }
  - { offsetInCU: 0x48925, offset: 0x48925, size: 0x8, addend: 0x0, symName: __ZNKSt3__114__move_trivialclB8ue170006IPN2ff7ff_nodeES4_Li0EEENS_4pairIPT_PT0_EES7_S7_S9_, symObjAddr: 0x1E038, symBinAddr: 0x1000220AC, symSize: 0x48 }
  - { offsetInCU: 0x4898E, offset: 0x4898E, size: 0x8, addend: 0x0, symName: __ZNSt3__14pairIPPN2ff7ff_nodeES4_EC1B8ue170006IRS4_S4_LPv0EEEOT_OT0_, symObjAddr: 0x1E138, symBinAddr: 0x1000221AC, symSize: 0x3C }
  - { offsetInCU: 0x489EC, offset: 0x489EC, size: 0x8, addend: 0x0, symName: __ZNSt3__14pairIPPN2ff7ff_nodeES4_EC2B8ue170006IRS4_S4_LPv0EEEOT_OT0_, symObjAddr: 0x1E174, symBinAddr: 0x1000221E8, symSize: 0x34 }
  - { offsetInCU: 0x48A4A, offset: 0x48A4A, size: 0x8, addend: 0x0, symName: __ZNSt3__111__move_loopINS_17_ClassicAlgPolicyEE12_MoveSegmentINS_16__deque_iteratorIPN2ff7ff_nodeEPS7_RS7_PS8_lLl512EEESB_EC2B8ue170006ERSB_, symObjAddr: 0x1E1A8, symBinAddr: 0x10002221C, symSize: 0x20 }
  - { offsetInCU: 0x48A82, offset: 0x48A82, size: 0x8, addend: 0x0, symName: __ZNSt3__116__deque_iteratorIPN2ff7ff_nodeEPKS3_RS4_PKS5_lLl512EEC2B8ue170006IPS3_RS3_PSB_EERKNS0_IS3_T_T0_T1_lLl512EEEPNS_9enable_ifIXsr14is_convertibleISE_S5_EE5valueEvE4typeE, symObjAddr: 0x1E1C8, symBinAddr: 0x10002223C, symSize: 0x34 }
  - { offsetInCU: 0x48AE2, offset: 0x48AE2, size: 0x8, addend: 0x0, symName: __ZN2ff15ff_loadbalancer5runlbEbl, symObjAddr: 0x1E1FC, symBinAddr: 0x100022270, symSize: 0x13C }
  - { offsetInCU: 0x48B23, offset: 0x48B23, size: 0x8, addend: 0x0, symName: __ZN2ff15ff_loadbalancer10runWorkersEl, symObjAddr: 0x1E338, symBinAddr: 0x1000223AC, symSize: 0x2F0 }
  - { offsetInCU: 0x48B92, offset: 0x48B92, size: 0x8, addend: 0x0, symName: __ZN2ff15ff_loadbalancer6dryrunEv, symObjAddr: 0x1E628, symBinAddr: 0x10002269C, symSize: 0x12C }
  - { offsetInCU: 0x48BB8, offset: 0x48BB8, size: 0x8, addend: 0x0, symName: __ZN2ff15ff_loadbalancer19ff_send_out_emitterEPvimmS1_, symObjAddr: 0x1E754, symBinAddr: 0x1000227C8, symSize: 0x5C }
  - { offsetInCU: 0x48C27, offset: 0x48C27, size: 0x8, addend: 0x0, symName: __ZN2ff7ff_node9setThreadEPNS_9ff_threadE, symObjAddr: 0x1E7B0, symBinAddr: 0x100022824, symSize: 0x24 }
  - { offsetInCU: 0x48C5C, offset: 0x48C5C, size: 0x8, addend: 0x0, symName: __ZN2ff16uSWSR_Ptr_Buffer5emptyEv, symObjAddr: 0x1E834, symBinAddr: 0x1000228A8, symSize: 0x74 }
  - { offsetInCU: 0x48C82, offset: 0x48C82, size: 0x8, addend: 0x0, symName: __ZN2ff15ff_loadbalancer8put_doneEi, symObjAddr: 0x1E8A8, symBinAddr: 0x10002291C, symSize: 0x44 }
  - { offsetInCU: 0x48CB6, offset: 0x48CB6, size: 0x8, addend: 0x0, symName: __ZNSt3__16vectorImNS_9allocatorImEEEC1B8ue170006Ev, symObjAddr: 0x1E990, symBinAddr: 0x100022A04, symSize: 0x2C }
  - { offsetInCU: 0x48CE0, offset: 0x48CE0, size: 0x8, addend: 0x0, symName: __ZNSt3__16vectorImNS_9allocatorImEEE9push_backB8ue170006EOm, symObjAddr: 0x1E9BC, symBinAddr: 0x100022A30, symSize: 0x6C }
  - { offsetInCU: 0x48D17, offset: 0x48D17, size: 0x8, addend: 0x0, symName: __ZNSt3__16vectorImNS_9allocatorImEEE4backB8ue170006Ev, symObjAddr: 0x1EA28, symBinAddr: 0x100022A9C, symSize: 0x1C }
  - { offsetInCU: 0x48D3D, offset: 0x48D3D, size: 0x8, addend: 0x0, symName: __ZNSt3__16vectorImNS_9allocatorImEEE8pop_backEv, symObjAddr: 0x1EA44, symBinAddr: 0x100022AB8, symSize: 0x2C }
  - { offsetInCU: 0x48D65, offset: 0x48D65, size: 0x8, addend: 0x0, symName: __ZNSt3__16vectorImNS_9allocatorImEEEC2B8ue170006Ev, symObjAddr: 0x1EA70, symBinAddr: 0x100022AE4, symSize: 0x4C }
  - { offsetInCU: 0x48D95, offset: 0x48D95, size: 0x8, addend: 0x0, symName: __ZNSt3__16vectorImNS_9allocatorImEEE22__construct_one_at_endB8ue170006IJmEEEvDpOT_, symObjAddr: 0x1EABC, symBinAddr: 0x100022B30, symSize: 0x90 }
  - { offsetInCU: 0x48DE4, offset: 0x48DE4, size: 0x8, addend: 0x0, symName: __ZNSt3__16vectorImNS_9allocatorImEEE21__push_back_slow_pathImEEvOT_, symObjAddr: 0x1EB4C, symBinAddr: 0x100022BC0, symSize: 0xD8 }
  - { offsetInCU: 0x48E42, offset: 0x48E42, size: 0x8, addend: 0x0, symName: __ZNSt3__116allocator_traitsINS_9allocatorImEEE9constructB8ue170006ImJmEvvEEvRS2_PT_DpOT0_, symObjAddr: 0x1EC24, symBinAddr: 0x100022C98, symSize: 0x30 }
  - { offsetInCU: 0x48E97, offset: 0x48E97, size: 0x8, addend: 0x0, symName: __ZNKSt3__16vectorImNS_9allocatorImEEE11__recommendB8ue170006Em, symObjAddr: 0x1EC80, symBinAddr: 0x100022CF4, symSize: 0xB4 }
  - { offsetInCU: 0x48EEC, offset: 0x48EEC, size: 0x8, addend: 0x0, symName: __ZNSt3__114__split_bufferImRNS_9allocatorImEEEC1EmmS3_, symObjAddr: 0x1ED34, symBinAddr: 0x100022DA8, symSize: 0x44 }
  - { offsetInCU: 0x48F42, offset: 0x48F42, size: 0x8, addend: 0x0, symName: __ZNSt3__114__split_bufferImRNS_9allocatorImEEED1Ev, symObjAddr: 0x1EE88, symBinAddr: 0x100022EFC, symSize: 0x2C }
  - { offsetInCU: 0x48F6E, offset: 0x48F6E, size: 0x8, addend: 0x0, symName: __ZNSt3__114__split_bufferImRNS_9allocatorImEEEC2EmmS3_, symObjAddr: 0x1EEB4, symBinAddr: 0x100022F28, symSize: 0xD4 }
  - { offsetInCU: 0x48FE1, offset: 0x48FE1, size: 0x8, addend: 0x0, symName: __ZNSt3__117__compressed_pairIPmRNS_9allocatorImEEEC1B8ue170006IDnS4_EEOT_OT0_, symObjAddr: 0x1EF88, symBinAddr: 0x100022FFC, symSize: 0x3C }
  - { offsetInCU: 0x49039, offset: 0x49039, size: 0x8, addend: 0x0, symName: __ZNSt3__114__split_bufferImRNS_9allocatorImEEE7__allocB8ue170006Ev, symObjAddr: 0x1EFC4, symBinAddr: 0x100023038, symSize: 0x28 }
  - { offsetInCU: 0x4905F, offset: 0x4905F, size: 0x8, addend: 0x0, symName: __ZNSt3__114__split_bufferImRNS_9allocatorImEEE9__end_capB8ue170006Ev, symObjAddr: 0x1EFEC, symBinAddr: 0x100023060, symSize: 0x28 }
  - { offsetInCU: 0x49085, offset: 0x49085, size: 0x8, addend: 0x0, symName: __ZNSt3__117__compressed_pairIPmRNS_9allocatorImEEEC2B8ue170006IDnS4_EEOT_OT0_, symObjAddr: 0x1F014, symBinAddr: 0x100023088, symSize: 0x48 }
  - { offsetInCU: 0x490DD, offset: 0x490DD, size: 0x8, addend: 0x0, symName: __ZNSt3__122__compressed_pair_elemIRNS_9allocatorImEELi1ELb0EEC2B8ue170006IS3_vEEOT_, symObjAddr: 0x1F05C, symBinAddr: 0x1000230D0, symSize: 0x20 }
  - { offsetInCU: 0x4911F, offset: 0x4911F, size: 0x8, addend: 0x0, symName: __ZNSt3__117__compressed_pairIPmRNS_9allocatorImEEE6secondB8ue170006Ev, symObjAddr: 0x1F07C, symBinAddr: 0x1000230F0, symSize: 0x28 }
  - { offsetInCU: 0x49145, offset: 0x49145, size: 0x8, addend: 0x0, symName: __ZNSt3__122__compressed_pair_elemIRNS_9allocatorImEELi1ELb0EE5__getB8ue170006Ev, symObjAddr: 0x1F0A4, symBinAddr: 0x100023118, symSize: 0x18 }
  - { offsetInCU: 0x4916B, offset: 0x4916B, size: 0x8, addend: 0x0, symName: __ZNSt3__117__compressed_pairIPmRNS_9allocatorImEEE5firstB8ue170006Ev, symObjAddr: 0x1F0BC, symBinAddr: 0x100023130, symSize: 0x24 }
  - { offsetInCU: 0x49191, offset: 0x49191, size: 0x8, addend: 0x0, symName: __ZNSt3__116reverse_iteratorIPmEC1B8ue170006ES1_, symObjAddr: 0x1F158, symBinAddr: 0x1000231CC, symSize: 0x34 }
  - { offsetInCU: 0x491C9, offset: 0x491C9, size: 0x8, addend: 0x0, symName: __ZNKSt3__116reverse_iteratorIPmE4baseB8ue170006Ev, symObjAddr: 0x1F18C, symBinAddr: 0x100023200, symSize: 0x18 }
  - { offsetInCU: 0x4920B, offset: 0x4920B, size: 0x8, addend: 0x0, symName: __ZNKSt3__111__move_loopINS_17_ClassicAlgPolicyEEclB8ue170006INS_16reverse_iteratorIPmEES6_S6_EENS_4pairIT_T1_EES8_T0_S9_, symObjAddr: 0x1F498, symBinAddr: 0x10002350C, symSize: 0xA0 }
  - { offsetInCU: 0x49276, offset: 0x49276, size: 0x8, addend: 0x0, symName: __ZNSt3__119__unwrap_range_implINS_16reverse_iteratorIPmEES3_E8__unwrapB8ue170006ES3_S3_, symObjAddr: 0x1F684, symBinAddr: 0x1000236F8, symSize: 0x84 }
  - { offsetInCU: 0x492AD, offset: 0x492AD, size: 0x8, addend: 0x0, symName: __ZNSt3__14pairINS_16reverse_iteratorIPmEES3_EC1B8ue170006IS3_S3_LPv0EEEOT_OT0_, symObjAddr: 0x1F708, symBinAddr: 0x10002377C, symSize: 0x3C }
  - { offsetInCU: 0x4930B, offset: 0x4930B, size: 0x8, addend: 0x0, symName: __ZNSt3__14pairINS_16reverse_iteratorIPmEES3_EC2B8ue170006IS3_S3_LPv0EEEOT_OT0_, symObjAddr: 0x1F744, symBinAddr: 0x1000237B8, symSize: 0x34 }
  - { offsetInCU: 0x49369, offset: 0x49369, size: 0x8, addend: 0x0, symName: __ZNSt3__18_IterOpsINS_17_ClassicAlgPolicyEE11__iter_moveB8ue170006IRNS_16reverse_iteratorIPmEEEENS_9enable_ifIXsr12is_referenceIDTdeclsr3stdE7declvalIRT_EEEEE5valueEDTclsr3stdE4movedeclsr3stdE7declvalISA_EEEEE4typeEOS9_, symObjAddr: 0x1F7C0, symBinAddr: 0x100023834, symSize: 0x28 }
  - { offsetInCU: 0x49395, offset: 0x49395, size: 0x8, addend: 0x0, symName: __ZNKSt3__116reverse_iteratorIPmEdeB8ue170006Ev, symObjAddr: 0x1F7E8, symBinAddr: 0x10002385C, symSize: 0x28 }
  - { offsetInCU: 0x493C9, offset: 0x493C9, size: 0x8, addend: 0x0, symName: __ZNSt3__116reverse_iteratorIPmEppB8ue170006Ev, symObjAddr: 0x1F810, symBinAddr: 0x100023884, symSize: 0x20 }
  - { offsetInCU: 0x493EF, offset: 0x493EF, size: 0x8, addend: 0x0, symName: __ZNSt3__18_IterOpsINS_17_ClassicAlgPolicyEE25__validate_iter_referenceB8ue170006IRNS_16reverse_iteratorIPmEEEEvv, symObjAddr: 0x1F830, symBinAddr: 0x1000238A4, symSize: 0x4 }
  - { offsetInCU: 0x4940D, offset: 0x4940D, size: 0x8, addend: 0x0, symName: __ZNSt3__118__unwrap_iter_implINS_16reverse_iteratorIPmEELb0EE8__unwrapB8ue170006ES3_, symObjAddr: 0x1F834, symBinAddr: 0x1000238A8, symSize: 0x24 }
  - { offsetInCU: 0x49430, offset: 0x49430, size: 0x8, addend: 0x0, symName: __ZNSt3__119__unwrap_range_implINS_16reverse_iteratorIPmEES3_E8__rewrapB8ue170006ES3_S3_, symObjAddr: 0x1F858, symBinAddr: 0x1000238CC, symSize: 0x5C }
  - { offsetInCU: 0x49461, offset: 0x49461, size: 0x8, addend: 0x0, symName: __ZNSt3__118__unwrap_iter_implINS_16reverse_iteratorIPmEELb0EE8__rewrapB8ue170006ES3_S3_, symObjAddr: 0x1F8B4, symBinAddr: 0x100023928, symSize: 0x2C }
  - { offsetInCU: 0x4948E, offset: 0x4948E, size: 0x8, addend: 0x0, symName: __ZNSt3__116reverse_iteratorIPmEC2B8ue170006ES1_, symObjAddr: 0x1F8E0, symBinAddr: 0x100023954, symSize: 0x28 }
  - { offsetInCU: 0x494C6, offset: 0x494C6, size: 0x8, addend: 0x0, symName: __ZNSt3__114__split_bufferImRNS_9allocatorImEEED2Ev, symObjAddr: 0x1F908, symBinAddr: 0x10002397C, symSize: 0x8C }
  - { offsetInCU: 0x494F2, offset: 0x494F2, size: 0x8, addend: 0x0, symName: __ZNSt3__114__split_bufferImRNS_9allocatorImEEE5clearB8ue170006Ev, symObjAddr: 0x1F994, symBinAddr: 0x100023A08, symSize: 0x28 }
  - { offsetInCU: 0x49518, offset: 0x49518, size: 0x8, addend: 0x0, symName: __ZNKSt3__114__split_bufferImRNS_9allocatorImEEE8capacityB8ue170006Ev, symObjAddr: 0x1F9BC, symBinAddr: 0x100023A30, symSize: 0x40 }
  - { offsetInCU: 0x4953E, offset: 0x4953E, size: 0x8, addend: 0x0, symName: __ZNSt3__114__split_bufferImRNS_9allocatorImEEE17__destruct_at_endB8ue170006EPm, symObjAddr: 0x1F9FC, symBinAddr: 0x100023A70, symSize: 0x2C }
  - { offsetInCU: 0x49572, offset: 0x49572, size: 0x8, addend: 0x0, symName: __ZNSt3__114__split_bufferImRNS_9allocatorImEEE17__destruct_at_endB8ue170006EPmNS_17integral_constantIbLb0EEE, symObjAddr: 0x1FA28, symBinAddr: 0x100023A9C, symSize: 0x80 }
  - { offsetInCU: 0x495B2, offset: 0x495B2, size: 0x8, addend: 0x0, symName: __ZNKSt3__114__split_bufferImRNS_9allocatorImEEE9__end_capB8ue170006Ev, symObjAddr: 0x1FAA8, symBinAddr: 0x100023B1C, symSize: 0x28 }
  - { offsetInCU: 0x495D8, offset: 0x495D8, size: 0x8, addend: 0x0, symName: __ZNKSt3__117__compressed_pairIPmRNS_9allocatorImEEE5firstB8ue170006Ev, symObjAddr: 0x1FAD0, symBinAddr: 0x100023B44, symSize: 0x24 }
  - { offsetInCU: 0x495FE, offset: 0x495FE, size: 0x8, addend: 0x0, symName: __ZNSt3__16vectorImNS_9allocatorImEEE17__destruct_at_endB8ue170006EPm, symObjAddr: 0x1FAF4, symBinAddr: 0x100023B68, symSize: 0x4C }
  - { offsetInCU: 0x49642, offset: 0x49642, size: 0x8, addend: 0x0, symName: __ZNKSt3__16vectorImNS_9allocatorImEEE17__annotate_shrinkB8ue170006Em, symObjAddr: 0x1FB40, symBinAddr: 0x100023BB4, symSize: 0xB4 }
  - { offsetInCU: 0x49677, offset: 0x49677, size: 0x8, addend: 0x0, symName: __ZN2ff16uSWSR_Ptr_BufferD1Ev, symObjAddr: 0x1FBF4, symBinAddr: 0x100023C68, symSize: 0x2C }
  - { offsetInCU: 0x496A1, offset: 0x496A1, size: 0x8, addend: 0x0, symName: __ZN2ff16uSWSR_Ptr_BufferD2Ev, symObjAddr: 0x1FC20, symBinAddr: 0x100023C94, symSize: 0x74 }
  - { offsetInCU: 0x496CB, offset: 0x496CB, size: 0x8, addend: 0x0, symName: __ZN2ff9ff_monodeD2Ev, symObjAddr: 0x1FC94, symBinAddr: 0x100023D08, symSize: 0x154 }
  - { offsetInCU: 0x4970B, offset: 0x4970B, size: 0x8, addend: 0x0, symName: __ZN2ff15ff_loadbalancer19init_input_blockingERP23_opaque_pthread_mutex_tRP22_opaque_pthread_cond_tb, symObjAddr: 0x1FDE8, symBinAddr: 0x100023E5C, symSize: 0x1C0 }
  - { offsetInCU: 0x49757, offset: 0x49757, size: 0x8, addend: 0x0, symName: __ZN2ff15ff_loadbalancer20init_output_blockingERP23_opaque_pthread_mutex_tRP22_opaque_pthread_cond_tb, symObjAddr: 0x1FFA8, symBinAddr: 0x10002401C, symSize: 0x1C0 }
  - { offsetInCU: 0x497A3, offset: 0x497A3, size: 0x8, addend: 0x0, symName: __ZN2ff15ff_loadbalancer12skipfirstpopEb, symObjAddr: 0x20168, symBinAddr: 0x1000241DC, symSize: 0xA8 }
  - { offsetInCU: 0x497F5, offset: 0x497F5, size: 0x8, addend: 0x0, symName: __ZN2ff16uSWSR_Ptr_Buffer7mp_pushEPv, symObjAddr: 0x20210, symBinAddr: 0x100024284, symSize: 0x5C }
  - { offsetInCU: 0x4983E, offset: 0x4983E, size: 0x8, addend: 0x0, symName: __ZN2ff13ff_buffernodeC1EiPNS_16uSWSR_Ptr_BufferES2_, symObjAddr: 0x2026C, symBinAddr: 0x1000242E0, symSize: 0x44 }
  - { offsetInCU: 0x49895, offset: 0x49895, size: 0x8, addend: 0x0, symName: __ZN2ff13ff_buffernodeC2EiPNS_16uSWSR_Ptr_BufferES2_, symObjAddr: 0x202B0, symBinAddr: 0x100024324, symSize: 0xBC }
  - { offsetInCU: 0x498EC, offset: 0x498EC, size: 0x8, addend: 0x0, symName: __ZN2ff13ff_buffernode10get_cons_cEv, symObjAddr: 0x2036C, symBinAddr: 0x1000243E0, symSize: 0x18 }
  - { offsetInCU: 0x49912, offset: 0x49912, size: 0x8, addend: 0x0, symName: __ZN2ff13ff_buffernodeD1Ev, symObjAddr: 0x20384, symBinAddr: 0x1000243F8, symSize: 0x2C }
  - { offsetInCU: 0x4993F, offset: 0x4993F, size: 0x8, addend: 0x0, symName: __ZN2ff13ff_buffernodeD0Ev, symObjAddr: 0x203B0, symBinAddr: 0x100024424, symSize: 0x34 }
  - { offsetInCU: 0x4996C, offset: 0x4996C, size: 0x8, addend: 0x0, symName: __ZN2ff13ff_buffernode3svcEPv, symObjAddr: 0x203E4, symBinAddr: 0x100024458, symSize: 0x18 }
  - { offsetInCU: 0x4999E, offset: 0x4999E, size: 0x8, addend: 0x0, symName: __ZN2ff13ff_buffernode11ff_send_outEPvimm, symObjAddr: 0x203FC, symBinAddr: 0x100024470, symSize: 0x48 }
  - { offsetInCU: 0x49A00, offset: 0x49A00, size: 0x8, addend: 0x0, symName: __ZN2ff13ff_buffernodeD2Ev, symObjAddr: 0x20444, symBinAddr: 0x1000244B8, symSize: 0x2C }
  - { offsetInCU: 0x49A2D, offset: 0x49A2D, size: 0x8, addend: 0x0, symName: __ZN2ff7svectorIPNS_7ff_nodeEEpLERKS3_, symObjAddr: 0x20470, symBinAddr: 0x1000244E4, symSize: 0x7C }
  - { offsetInCU: 0x49A7D, offset: 0x49A7D, size: 0x8, addend: 0x0, symName: __ZNK2ff7svectorIPNS_7ff_nodeEE5beginEv, symObjAddr: 0x204EC, symBinAddr: 0x100024560, symSize: 0x18 }
  - { offsetInCU: 0x49AA3, offset: 0x49AA3, size: 0x8, addend: 0x0, symName: __ZNK2ff7svectorIPNS_7ff_nodeEE3endEv, symObjAddr: 0x20504, symBinAddr: 0x100024578, symSize: 0x20 }
  - { offsetInCU: 0x49AC9, offset: 0x49AC9, size: 0x8, addend: 0x0, symName: __ZN2ff15ff_loadbalancer15register_workerEPNS_7ff_nodeE, symObjAddr: 0x20524, symBinAddr: 0x100024598, symSize: 0x8C }
  - { offsetInCU: 0x49AFE, offset: 0x49AFE, size: 0x8, addend: 0x0, symName: __ZN2ff15ff_loadbalancer24set_feedbackid_thresholdEm, symObjAddr: 0x205B0, symBinAddr: 0x100024624, symSize: 0x20 }
  - { offsetInCU: 0x49B33, offset: 0x49B33, size: 0x8, addend: 0x0, symName: __ZNK2ff15ff_loadbalancer10get_filterEv, symObjAddr: 0x205D0, symBinAddr: 0x100024644, symSize: 0x18 }
  - { offsetInCU: 0x49B59, offset: 0x49B59, size: 0x8, addend: 0x0, symName: __ZN2ff15ff_loadbalancer10set_filterEPNS_7ff_nodeE, symObjAddr: 0x205E8, symBinAddr: 0x10002465C, symSize: 0x98 }
  - { offsetInCU: 0x49B8E, offset: 0x49B8E, size: 0x8, addend: 0x0, symName: __ZN2ff15ff_loadbalancer6waitlbEv, symObjAddr: 0x20680, symBinAddr: 0x1000246F4, symSize: 0x58 }
  - { offsetInCU: 0x49BB4, offset: 0x49BB4, size: 0x8, addend: 0x0, symName: __ZN8L_WorkerD2Ev, symObjAddr: 0x206D8, symBinAddr: 0x10002474C, symSize: 0x48 }
  - { offsetInCU: 0x49BE0, offset: 0x49BE0, size: 0x8, addend: 0x0, symName: __ZN2ff16uSWSR_Ptr_Buffer10changesizeEm, symObjAddr: 0x20720, symBinAddr: 0x100024794, symSize: 0xE0 }
  - { offsetInCU: 0x49C24, offset: 0x49C24, size: 0x8, addend: 0x0, symName: __ZN2ff15SWSR_Ptr_Buffer10changesizeEm, symObjAddr: 0x20800, symBinAddr: 0x100024874, symSize: 0x2C }
  - { offsetInCU: 0x49C66, offset: 0x49C66, size: 0x8, addend: 0x0, symName: __ZN2ff10BufferPool10changesizeEm, symObjAddr: 0x2082C, symBinAddr: 0x1000248A0, symSize: 0x160 }
  - { offsetInCU: 0x49CD6, offset: 0x49CD6, size: 0x8, addend: 0x0, symName: __ZNK2ff15ff_loadbalancer11getNWorkersEv, symObjAddr: 0x2098C, symBinAddr: 0x100024A00, symSize: 0x28 }
  - { offsetInCU: 0x49CFC, offset: 0x49CFC, size: 0x8, addend: 0x0, symName: __ZNK2ff15ff_loadbalancer10getWorkersEv, symObjAddr: 0x209B4, symBinAddr: 0x100024A28, symSize: 0x18 }
  - { offsetInCU: 0x49D22, offset: 0x49D22, size: 0x8, addend: 0x0, symName: __ZNK2ff12threadMapper10checkCPUIdEi, symObjAddr: 0x20A84, symBinAddr: 0x100024AF8, symSize: 0x2C }
  - { offsetInCU: 0x49D57, offset: 0x49D57, size: 0x8, addend: 0x0, symName: __ZN2ff12threadMapperC1Ev, symObjAddr: 0x20AB0, symBinAddr: 0x100024B24, symSize: 0x2C }
  - { offsetInCU: 0x49D81, offset: 0x49D81, size: 0x8, addend: 0x0, symName: __ZN2ff12threadMapperD1Ev, symObjAddr: 0x20ADC, symBinAddr: 0x100024B50, symSize: 0x2C }
  - { offsetInCU: 0x49DAD, offset: 0x49DAD, size: 0x8, addend: 0x0, symName: __ZN2ff12threadMapperC2Ev, symObjAddr: 0x20B08, symBinAddr: 0x100024B7C, symSize: 0x2F8 }
  - { offsetInCU: 0x49E5F, offset: 0x49E5F, size: 0x8, addend: 0x0, symName: __ZN2ff7svectorIiEC1Em, symObjAddr: 0x20E00, symBinAddr: 0x100024E74, symSize: 0x34 }
  - { offsetInCU: 0x49E97, offset: 0x49E97, size: 0x8, addend: 0x0, symName: __ZNKSt3__112basic_stringIcNS_11char_traitsIcEENS_9allocatorIcEEE6lengthB8ue170006Ev, symObjAddr: 0x20E34, symBinAddr: 0x100024EA8, symSize: 0x24 }
  - { offsetInCU: 0x49EBD, offset: 0x49EBD, size: 0x8, addend: 0x0, symName: __ZN2ff12threadMapper14setMappingListEPKc, symObjAddr: 0x20E58, symBinAddr: 0x100024ECC, symSize: 0x31C }
  - { offsetInCU: 0x49F7C, offset: 0x49F7C, size: 0x8, addend: 0x0, symName: __ZNK2ff7svectorIiE4sizeEv, symObjAddr: 0x211C4, symBinAddr: 0x100025238, symSize: 0x18 }
  - { offsetInCU: 0x49FA2, offset: 0x49FA2, size: 0x8, addend: 0x0, symName: __ZN2ff7svectorIiE7reserveEm, symObjAddr: 0x211DC, symBinAddr: 0x100025250, symSize: 0xAC }
  - { offsetInCU: 0x49FD6, offset: 0x49FD6, size: 0x8, addend: 0x0, symName: __ZN2ff7svectorIiE9push_backERKi, symObjAddr: 0x21288, symBinAddr: 0x1000252FC, symSize: 0x78 }
  - { offsetInCU: 0x4A00A, offset: 0x4A00A, size: 0x8, addend: 0x0, symName: __ZN2ff7svectorIiEixEm, symObjAddr: 0x21394, symBinAddr: 0x100025408, symSize: 0x44 }
  - { offsetInCU: 0x4A03F, offset: 0x4A03F, size: 0x8, addend: 0x0, symName: __ZN2ff7svectorIiED1Ev, symObjAddr: 0x213D8, symBinAddr: 0x10002544C, symSize: 0x2C }
  - { offsetInCU: 0x4A069, offset: 0x4A069, size: 0x8, addend: 0x0, symName: __ZN2ff7svectorIiEC2Em, symObjAddr: 0x21404, symBinAddr: 0x100025478, symSize: 0x80 }
  - { offsetInCU: 0x4A0A1, offset: 0x4A0A1, size: 0x8, addend: 0x0, symName: __ZN2ff7svectorIiEaSERKS1_, symObjAddr: 0x21484, symBinAddr: 0x1000254F8, symSize: 0x9C }
  - { offsetInCU: 0x4A0FF, offset: 0x4A0FF, size: 0x8, addend: 0x0, symName: __ZN2ff7svectorIiE5clearEv, symObjAddr: 0x21520, symBinAddr: 0x100025594, symSize: 0x4C }
  - { offsetInCU: 0x4A125, offset: 0x4A125, size: 0x8, addend: 0x0, symName: __ZNK2ff7svectorIiE5beginEv, symObjAddr: 0x2156C, symBinAddr: 0x1000255E0, symSize: 0x18 }
  - { offsetInCU: 0x4A14B, offset: 0x4A14B, size: 0x8, addend: 0x0, symName: __ZNK2ff7svectorIiE3endEv, symObjAddr: 0x21584, symBinAddr: 0x1000255F8, symSize: 0x20 }
  - { offsetInCU: 0x4A171, offset: 0x4A171, size: 0x8, addend: 0x0, symName: __ZN2ff7svectorIiE8pop_backEv, symObjAddr: 0x215A4, symBinAddr: 0x100025618, symSize: 0x20 }
  - { offsetInCU: 0x4A197, offset: 0x4A197, size: 0x8, addend: 0x0, symName: __ZN2ff7svectorIiED2Ev, symObjAddr: 0x215C4, symBinAddr: 0x100025638, symSize: 0x70 }
  - { offsetInCU: 0x4A1C1, offset: 0x4A1C1, size: 0x8, addend: 0x0, symName: __ZN2ff12threadMapperD2Ev, symObjAddr: 0x21634, symBinAddr: 0x1000256A8, symSize: 0x30 }
  - { offsetInCU: 0x4A1ED, offset: 0x4A1ED, size: 0x8, addend: 0x0, symName: __ZN2ff16uSWSR_Ptr_Buffer5resetEv, symObjAddr: 0x21664, symBinAddr: 0x1000256D8, symSize: 0x94 }
  - { offsetInCU: 0x4A213, offset: 0x4A213, size: 0x8, addend: 0x0, symName: __ZN2ff10BufferPool5resetEv, symObjAddr: 0x216F8, symBinAddr: 0x10002576C, symSize: 0x4C }
  - { offsetInCU: 0x4A266, offset: 0x4A266, size: 0x8, addend: 0x0, symName: __ZNK2ff15ff_loadbalancer14get_channel_idEv, symObjAddr: 0x21744, symBinAddr: 0x1000257B8, symSize: 0x18 }
  - { offsetInCU: 0x4A28C, offset: 0x4A28C, size: 0x8, addend: 0x0, symName: __ZNK2ff15ff_loadbalancer19get_num_outchannelsEv, symObjAddr: 0x2175C, symBinAddr: 0x1000257D0, symSize: 0x28 }
  - { offsetInCU: 0x4A2B2, offset: 0x4A2B2, size: 0x8, addend: 0x0, symName: __ZNK2ff15ff_loadbalancer18get_num_inchannelsEv, symObjAddr: 0x21784, symBinAddr: 0x1000257F8, symSize: 0xA0 }
  - { offsetInCU: 0x4A2E7, offset: 0x4A2E7, size: 0x8, addend: 0x0, symName: __ZNK2ff15ff_loadbalancer24get_num_feedbackchannelsEv, symObjAddr: 0x21824, symBinAddr: 0x100025898, symSize: 0x18 }
  - { offsetInCU: 0x4A30D, offset: 0x4A30D, size: 0x8, addend: 0x0, symName: __ZNK2ff15ff_loadbalancer11getnworkersEv, symObjAddr: 0x2183C, symBinAddr: 0x1000258B0, symSize: 0x18 }
  - { offsetInCU: 0x4A333, offset: 0x4A333, size: 0x8, addend: 0x0, symName: __ZN2ff15ff_loadbalancer12propagateEOSEPv, symObjAddr: 0x21854, symBinAddr: 0x1000258C8, symSize: 0x2C }
  - { offsetInCU: 0x4A367, offset: 0x4A367, size: 0x8, addend: 0x0, symName: __ZN2ff15ff_loadbalancer13blocking_modeEb, symObjAddr: 0x21880, symBinAddr: 0x1000258F4, symSize: 0x34 }
  - { offsetInCU: 0x4A39C, offset: 0x4A39C, size: 0x8, addend: 0x0, symName: __ZNSt3__16vectorI8FileDataNS_9allocatorIS1_EEEixB8ue170006Em, symObjAddr: 0x218B4, symBinAddr: 0x100025928, symSize: 0x2C }
  - { offsetInCU: 0x4A3D3, offset: 0x4A3D3, size: 0x8, addend: 0x0, symName: __ZN8L_Worker14doWorkCompressEPhmRKNSt3__112basic_stringIcNS1_11char_traitsIcEENS1_9allocatorIcEEEE, symObjAddr: 0x218E0, symBinAddr: 0x100025954, symSize: 0x2B4 }
  - { offsetInCU: 0x4A49B, offset: 0x4A49B, size: 0x8, addend: 0x0, symName: __ZN8L_Worker16doWorkDecompressEPhmRKNSt3__112basic_stringIcNS1_11char_traitsIcEENS1_9allocatorIcEEEE, symObjAddr: 0x21B94, symBinAddr: 0x100025C08, symSize: 0x39C }
  - { offsetInCU: 0x4A5DD, offset: 0x4A5DD, size: 0x8, addend: 0x0, symName: __ZN4TaskC1EPhmRKNSt3__112basic_stringIcNS1_11char_traitsIcEENS1_9allocatorIcEEEE, symObjAddr: 0x21F30, symBinAddr: 0x100025FA4, symSize: 0x44 }
  - { offsetInCU: 0x4A631, offset: 0x4A631, size: 0x8, addend: 0x0, symName: __ZN4TaskC2EPhmRKNSt3__112basic_stringIcNS1_11char_traitsIcEENS1_9allocatorIcEEEE, symObjAddr: 0x21F74, symBinAddr: 0x100025FE8, symSize: 0x7C }
  - { offsetInCU: 0x4A685, offset: 0x4A685, size: 0x8, addend: 0x0, symName: __ZNSt3__16vectorImNS_9allocatorImEEEC1Em, symObjAddr: 0x21FF0, symBinAddr: 0x100026064, symSize: 0x34 }
  - { offsetInCU: 0x4A6C0, offset: 0x4A6C0, size: 0x8, addend: 0x0, symName: __ZNSt3__16vectorImNS_9allocatorImEEEC2Em, symObjAddr: 0x22024, symBinAddr: 0x100026098, symSize: 0xD4 }
  - { offsetInCU: 0x4A711, offset: 0x4A711, size: 0x8, addend: 0x0, symName: __ZNSt3__16vectorImNS_9allocatorImEEE18__construct_at_endEm, symObjAddr: 0x220F8, symBinAddr: 0x10002616C, symSize: 0xC8 }
  - { offsetInCU: 0x4A783, offset: 0x4A783, size: 0x8, addend: 0x0, symName: __ZNSt3__116allocator_traitsINS_9allocatorImEEE9constructB8ue170006ImJEvvEEvRS2_PT_DpOT0_, symObjAddr: 0x221C0, symBinAddr: 0x100026234, symSize: 0x28 }
  - { offsetInCU: 0x4A7C3, offset: 0x4A7C3, size: 0x8, addend: 0x0, symName: __ZN8R_WorkerC2Em, symObjAddr: 0x22208, symBinAddr: 0x10002627C, symSize: 0x50 }
  - { offsetInCU: 0x4A7FB, offset: 0x4A7FB, size: 0x8, addend: 0x0, symName: __ZN2ff11ff_minode_tI4TaskS1_EC2Ev, symObjAddr: 0x22258, symBinAddr: 0x1000262CC, symSize: 0x84 }
  - { offsetInCU: 0x4A825, offset: 0x4A825, size: 0x8, addend: 0x0, symName: __ZN2ff9ff_minode19init_input_blockingERP23_opaque_pthread_mutex_tRP22_opaque_pthread_cond_tb, symObjAddr: 0x222DC, symBinAddr: 0x100026350, symSize: 0x194 }
  - { offsetInCU: 0x4A8BB, offset: 0x4A8BB, size: 0x8, addend: 0x0, symName: __ZN2ff9ff_minode20init_output_blockingERP23_opaque_pthread_mutex_tRP22_opaque_pthread_cond_tb, symObjAddr: 0x22470, symBinAddr: 0x1000264E4, symSize: 0xF0 }
  - { offsetInCU: 0x4A919, offset: 0x4A919, size: 0x8, addend: 0x0, symName: __ZN2ff9ff_minode19set_output_blockingERP23_opaque_pthread_mutex_tRP22_opaque_pthread_cond_tb, symObjAddr: 0x22560, symBinAddr: 0x1000265D4, symSize: 0xCC }
  - { offsetInCU: 0x4A977, offset: 0x4A977, size: 0x8, addend: 0x0, symName: __ZN2ff9ff_minode10get_cons_cEv, symObjAddr: 0x2262C, symBinAddr: 0x1000266A0, symSize: 0x28 }
  - { offsetInCU: 0x4A99D, offset: 0x4A99D, size: 0x8, addend: 0x0, symName: __ZN2ff9ff_minode12skipfirstpopEb, symObjAddr: 0x22654, symBinAddr: 0x1000266C8, symSize: 0x50 }
  - { offsetInCU: 0x4A9D2, offset: 0x4A9D2, size: 0x8, addend: 0x0, symName: __ZN2ff9ff_minode19create_input_bufferEib, symObjAddr: 0x226A4, symBinAddr: 0x100026718, symSize: 0x128 }
  - { offsetInCU: 0x4AA22, offset: 0x4AA22, size: 0x8, addend: 0x0, symName: __ZN2ff9ff_minode9set_inputERKNS_7svectorIPNS_7ff_nodeEEE, symObjAddr: 0x227CC, symBinAddr: 0x100026840, symSize: 0x34 }
  - { offsetInCU: 0x4AA57, offset: 0x4AA57, size: 0x8, addend: 0x0, symName: __ZN2ff9ff_minode9set_inputEPNS_7ff_nodeE, symObjAddr: 0x22800, symBinAddr: 0x100026874, symSize: 0x38 }
  - { offsetInCU: 0x4AA8C, offset: 0x4AA8C, size: 0x8, addend: 0x0, symName: __ZN2ff9ff_minode18set_input_feedbackEPNS_7ff_nodeE, symObjAddr: 0x22838, symBinAddr: 0x1000268AC, symSize: 0x38 }
  - { offsetInCU: 0x4AAC1, offset: 0x4AAC1, size: 0x8, addend: 0x0, symName: __ZN2ff9ff_minode19set_input_channelidElb, symObjAddr: 0x22870, symBinAddr: 0x1000268E4, symSize: 0x44 }
  - { offsetInCU: 0x4AB05, offset: 0x4AB05, size: 0x8, addend: 0x0, symName: __ZN2ff9ff_minode7prepareEv, symObjAddr: 0x228B4, symBinAddr: 0x100026928, symSize: 0x74 }
  - { offsetInCU: 0x4AB2B, offset: 0x4AB2B, size: 0x8, addend: 0x0, symName: __ZN2ff9ff_minode6dryrunEv, symObjAddr: 0x22928, symBinAddr: 0x10002699C, symSize: 0x184 }
  - { offsetInCU: 0x4AB89, offset: 0x4AB89, size: 0x8, addend: 0x0, symName: __ZN2ff9ff_minode3runEb, symObjAddr: 0x22AAC, symBinAddr: 0x100026B20, symSize: 0x15C }
  - { offsetInCU: 0x4ABBB, offset: 0x4ABBB, size: 0x8, addend: 0x0, symName: __ZN2ff9ff_minode14freeze_and_runEb, symObjAddr: 0x22C08, symBinAddr: 0x100026C7C, symSize: 0x58 }
  - { offsetInCU: 0x4ABED, offset: 0x4ABED, size: 0x8, addend: 0x0, symName: __ZN2ff9ff_minode4waitEv, symObjAddr: 0x22C60, symBinAddr: 0x100026CD4, symSize: 0x58 }
  - { offsetInCU: 0x4AC13, offset: 0x4AC13, size: 0x8, addend: 0x0, symName: __ZN2ff9ff_minode13wait_freezingEv, symObjAddr: 0x22CB8, symBinAddr: 0x100026D2C, symSize: 0x30 }
  - { offsetInCU: 0x4AC39, offset: 0x4AC39, size: 0x8, addend: 0x0, symName: __ZNK2ff9ff_minode4doneEv, symObjAddr: 0x22CE8, symBinAddr: 0x100026D5C, symSize: 0x34 }
  - { offsetInCU: 0x4AC5F, offset: 0x4AC5F, size: 0x8, addend: 0x0, symName: __ZN2ff9ff_minode11cardinalityEPNS_11spinBarrierE, symObjAddr: 0x22D1C, symBinAddr: 0x100026D90, symSize: 0x38 }
  - { offsetInCU: 0x4AC93, offset: 0x4AC93, size: 0x8, addend: 0x0, symName: __ZN2ff9ff_minode5setgtEPNS_11ff_gathererEb, symObjAddr: 0x22D54, symBinAddr: 0x100026DC8, symSize: 0x94 }
  - { offsetInCU: 0x4ACD7, offset: 0x4ACD7, size: 0x8, addend: 0x0, symName: __ZN8R_WorkerD1Ev, symObjAddr: 0x22DE8, symBinAddr: 0x100026E5C, symSize: 0x2C }
  - { offsetInCU: 0x4AD03, offset: 0x4AD03, size: 0x8, addend: 0x0, symName: __ZN8R_WorkerD0Ev, symObjAddr: 0x22E14, symBinAddr: 0x100026E88, symSize: 0x34 }
  - { offsetInCU: 0x4AD2F, offset: 0x4AD2F, size: 0x8, addend: 0x0, symName: __ZN2ff11ff_minode_tI4TaskS1_E3svcEPv, symObjAddr: 0x22E48, symBinAddr: 0x100026EBC, symSize: 0x34 }
  - { offsetInCU: 0x4AD64, offset: 0x4AD64, size: 0x8, addend: 0x0, symName: __ZNK2ff9ff_minode8get_neosEv, symObjAddr: 0x22E7C, symBinAddr: 0x100026EF0, symSize: 0x2C }
  - { offsetInCU: 0x4AD8A, offset: 0x4AD8A, size: 0x8, addend: 0x0, symName: __ZN2ff9ff_minode13get_out_nodesERNS_7svectorIPNS_7ff_nodeEEE, symObjAddr: 0x22EA8, symBinAddr: 0x100026F1C, symSize: 0x34 }
  - { offsetInCU: 0x4ADBE, offset: 0x4ADBE, size: 0x8, addend: 0x0, symName: __ZN2ff9ff_minode12get_in_nodesERNS_7svectorIPNS_7ff_nodeEEE, symObjAddr: 0x22EDC, symBinAddr: 0x100026F50, symSize: 0xD4 }
  - { offsetInCU: 0x4AE00, offset: 0x4AE00, size: 0x8, addend: 0x0, symName: __ZN2ff9ff_minode21get_in_nodes_feedbackERNS_7svectorIPNS_7ff_nodeEEE, symObjAddr: 0x22FB0, symBinAddr: 0x100027024, symSize: 0x30 }
  - { offsetInCU: 0x4AE34, offset: 0x4AE34, size: 0x8, addend: 0x0, symName: __ZN2ff9ff_minode11set_barrierEPNS_11spinBarrierE, symObjAddr: 0x22FE0, symBinAddr: 0x100027054, symSize: 0x38 }
  - { offsetInCU: 0x4AE69, offset: 0x4AE69, size: 0x8, addend: 0x0, symName: __ZNK2ff9ff_minode11get_barrierEv, symObjAddr: 0x23018, symBinAddr: 0x10002708C, symSize: 0x30 }
  - { offsetInCU: 0x4AE8F, offset: 0x4AE8F, size: 0x8, addend: 0x0, symName: __ZN2ff9ff_minode3putEPv, symObjAddr: 0x23048, symBinAddr: 0x1000270BC, symSize: 0x8C }
  - { offsetInCU: 0x4AEC3, offset: 0x4AEC3, size: 0x8, addend: 0x0, symName: __ZNK2ff9ff_minode13get_in_bufferEv, symObjAddr: 0x230D4, symBinAddr: 0x100027148, symSize: 0xB0 }
  - { offsetInCU: 0x4AEE9, offset: 0x4AEE9, size: 0x8, addend: 0x0, symName: __ZNK2ff9ff_minode12getstarttimeEv, symObjAddr: 0x23184, symBinAddr: 0x1000271F8, symSize: 0x40 }
  - { offsetInCU: 0x4AF0F, offset: 0x4AF0F, size: 0x8, addend: 0x0, symName: __ZNK2ff9ff_minode11getstoptimeEv, symObjAddr: 0x231C4, symBinAddr: 0x100027238, symSize: 0x40 }
  - { offsetInCU: 0x4AF35, offset: 0x4AF35, size: 0x8, addend: 0x0, symName: __ZNK2ff9ff_minode12getwstartimeEv, symObjAddr: 0x23204, symBinAddr: 0x100027278, symSize: 0x40 }
  - { offsetInCU: 0x4AF5B, offset: 0x4AF5B, size: 0x8, addend: 0x0, symName: __ZNK2ff9ff_minode12getwstoptimeEv, symObjAddr: 0x23244, symBinAddr: 0x1000272B8, symSize: 0x40 }
  - { offsetInCU: 0x4AF81, offset: 0x4AF81, size: 0x8, addend: 0x0, symName: __ZNK2ff9ff_minode12isMultiInputEv, symObjAddr: 0x23284, symBinAddr: 0x1000272F8, symSize: 0x18 }
  - { offsetInCU: 0x4AFA7, offset: 0x4AFA7, size: 0x8, addend: 0x0, symName: __ZNK2ff9ff_minode14get_channel_idEv, symObjAddr: 0x2329C, symBinAddr: 0x100027310, symSize: 0x28 }
  - { offsetInCU: 0x4AFCD, offset: 0x4AFCD, size: 0x8, addend: 0x0, symName: __ZNK2ff9ff_minode19get_num_outchannelsEv, symObjAddr: 0x232C4, symBinAddr: 0x100027338, symSize: 0x8C }
  - { offsetInCU: 0x4AFF3, offset: 0x4AFF3, size: 0x8, addend: 0x0, symName: __ZNK2ff9ff_minode18get_num_inchannelsEv, symObjAddr: 0x23350, symBinAddr: 0x1000273C4, symSize: 0x28 }
  - { offsetInCU: 0x4B019, offset: 0x4B019, size: 0x8, addend: 0x0, symName: __ZNK2ff9ff_minode24get_num_feedbackchannelsEv, symObjAddr: 0x23378, symBinAddr: 0x1000273EC, symSize: 0x28 }
  - { offsetInCU: 0x4B03F, offset: 0x4B03F, size: 0x8, addend: 0x0, symName: __ZN2ff9ff_minode25registerAllGatherCallbackEPFiPvPS1_S1_ES1_, symObjAddr: 0x233A0, symBinAddr: 0x100027414, symSize: 0x38 }
  - { offsetInCU: 0x4B081, offset: 0x4B081, size: 0x8, addend: 0x0, symName: __ZN2ff9ff_minode13blocking_modeEb, symObjAddr: 0x233D8, symBinAddr: 0x10002744C, symSize: 0x50 }
  - { offsetInCU: 0x4B0B5, offset: 0x4B0B5, size: 0x8, addend: 0x0, symName: __ZN8R_Worker3svcEP4Task, symObjAddr: 0x23428, symBinAddr: 0x10002749C, symSize: 0x4B0 }
  - { offsetInCU: 0x4B169, offset: 0x4B169, size: 0x8, addend: 0x0, symName: __ZN2ff9ff_minodeC2Ei, symObjAddr: 0x238D8, symBinAddr: 0x10002794C, symSize: 0x138 }
  - { offsetInCU: 0x4B1A1, offset: 0x4B1A1, size: 0x8, addend: 0x0, symName: __ZN2ff11ff_minode_tI4TaskS1_ED1Ev, symObjAddr: 0x23A10, symBinAddr: 0x100027A84, symSize: 0x14 }
  - { offsetInCU: 0x4B1CB, offset: 0x4B1CB, size: 0x8, addend: 0x0, symName: __ZN2ff11ff_minode_tI4TaskS1_ED0Ev, symObjAddr: 0x23A24, symBinAddr: 0x100027A98, symSize: 0xC }
  - { offsetInCU: 0x4B1F5, offset: 0x4B1F5, size: 0x8, addend: 0x0, symName: __ZN2ff11ff_gathererC1Ei, symObjAddr: 0x23A30, symBinAddr: 0x100027AA4, symSize: 0x34 }
  - { offsetInCU: 0x4B22E, offset: 0x4B22E, size: 0x8, addend: 0x0, symName: __ZN2ff9ff_minodeD1Ev, symObjAddr: 0x23A64, symBinAddr: 0x100027AD8, symSize: 0x14 }
  - { offsetInCU: 0x4B258, offset: 0x4B258, size: 0x8, addend: 0x0, symName: __ZN2ff9ff_minodeD0Ev, symObjAddr: 0x23A78, symBinAddr: 0x100027AEC, symSize: 0xC }
  - { offsetInCU: 0x4B282, offset: 0x4B282, size: 0x8, addend: 0x0, symName: __ZN2ff11ff_gathererC2Ei, symObjAddr: 0x23A84, symBinAddr: 0x100027AF8, symSize: 0x18C }
  - { offsetInCU: 0x4B2BB, offset: 0x4B2BB, size: 0x8, addend: 0x0, symName: __ZN2ff7svectorIbE6resizeEm, symObjAddr: 0x23C10, symBinAddr: 0x100027C84, symSize: 0xBC }
  - { offsetInCU: 0x4B2EF, offset: 0x4B2EF, size: 0x8, addend: 0x0, symName: __ZN2ff11ff_gathererD1Ev, symObjAddr: 0x23CCC, symBinAddr: 0x100027D40, symSize: 0x2C }
  - { offsetInCU: 0x4B319, offset: 0x4B319, size: 0x8, addend: 0x0, symName: __ZN2ff11ff_gathererD0Ev, symObjAddr: 0x23CF8, symBinAddr: 0x100027D6C, symSize: 0x30 }
  - { offsetInCU: 0x4B343, offset: 0x4B343, size: 0x8, addend: 0x0, symName: __ZN2ff11ff_gatherer3svcEPv, symObjAddr: 0x23D28, symBinAddr: 0x100027D9C, symSize: 0x680 }
  - { offsetInCU: 0x4B3CF, offset: 0x4B3CF, size: 0x8, addend: 0x0, symName: __ZN2ff11ff_gatherer8svc_initEv, symObjAddr: 0x243A8, symBinAddr: 0x10002841C, symSize: 0x110 }
  - { offsetInCU: 0x4B412, offset: 0x4B412, size: 0x8, addend: 0x0, symName: __ZN2ff11ff_gatherer7svc_endEv, symObjAddr: 0x244B8, symBinAddr: 0x10002852C, symSize: 0x60 }
  - { offsetInCU: 0x4B438, offset: 0x4B438, size: 0x8, addend: 0x0, symName: __ZN2ff11ff_gatherer10no_mappingEv, symObjAddr: 0x24518, symBinAddr: 0x10002858C, symSize: 0x18 }
  - { offsetInCU: 0x4B45E, offset: 0x4B45E, size: 0x8, addend: 0x0, symName: __ZN2ff11ff_gatherer3runEb, symObjAddr: 0x24530, symBinAddr: 0x1000285A4, symSize: 0xBC }
  - { offsetInCU: 0x4B490, offset: 0x4B490, size: 0x8, addend: 0x0, symName: __ZN2ff11ff_gatherer13wait_freezingEv, symObjAddr: 0x245EC, symBinAddr: 0x100028660, symSize: 0x3C }
  - { offsetInCU: 0x4B4C5, offset: 0x4B4C5, size: 0x8, addend: 0x0, symName: __ZN2ff11ff_gatherer4thawEbl, symObjAddr: 0x24628, symBinAddr: 0x10002869C, symSize: 0xE4 }
  - { offsetInCU: 0x4B509, offset: 0x4B509, size: 0x8, addend: 0x0, symName: __ZN2ff11ff_gatherer12selectworkerEv, symObjAddr: 0x2470C, symBinAddr: 0x100028780, symSize: 0x70 }
  - { offsetInCU: 0x4B52F, offset: 0x4B52F, size: 0x8, addend: 0x0, symName: __ZN2ff11ff_gatherer9notifyeosEi, symObjAddr: 0x2477C, symBinAddr: 0x1000287F0, symSize: 0x14 }
  - { offsetInCU: 0x4B55F, offset: 0x4B55F, size: 0x8, addend: 0x0, symName: __ZN2ff11ff_gatherer9nattemptsEv, symObjAddr: 0x24790, symBinAddr: 0x100028804, symSize: 0x24 }
  - { offsetInCU: 0x4B585, offset: 0x4B585, size: 0x8, addend: 0x0, symName: __ZN2ff11ff_gatherer12losetime_outEm, symObjAddr: 0x247B4, symBinAddr: 0x100028828, symSize: 0x28 }
  - { offsetInCU: 0x4B5B9, offset: 0x4B5B9, size: 0x8, addend: 0x0, symName: __ZN2ff11ff_gatherer11losetime_inEm, symObjAddr: 0x247DC, symBinAddr: 0x100028850, symSize: 0x28 }
  - { offsetInCU: 0x4B5ED, offset: 0x4B5ED, size: 0x8, addend: 0x0, symName: __ZN2ff11ff_gatherer11gather_taskEPPv, symObjAddr: 0x24804, symBinAddr: 0x100028878, symSize: 0x154 }
  - { offsetInCU: 0x4B64B, offset: 0x4B64B, size: 0x8, addend: 0x0, symName: __ZN2ff11ff_gatherer10all_gatherEPvPS1_, symObjAddr: 0x24958, symBinAddr: 0x1000289CC, symSize: 0x49C }
  - { offsetInCU: 0x4B73F, offset: 0x4B73F, size: 0x8, addend: 0x0, symName: __ZN2ff11ff_gatherer6ffTimeEv, symObjAddr: 0x24DF4, symBinAddr: 0x100028E68, symSize: 0x30 }
  - { offsetInCU: 0x4B765, offset: 0x4B765, size: 0x8, addend: 0x0, symName: __ZN2ff11ff_gatherer7wffTimeEv, symObjAddr: 0x24E24, symBinAddr: 0x100028E98, symSize: 0x30 }
  - { offsetInCU: 0x4B78B, offset: 0x4B78B, size: 0x8, addend: 0x0, symName: __ZNK2ff11ff_gatherer12getstarttimeEv, symObjAddr: 0x24E54, symBinAddr: 0x100028EC8, symSize: 0x18 }
  - { offsetInCU: 0x4B7B1, offset: 0x4B7B1, size: 0x8, addend: 0x0, symName: __ZNK2ff11ff_gatherer11getstoptimeEv, symObjAddr: 0x24E6C, symBinAddr: 0x100028EE0, symSize: 0x18 }
  - { offsetInCU: 0x4B7D7, offset: 0x4B7D7, size: 0x8, addend: 0x0, symName: __ZNK2ff11ff_gatherer12getwstartimeEv, symObjAddr: 0x24E84, symBinAddr: 0x100028EF8, symSize: 0x18 }
  - { offsetInCU: 0x4B7FD, offset: 0x4B7FD, size: 0x8, addend: 0x0, symName: __ZNK2ff11ff_gatherer12getwstoptimeEv, symObjAddr: 0x24E9C, symBinAddr: 0x100028F10, symSize: 0x18 }
  - { offsetInCU: 0x4B823, offset: 0x4B823, size: 0x8, addend: 0x0, symName: __ZN2ff11ff_gathererD2Ev, symObjAddr: 0x24EB4, symBinAddr: 0x100028F28, symSize: 0x170 }
  - { offsetInCU: 0x4B84D, offset: 0x4B84D, size: 0x8, addend: 0x0, symName: __ZN2ff11ff_gatherer4pushEPvmm, symObjAddr: 0x25024, symBinAddr: 0x100029098, symSize: 0x2C8 }
  - { offsetInCU: 0x4B947, offset: 0x4B947, size: 0x8, addend: 0x0, symName: __ZN2ff11ff_gatherer6dryrunEv, symObjAddr: 0x252EC, symBinAddr: 0x100029360, symSize: 0x11C }
  - { offsetInCU: 0x4B96D, offset: 0x4B96D, size: 0x8, addend: 0x0, symName: __ZN2ff11ff_gatherer21ff_send_out_collectorEPvimmS1_, symObjAddr: 0x25408, symBinAddr: 0x10002947C, symSize: 0x54 }
  - { offsetInCU: 0x4B9DC, offset: 0x4B9DC, size: 0x8, addend: 0x0, symName: __ZNK2ff11ff_gatherer11getnworkersEv, symObjAddr: 0x2545C, symBinAddr: 0x1000294D0, symSize: 0x28 }
  - { offsetInCU: 0x4BA02, offset: 0x4BA02, size: 0x8, addend: 0x0, symName: __ZN2ff7svectorImEC1Em, symObjAddr: 0x25484, symBinAddr: 0x1000294F8, symSize: 0x34 }
  - { offsetInCU: 0x4BA3A, offset: 0x4BA3A, size: 0x8, addend: 0x0, symName: __ZN2ff7svectorImE9push_backERKm, symObjAddr: 0x254B8, symBinAddr: 0x10002952C, symSize: 0x78 }
  - { offsetInCU: 0x4BA6E, offset: 0x4BA6E, size: 0x8, addend: 0x0, symName: __ZNK2ff7svectorImE4sizeEv, symObjAddr: 0x25530, symBinAddr: 0x1000295A4, symSize: 0x18 }
  - { offsetInCU: 0x4BA94, offset: 0x4BA94, size: 0x8, addend: 0x0, symName: __ZNK2ff7svectorImE4backEv, symObjAddr: 0x25548, symBinAddr: 0x1000295BC, symSize: 0x24 }
  - { offsetInCU: 0x4BABA, offset: 0x4BABA, size: 0x8, addend: 0x0, symName: __ZN2ff7svectorImE8pop_backEv, symObjAddr: 0x2556C, symBinAddr: 0x1000295E0, symSize: 0x20 }
  - { offsetInCU: 0x4BAE0, offset: 0x4BAE0, size: 0x8, addend: 0x0, symName: __ZN2ff7svectorImED1Ev, symObjAddr: 0x2558C, symBinAddr: 0x100029600, symSize: 0x2C }
  - { offsetInCU: 0x4BB0A, offset: 0x4BB0A, size: 0x8, addend: 0x0, symName: __ZN2ff7svectorImEC2Em, symObjAddr: 0x255B8, symBinAddr: 0x10002962C, symSize: 0x80 }
  - { offsetInCU: 0x4BB42, offset: 0x4BB42, size: 0x8, addend: 0x0, symName: __ZN2ff7svectorImE7reserveEm, symObjAddr: 0x25638, symBinAddr: 0x1000296AC, symSize: 0xAC }
  - { offsetInCU: 0x4BB76, offset: 0x4BB76, size: 0x8, addend: 0x0, symName: __ZN2ff7svectorImED2Ev, symObjAddr: 0x256E4, symBinAddr: 0x100029758, symSize: 0x70 }
  - { offsetInCU: 0x4BBA0, offset: 0x4BBA0, size: 0x8, addend: 0x0, symName: __ZN2ff7svectorImE5clearEv, symObjAddr: 0x25754, symBinAddr: 0x1000297C8, symSize: 0x4C }
  - { offsetInCU: 0x4BBC6, offset: 0x4BBC6, size: 0x8, addend: 0x0, symName: __ZN2ff11ff_gatherer19init_input_blockingERP23_opaque_pthread_mutex_tRP22_opaque_pthread_cond_tb, symObjAddr: 0x257A0, symBinAddr: 0x100029814, symSize: 0x1C0 }
  - { offsetInCU: 0x4BC12, offset: 0x4BC12, size: 0x8, addend: 0x0, symName: __ZNK2ff11ff_gatherer10get_filterEv, symObjAddr: 0x25960, symBinAddr: 0x1000299D4, symSize: 0x4C }
  - { offsetInCU: 0x4BC38, offset: 0x4BC38, size: 0x8, addend: 0x0, symName: __ZN2ff11ff_gatherer10get_cons_cEv, symObjAddr: 0x259AC, symBinAddr: 0x100029A20, symSize: 0x18 }
  - { offsetInCU: 0x4BC5E, offset: 0x4BC5E, size: 0x8, addend: 0x0, symName: __ZN2ff11ff_gatherer12skipfirstpopEb, symObjAddr: 0x259C4, symBinAddr: 0x100029A38, symSize: 0x2C }
  - { offsetInCU: 0x4BC93, offset: 0x4BC93, size: 0x8, addend: 0x0, symName: __ZN2ff13ff_buffernodeC1Eibii, symObjAddr: 0x259F0, symBinAddr: 0x100029A64, symSize: 0x58 }
  - { offsetInCU: 0x4BCF9, offset: 0x4BCF9, size: 0x8, addend: 0x0, symName: __ZN2ff13ff_buffernodeC2Eibii, symObjAddr: 0x25A48, symBinAddr: 0x100029ABC, symSize: 0xA0 }
  - { offsetInCU: 0x4BD5F, offset: 0x4BD5F, size: 0x8, addend: 0x0, symName: __ZN2ff13ff_buffernode3setEibii, symObjAddr: 0x25AE8, symBinAddr: 0x100029B5C, symSize: 0x11C }
  - { offsetInCU: 0x4BDC1, offset: 0x4BDC1, size: 0x8, addend: 0x0, symName: __ZN2ff11ff_gatherer19set_input_channelidElb, symObjAddr: 0x25C04, symBinAddr: 0x100029C78, symSize: 0x38 }
  - { offsetInCU: 0x4BE05, offset: 0x4BE05, size: 0x8, addend: 0x0, symName: __ZN2ff11ff_gatherer15register_workerEPNS_7ff_nodeE, symObjAddr: 0x25C3C, symBinAddr: 0x100029CB0, symSize: 0x8C }
  - { offsetInCU: 0x4BE3A, offset: 0x4BE3A, size: 0x8, addend: 0x0, symName: __ZN2ff11ff_gatherer24set_feedbackid_thresholdEm, symObjAddr: 0x25CC8, symBinAddr: 0x100029D3C, symSize: 0x20 }
  - { offsetInCU: 0x4BE6F, offset: 0x4BE6F, size: 0x8, addend: 0x0, symName: __ZN2ff11ff_gatherer10set_filterEPNS_7ff_nodeE, symObjAddr: 0x25CE8, symBinAddr: 0x100029D5C, symSize: 0xE8 }
  - { offsetInCU: 0x4BEA4, offset: 0x4BEA4, size: 0x8, addend: 0x0, symName: __ZN8R_WorkerD2Ev, symObjAddr: 0x25DD0, symBinAddr: 0x100029E44, symSize: 0x2C }
  - { offsetInCU: 0x4BED0, offset: 0x4BED0, size: 0x8, addend: 0x0, symName: __ZN2ff11ff_minode_tI4TaskS1_ED2Ev, symObjAddr: 0x25DFC, symBinAddr: 0x100029E70, symSize: 0x2C }
  - { offsetInCU: 0x4BEFA, offset: 0x4BEFA, size: 0x8, addend: 0x0, symName: __ZN2ff9ff_minodeD2Ev, symObjAddr: 0x25E28, symBinAddr: 0x100029E9C, symSize: 0x154 }
  - { offsetInCU: 0x4BF39, offset: 0x4BF39, size: 0x8, addend: 0x0, symName: __ZNK2ff11ff_gatherer11getNWorkersEv, symObjAddr: 0x25F7C, symBinAddr: 0x100029FF0, symSize: 0x28 }
  - { offsetInCU: 0x4BF5F, offset: 0x4BF5F, size: 0x8, addend: 0x0, symName: __ZNK2ff11ff_gatherer10getWorkersEv, symObjAddr: 0x25FA4, symBinAddr: 0x10002A018, symSize: 0x18 }
  - { offsetInCU: 0x4BF85, offset: 0x4BF85, size: 0x8, addend: 0x0, symName: __ZNK2ff7svectorIPNS_7ff_nodeEEixEm, symObjAddr: 0x25FBC, symBinAddr: 0x10002A030, symSize: 0x24 }
  - { offsetInCU: 0x4BFBA, offset: 0x4BFBA, size: 0x8, addend: 0x0, symName: __ZNK2ff11ff_gatherer14get_channel_idEv, symObjAddr: 0x25FE0, symBinAddr: 0x10002A054, symSize: 0x18 }
  - { offsetInCU: 0x4BFE0, offset: 0x4BFE0, size: 0x8, addend: 0x0, symName: __ZNK2ff11ff_gatherer14get_out_bufferEv, symObjAddr: 0x25FF8, symBinAddr: 0x10002A06C, symSize: 0x18 }
  - { offsetInCU: 0x4C006, offset: 0x4C006, size: 0x8, addend: 0x0, symName: __ZNK2ff11ff_gatherer19get_num_outchannelsEv, symObjAddr: 0x26010, symBinAddr: 0x10002A084, symSize: 0xA0 }
  - { offsetInCU: 0x4C02C, offset: 0x4C02C, size: 0x8, addend: 0x0, symName: __ZNK2ff11ff_gatherer18get_num_inchannelsEv, symObjAddr: 0x260B0, symBinAddr: 0x10002A124, symSize: 0x18 }
  - { offsetInCU: 0x4C052, offset: 0x4C052, size: 0x8, addend: 0x0, symName: __ZNK2ff11ff_gatherer24get_num_feedbackchannelsEv, symObjAddr: 0x260C8, symBinAddr: 0x10002A13C, symSize: 0x18 }
  - { offsetInCU: 0x4C078, offset: 0x4C078, size: 0x8, addend: 0x0, symName: __ZN2ff11ff_gatherer25registerAllGatherCallbackEPFiPvPS1_S1_ES1_, symObjAddr: 0x260E0, symBinAddr: 0x10002A154, symSize: 0x2C }
  - { offsetInCU: 0x4C0BC, offset: 0x4C0BC, size: 0x8, addend: 0x0, symName: __ZN2ff11ff_gatherer13blocking_modeEb, symObjAddr: 0x2610C, symBinAddr: 0x10002A180, symSize: 0x34 }
  - { offsetInCU: 0x4C0F1, offset: 0x4C0F1, size: 0x8, addend: 0x0, symName: __ZN4TaskD1Ev, symObjAddr: 0x26140, symBinAddr: 0x10002A1B4, symSize: 0x2C }
  - { offsetInCU: 0x4C11D, offset: 0x4C11D, size: 0x8, addend: 0x0, symName: __ZN8R_Worker17handleSingleBlockEP4Task, symObjAddr: 0x2616C, symBinAddr: 0x10002A1E0, symSize: 0x200 }
  - { offsetInCU: 0x4C183, offset: 0x4C183, size: 0x8, addend: 0x0, symName: __ZN8R_Worker21decompressSingleBlockEP4Task, symObjAddr: 0x2636C, symBinAddr: 0x10002A3E0, symSize: 0x444 }
  - { offsetInCU: 0x4C238, offset: 0x4C238, size: 0x8, addend: 0x0, symName: __ZN8R_Worker15decompressBlockEPhmS0_Rm, symObjAddr: 0x267B0, symBinAddr: 0x10002A824, symSize: 0xA0 }
  - { offsetInCU: 0x4C29A, offset: 0x4C29A, size: 0x8, addend: 0x0, symName: __ZN4TaskD2Ev, symObjAddr: 0x26850, symBinAddr: 0x10002A8C4, symSize: 0x30 }
  - { offsetInCU: 0x4C367, offset: 0x4C367, size: 0x8, addend: 0x0, symName: __ZNSt3__114basic_ofstreamIcNS_11char_traitsIcEEEC1ERKNS_12basic_stringIcS2_NS_9allocatorIcEEEEj, symObjAddr: 0x2699C, symBinAddr: 0x10002AA10, symSize: 0x16C }
  - { offsetInCU: 0x4C3B1, offset: 0x4C3B1, size: 0x8, addend: 0x0, symName: __ZNKSt3__114basic_ofstreamIcNS_11char_traitsIcEEE7is_openEv, symObjAddr: 0x26B08, symBinAddr: 0x10002AB7C, symSize: 0x2C }
  - { offsetInCU: 0x4C3D9, offset: 0x4C3D9, size: 0x8, addend: 0x0, symName: __ZN8R_Worker11cleanupTaskEP4Task, symObjAddr: 0x26B34, symBinAddr: 0x10002ABA8, symSize: 0x88 }
  - { offsetInCU: 0x4C40E, offset: 0x4C40E, size: 0x8, addend: 0x0, symName: __ZNSt3__114basic_ofstreamIcNS_11char_traitsIcEEE5closeEv, symObjAddr: 0x26BBC, symBinAddr: 0x10002AC30, symSize: 0x58 }
  - { offsetInCU: 0x4C43B, offset: 0x4C43B, size: 0x8, addend: 0x0, symName: __ZNSt3__114basic_ofstreamIcNS_11char_traitsIcEEED1Ev, symObjAddr: 0x26C14, symBinAddr: 0x10002AC88, symSize: 0x40 }
  - { offsetInCU: 0x4C473, offset: 0x4C473, size: 0x8, addend: 0x0, symName: __ZNSt3__116allocator_traitsINS_9allocatorIcEEE37select_on_container_copy_constructionB8ue170006IS2_vvEES2_RKS2_, symObjAddr: 0x26C54, symBinAddr: 0x10002ACC8, symSize: 0x10 }
  - { offsetInCU: 0x4C4A2, offset: 0x4C4A2, size: 0x8, addend: 0x0, symName: __ZNKSt3__112basic_stringIcNS_11char_traitsIcEENS_9allocatorIcEEE13get_allocatorB8ue170006Ev, symObjAddr: 0x26C64, symBinAddr: 0x10002ACD8, symSize: 0x24 }
  - { offsetInCU: 0x4C4C8, offset: 0x4C4C8, size: 0x8, addend: 0x0, symName: __ZNSt3__112basic_stringIcNS_11char_traitsIcEENS_9allocatorIcEEEC1B8ue170006ENS_24__uninitialized_size_tagEmRKS4_, symObjAddr: 0x26C88, symBinAddr: 0x10002ACFC, symSize: 0x3C }
  - { offsetInCU: 0x4C51C, offset: 0x4C51C, size: 0x8, addend: 0x0, symName: __ZNSt3__112basic_stringIcNS_11char_traitsIcEENS_9allocatorIcEEE13__get_pointerB8ue170006Ev, symObjAddr: 0x26CD8, symBinAddr: 0x10002AD4C, symSize: 0x54 }
  - { offsetInCU: 0x4C542, offset: 0x4C542, size: 0x8, addend: 0x0, symName: __ZNSt3__111char_traitsIcE4copyB8ue170006EPcPKcm, symObjAddr: 0x26D2C, symBinAddr: 0x10002ADA0, symSize: 0x40 }
  - { offsetInCU: 0x4C581, offset: 0x4C581, size: 0x8, addend: 0x0, symName: __ZNSt3__111char_traitsIcE6assignB8ue170006EPcmc, symObjAddr: 0x26D6C, symBinAddr: 0x10002ADE0, symSize: 0x44 }
  - { offsetInCU: 0x4C5C0, offset: 0x4C5C0, size: 0x8, addend: 0x0, symName: __ZNKSt3__112basic_stringIcNS_11char_traitsIcEENS_9allocatorIcEEE7__allocB8ue170006Ev, symObjAddr: 0x26DB0, symBinAddr: 0x10002AE24, symSize: 0x24 }
  - { offsetInCU: 0x4C5E6, offset: 0x4C5E6, size: 0x8, addend: 0x0, symName: __ZNKSt3__117__compressed_pairINS_12basic_stringIcNS_11char_traitsIcEENS_9allocatorIcEEE5__repES5_E6secondB8ue170006Ev, symObjAddr: 0x26DD4, symBinAddr: 0x10002AE48, symSize: 0x24 }
  - { offsetInCU: 0x4C60C, offset: 0x4C60C, size: 0x8, addend: 0x0, symName: __ZNKSt3__122__compressed_pair_elemINS_9allocatorIcEELi1ELb1EE5__getB8ue170006Ev, symObjAddr: 0x26DF8, symBinAddr: 0x10002AE6C, symSize: 0x14 }
  - { offsetInCU: 0x4C632, offset: 0x4C632, size: 0x8, addend: 0x0, symName: __ZNSt3__112basic_stringIcNS_11char_traitsIcEENS_9allocatorIcEEEC2B8ue170006ENS_24__uninitialized_size_tagEmRKS4_, symObjAddr: 0x26E0C, symBinAddr: 0x10002AE80, symSize: 0x110 }
  - { offsetInCU: 0x4C6B2, offset: 0x4C6B2, size: 0x8, addend: 0x0, symName: __ZNSt3__117__compressed_pairINS_12basic_stringIcNS_11char_traitsIcEENS_9allocatorIcEEE5__repES5_EC1B8ue170006INS_18__default_init_tagERKS5_EEOT_OT0_, symObjAddr: 0x26F1C, symBinAddr: 0x10002AF90, symSize: 0x3C }
  - { offsetInCU: 0x4C70A, offset: 0x4C70A, size: 0x8, addend: 0x0, symName: __ZNKSt3__112basic_stringIcNS_11char_traitsIcEENS_9allocatorIcEEE8max_sizeB8ue170006Ev, symObjAddr: 0x26F58, symBinAddr: 0x10002AFCC, symSize: 0xAC }
  - { offsetInCU: 0x4C75C, offset: 0x4C75C, size: 0x8, addend: 0x0, symName: __ZNKSt3__112basic_stringIcNS_11char_traitsIcEENS_9allocatorIcEEE20__throw_length_errorB8ue170006Ev, symObjAddr: 0x27004, symBinAddr: 0x10002B078, symSize: 0x1C }
  - { offsetInCU: 0x4C782, offset: 0x4C782, size: 0x8, addend: 0x0, symName: __ZNSt3__112basic_stringIcNS_11char_traitsIcEENS_9allocatorIcEEE13__fits_in_ssoB8ue170006Em, symObjAddr: 0x27020, symBinAddr: 0x10002B094, symSize: 0x20 }
  - { offsetInCU: 0x4C7A6, offset: 0x4C7A6, size: 0x8, addend: 0x0, symName: __ZNSt3__112basic_stringIcNS_11char_traitsIcEENS_9allocatorIcEEE11__recommendB8ue170006Em, symObjAddr: 0x27040, symBinAddr: 0x10002B0B4, symSize: 0x84 }
  - { offsetInCU: 0x4C7D9, offset: 0x4C7D9, size: 0x8, addend: 0x0, symName: __ZNSt3__116allocator_traitsINS_9allocatorIcEEE8allocateB8ue170006ERS2_m, symObjAddr: 0x270C4, symBinAddr: 0x10002B138, symSize: 0x2C }
  - { offsetInCU: 0x4C80C, offset: 0x4C80C, size: 0x8, addend: 0x0, symName: __ZNSt3__112basic_stringIcNS_11char_traitsIcEENS_9allocatorIcEEE16__begin_lifetimeB8ue170006EPcm, symObjAddr: 0x270F0, symBinAddr: 0x10002B164, symSize: 0x14 }
  - { offsetInCU: 0x4C83F, offset: 0x4C83F, size: 0x8, addend: 0x0, symName: __ZNSt3__112basic_stringIcNS_11char_traitsIcEENS_9allocatorIcEEE14__set_long_capB8ue170006Em, symObjAddr: 0x27104, symBinAddr: 0x10002B178, symSize: 0x70 }
  - { offsetInCU: 0x4C874, offset: 0x4C874, size: 0x8, addend: 0x0, symName: __ZNSt3__112basic_stringIcNS_11char_traitsIcEENS_9allocatorIcEEE18__set_long_pointerB8ue170006EPc, symObjAddr: 0x27174, symBinAddr: 0x10002B1E8, symSize: 0x38 }
  - { offsetInCU: 0x4C8A9, offset: 0x4C8A9, size: 0x8, addend: 0x0, symName: __ZNSt3__112basic_stringIcNS_11char_traitsIcEENS_9allocatorIcEEE15__set_long_sizeB8ue170006Em, symObjAddr: 0x271AC, symBinAddr: 0x10002B220, symSize: 0x38 }
  - { offsetInCU: 0x4C8DE, offset: 0x4C8DE, size: 0x8, addend: 0x0, symName: __ZNSt3__117__compressed_pairINS_12basic_stringIcNS_11char_traitsIcEENS_9allocatorIcEEE5__repES5_EC2B8ue170006INS_18__default_init_tagERKS5_EEOT_OT0_, symObjAddr: 0x271E4, symBinAddr: 0x10002B258, symSize: 0x40 }
  - { offsetInCU: 0x4C936, offset: 0x4C936, size: 0x8, addend: 0x0, symName: __ZNSt3__122__compressed_pair_elemINS_9allocatorIcEELi1ELb1EEC2B8ue170006IRKS2_vEEOT_, symObjAddr: 0x27224, symBinAddr: 0x10002B298, symSize: 0x18 }
  - { offsetInCU: 0x4C978, offset: 0x4C978, size: 0x8, addend: 0x0, symName: __ZNSt3__116allocator_traitsINS_9allocatorIcEEE8max_sizeB8ue170006IS2_vvEEmRKS2_, symObjAddr: 0x2723C, symBinAddr: 0x10002B2B0, symSize: 0x28 }
  - { offsetInCU: 0x4C9A4, offset: 0x4C9A4, size: 0x8, addend: 0x0, symName: __ZNSt3__112basic_stringIcNS_11char_traitsIcEENS_9allocatorIcEEE10__align_itB8ue170006ILm16EEEmm, symObjAddr: 0x27264, symBinAddr: 0x10002B2D8, symSize: 0x1C }
  - { offsetInCU: 0x4C9D2, offset: 0x4C9D2, size: 0x8, addend: 0x0, symName: __ZNSt3__19allocatorIcE8allocateB8ue170006Em, symObjAddr: 0x27280, symBinAddr: 0x10002B2F4, symSize: 0x58 }
  - { offsetInCU: 0x4CA2C, offset: 0x4CA2C, size: 0x8, addend: 0x0, symName: __ZNKSt3__114__copy_trivialclB8ue170006IKccLi0EEENS_4pairIPT_PT0_EES5_S5_S7_, symObjAddr: 0x274D4, symBinAddr: 0x10002B548, symSize: 0x48 }
  - { offsetInCU: 0x4CAB1, offset: 0x4CAB1, size: 0x8, addend: 0x0, symName: __ZNSt3__119__unwrap_range_implIPKcS2_E8__unwrapB8ue170006ES2_S2_, symObjAddr: 0x275E0, symBinAddr: 0x10002B654, symSize: 0x58 }
  - { offsetInCU: 0x4CAE8, offset: 0x4CAE8, size: 0x8, addend: 0x0, symName: __ZNSt3__14pairIPKcS2_EC1B8ue170006IS2_S2_LPv0EEEOT_OT0_, symObjAddr: 0x2765C, symBinAddr: 0x10002B6D0, symSize: 0x3C }
  - { offsetInCU: 0x4CB46, offset: 0x4CB46, size: 0x8, addend: 0x0, symName: __ZNSt3__118__unwrap_iter_implIPKcLb1EE8__unwrapB8ue170006ES2_, symObjAddr: 0x27698, symBinAddr: 0x10002B70C, symSize: 0x24 }
  - { offsetInCU: 0x4CB69, offset: 0x4CB69, size: 0x8, addend: 0x0, symName: __ZNSt3__14pairIPKcS2_EC2B8ue170006IS2_S2_LPv0EEEOT_OT0_, symObjAddr: 0x276BC, symBinAddr: 0x10002B730, symSize: 0x34 }
  - { offsetInCU: 0x4CBCD, offset: 0x4CBCD, size: 0x8, addend: 0x0, symName: __ZNSt3__14pairIPKcPcEC1B8ue170006IRS2_S3_LPv0EEEOT_OT0_, symObjAddr: 0x27804, symBinAddr: 0x10002B878, symSize: 0x3C }
  - { offsetInCU: 0x4CC2B, offset: 0x4CC2B, size: 0x8, addend: 0x0, symName: __ZNSt3__14pairIPKcPcEC2B8ue170006IRS2_S3_LPv0EEEOT_OT0_, symObjAddr: 0x27840, symBinAddr: 0x10002B8B4, symSize: 0x34 }
  - { offsetInCU: 0x4CC89, offset: 0x4CC89, size: 0x8, addend: 0x0, symName: __ZNSt3__118__unwrap_iter_implIPcLb1EE8__unwrapB8ue170006ES1_, symObjAddr: 0x27874, symBinAddr: 0x10002B8E8, symSize: 0x24 }
  - { offsetInCU: 0x4CCAC, offset: 0x4CCAC, size: 0x8, addend: 0x0, symName: __ZNSt3__14pairIPKcPcEC1B8ue170006IS2_S3_LPv0EEEOT_OT0_, symObjAddr: 0x27898, symBinAddr: 0x10002B90C, symSize: 0x3C }
  - { offsetInCU: 0x4CD0A, offset: 0x4CD0A, size: 0x8, addend: 0x0, symName: __ZNSt3__14pairIPKcPcEC2B8ue170006IS2_S3_LPv0EEEOT_OT0_, symObjAddr: 0x278D4, symBinAddr: 0x10002B948, symSize: 0x34 }
  - { offsetInCU: 0x4CD68, offset: 0x4CD68, size: 0x8, addend: 0x0, symName: __ZNSt3__119__unwrap_range_implIPKcS2_E8__rewrapB8ue170006ES2_S2_, symObjAddr: 0x27908, symBinAddr: 0x10002B97C, symSize: 0x2C }
  - { offsetInCU: 0x4CD99, offset: 0x4CD99, size: 0x8, addend: 0x0, symName: __ZNSt3__118__unwrap_iter_implIPKcLb1EE8__rewrapB8ue170006ES2_S2_, symObjAddr: 0x27970, symBinAddr: 0x10002B9E4, symSize: 0x48 }
  - { offsetInCU: 0x4CDCA, offset: 0x4CDCA, size: 0x8, addend: 0x0, symName: __ZNSt3__118__unwrap_iter_implIPcLb1EE8__rewrapB8ue170006ES1_S1_, symObjAddr: 0x279B8, symBinAddr: 0x10002BA2C, symSize: 0x48 }
  - { offsetInCU: 0x4CDFB, offset: 0x4CDFB, size: 0x8, addend: 0x0, symName: __ZNSt3__19basic_iosIcNS_11char_traitsIcEEEC2B8ue170006Ev, symObjAddr: 0x27ABC, symBinAddr: 0x10002BB30, symSize: 0x44 }
  - { offsetInCU: 0x4CE25, offset: 0x4CE25, size: 0x8, addend: 0x0, symName: __ZNSt3__113basic_ostreamIcNS_11char_traitsIcEEEC2B8ue170006EPNS_15basic_streambufIcS2_EE, symObjAddr: 0x27B00, symBinAddr: 0x10002BB74, symSize: 0x60 }
  - { offsetInCU: 0x4CE6A, offset: 0x4CE6A, size: 0x8, addend: 0x0, symName: __ZNSt3__113basic_filebufIcNS_11char_traitsIcEEE4openERKNS_12basic_stringIcS2_NS_9allocatorIcEEEEj, symObjAddr: 0x27B60, symBinAddr: 0x10002BBD4, symSize: 0x44 }
  - { offsetInCU: 0x4CEAE, offset: 0x4CEAE, size: 0x8, addend: 0x0, symName: __ZNSt3__19basic_iosIcNS_11char_traitsIcEEE8setstateB8ue170006Ej, symObjAddr: 0x27BA4, symBinAddr: 0x10002BC18, symSize: 0x2C }
  - { offsetInCU: 0x4CEE3, offset: 0x4CEE3, size: 0x8, addend: 0x0, symName: __ZNSt3__18ios_baseC2B8ue170006Ev, symObjAddr: 0x27BD0, symBinAddr: 0x10002BC44, symSize: 0x24 }
  - { offsetInCU: 0x4CF0D, offset: 0x4CF0D, size: 0x8, addend: 0x0, symName: __ZNSt3__19basic_iosIcNS_11char_traitsIcEEE4initB8ue170006EPNS_15basic_streambufIcS2_EE, symObjAddr: 0x27BF4, symBinAddr: 0x10002BC68, symSize: 0x44 }
  - { offsetInCU: 0x4CF44, offset: 0x4CF44, size: 0x8, addend: 0x0, symName: __ZNSt3__111char_traitsIcE3eofB8ue170006Ev, symObjAddr: 0x27C38, symBinAddr: 0x10002BCAC, symSize: 0x8 }
  - { offsetInCU: 0x4CF58, offset: 0x4CF58, size: 0x8, addend: 0x0, symName: __ZNSt3__18ios_base8setstateB8ue170006Ej, symObjAddr: 0x27C40, symBinAddr: 0x10002BCB4, symSize: 0x34 }
  - { offsetInCU: 0x4CF8F, offset: 0x4CF8F, size: 0x8, addend: 0x0, symName: __ZNKSt3__113basic_filebufIcNS_11char_traitsIcEEE7is_openEv, symObjAddr: 0x27C74, symBinAddr: 0x10002BCE8, symSize: 0x24 }
  - { offsetInCU: 0x4CFB7, offset: 0x4CFB7, size: 0x8, addend: 0x0, symName: __ZNSt3__114basic_ofstreamIcNS_11char_traitsIcEEED2Ev, symObjAddr: 0x27C98, symBinAddr: 0x10002BD0C, symSize: 0x64 }
  - { offsetInCU: 0x4CFF1, offset: 0x4CFF1, size: 0x8, addend: 0x0, symName: __ZTv0_n24_NSt3__114basic_ofstreamIcNS_11char_traitsIcEEED1Ev, symObjAddr: 0x27CFC, symBinAddr: 0x10002BD70, symSize: 0x28 }
  - { offsetInCU: 0x4D095, offset: 0x4D095, size: 0x8, addend: 0x0, symName: __ZNSt3__114basic_ifstreamIcNS_11char_traitsIcEEEC1ERKNS_12basic_stringIcS2_NS_9allocatorIcEEEEj, symObjAddr: 0x27D24, symBinAddr: 0x10002BD98, symSize: 0x16C }
  - { offsetInCU: 0x4D0DF, offset: 0x4D0DF, size: 0x8, addend: 0x0, symName: __ZNKSt3__114basic_ifstreamIcNS_11char_traitsIcEEE7is_openEv, symObjAddr: 0x27E90, symBinAddr: 0x10002BF04, symSize: 0x2C }
  - { offsetInCU: 0x4D107, offset: 0x4D107, size: 0x8, addend: 0x0, symName: __ZNKSt3__14fposI11__mbstate_tEcvxB8ue170006Ev, symObjAddr: 0x27EBC, symBinAddr: 0x10002BF30, symSize: 0x18 }
  - { offsetInCU: 0x4D12D, offset: 0x4D12D, size: 0x8, addend: 0x0, symName: __ZNSt3__16vectorIhNS_9allocatorIhEEEC1Em, symObjAddr: 0x27ED4, symBinAddr: 0x10002BF48, symSize: 0x34 }
  - { offsetInCU: 0x4D168, offset: 0x4D168, size: 0x8, addend: 0x0, symName: __ZNSt3__16vectorIhNS_9allocatorIhEEE4dataB8ue170006Ev, symObjAddr: 0x27F08, symBinAddr: 0x10002BF7C, symSize: 0x28 }
  - { offsetInCU: 0x4D18E, offset: 0x4D18E, size: 0x8, addend: 0x0, symName: __ZNSt3__114basic_ifstreamIcNS_11char_traitsIcEEE5closeEv, symObjAddr: 0x27F30, symBinAddr: 0x10002BFA4, symSize: 0x58 }
  - { offsetInCU: 0x4D1B6, offset: 0x4D1B6, size: 0x8, addend: 0x0, symName: __ZNSt3__16vectorIhNS_9allocatorIhEEED1B8ue170006Ev, symObjAddr: 0x27F88, symBinAddr: 0x10002BFFC, symSize: 0x2C }
  - { offsetInCU: 0x4D1E5, offset: 0x4D1E5, size: 0x8, addend: 0x0, symName: __ZNSt3__114basic_ifstreamIcNS_11char_traitsIcEEED1Ev, symObjAddr: 0x27FB4, symBinAddr: 0x10002C028, symSize: 0x40 }
  - { offsetInCU: 0x4D212, offset: 0x4D212, size: 0x8, addend: 0x0, symName: __ZNSt3__113basic_istreamIcNS_11char_traitsIcEEEC2B8ue170006EPNS_15basic_streambufIcS2_EE, symObjAddr: 0x27FF4, symBinAddr: 0x10002C068, symSize: 0x64 }
  - { offsetInCU: 0x4D257, offset: 0x4D257, size: 0x8, addend: 0x0, symName: __ZNSt3__16vectorIhNS_9allocatorIhEEEC2Em, symObjAddr: 0x28058, symBinAddr: 0x10002C0CC, symSize: 0xD4 }
  - { offsetInCU: 0x4D2A8, offset: 0x4D2A8, size: 0x8, addend: 0x0, symName: __ZNSt3__117__compressed_pairIPhNS_9allocatorIhEEEC1B8ue170006IDnNS_18__default_init_tagEEEOT_OT0_, symObjAddr: 0x2812C, symBinAddr: 0x10002C1A0, symSize: 0x3C }
  - { offsetInCU: 0x4D300, offset: 0x4D300, size: 0x8, addend: 0x0, symName: __ZNSt3__16vectorIhNS_9allocatorIhEEE16__destroy_vectorC1B8ue170006ERS3_, symObjAddr: 0x281A8, symBinAddr: 0x10002C21C, symSize: 0x34 }
  - { offsetInCU: 0x4D339, offset: 0x4D339, size: 0x8, addend: 0x0, symName: __ZNSt3__16vectorIhNS_9allocatorIhEEE11__vallocateB8ue170006Em, symObjAddr: 0x281DC, symBinAddr: 0x10002C250, symSize: 0xAC }
  - { offsetInCU: 0x4D37D, offset: 0x4D37D, size: 0x8, addend: 0x0, symName: __ZNSt3__16vectorIhNS_9allocatorIhEEE18__construct_at_endEm, symObjAddr: 0x28288, symBinAddr: 0x10002C2FC, symSize: 0xC8 }
  - { offsetInCU: 0x4D3EF, offset: 0x4D3EF, size: 0x8, addend: 0x0, symName: __ZNSt3__128__exception_guard_exceptionsINS_6vectorIhNS_9allocatorIhEEE16__destroy_vectorEE10__completeB8ue170006Ev, symObjAddr: 0x28350, symBinAddr: 0x10002C3C4, symSize: 0x1C }
  - { offsetInCU: 0x4D415, offset: 0x4D415, size: 0x8, addend: 0x0, symName: __ZNSt3__128__exception_guard_exceptionsINS_6vectorIhNS_9allocatorIhEEE16__destroy_vectorEED1B8ue170006Ev, symObjAddr: 0x2836C, symBinAddr: 0x10002C3E0, symSize: 0x2C }
  - { offsetInCU: 0x4D43F, offset: 0x4D43F, size: 0x8, addend: 0x0, symName: __ZNSt3__117__compressed_pairIPhNS_9allocatorIhEEEC2B8ue170006IDnNS_18__default_init_tagEEEOT_OT0_, symObjAddr: 0x28398, symBinAddr: 0x10002C40C, symSize: 0x40 }
  - { offsetInCU: 0x4D497, offset: 0x4D497, size: 0x8, addend: 0x0, symName: __ZNSt3__122__compressed_pair_elemIPhLi0ELb0EEC2B8ue170006IDnvEEOT_, symObjAddr: 0x283D8, symBinAddr: 0x10002C44C, symSize: 0x1C }
  - { offsetInCU: 0x4D4D9, offset: 0x4D4D9, size: 0x8, addend: 0x0, symName: __ZNSt3__122__compressed_pair_elemINS_9allocatorIhEELi1ELb1EEC2B8ue170006ENS_18__default_init_tagE, symObjAddr: 0x283F4, symBinAddr: 0x10002C468, symSize: 0x2C }
  - { offsetInCU: 0x4D50D, offset: 0x4D50D, size: 0x8, addend: 0x0, symName: __ZNSt3__19allocatorIhEC2B8ue170006Ev, symObjAddr: 0x28420, symBinAddr: 0x10002C494, symSize: 0x2C }
  - { offsetInCU: 0x4D537, offset: 0x4D537, size: 0x8, addend: 0x0, symName: __ZNSt3__116__non_trivial_ifILb1ENS_9allocatorIhEEEC2B8ue170006Ev, symObjAddr: 0x2844C, symBinAddr: 0x10002C4C0, symSize: 0x14 }
  - { offsetInCU: 0x4D561, offset: 0x4D561, size: 0x8, addend: 0x0, symName: __ZNSt3__128__exception_guard_exceptionsINS_6vectorIhNS_9allocatorIhEEE16__destroy_vectorEEC1B8ue170006ES5_, symObjAddr: 0x28460, symBinAddr: 0x10002C4D4, symSize: 0x34 }
  - { offsetInCU: 0x4D599, offset: 0x4D599, size: 0x8, addend: 0x0, symName: __ZNSt3__128__exception_guard_exceptionsINS_6vectorIhNS_9allocatorIhEEE16__destroy_vectorEEC2B8ue170006ES5_, symObjAddr: 0x28494, symBinAddr: 0x10002C508, symSize: 0x24 }
  - { offsetInCU: 0x4D5D1, offset: 0x4D5D1, size: 0x8, addend: 0x0, symName: __ZNSt3__16vectorIhNS_9allocatorIhEEE16__destroy_vectorC2B8ue170006ERS3_, symObjAddr: 0x284B8, symBinAddr: 0x10002C52C, symSize: 0x20 }
  - { offsetInCU: 0x4D60A, offset: 0x4D60A, size: 0x8, addend: 0x0, symName: __ZNKSt3__16vectorIhNS_9allocatorIhEEE8max_sizeEv, symObjAddr: 0x284D8, symBinAddr: 0x10002C54C, symSize: 0x60 }
  - { offsetInCU: 0x4D632, offset: 0x4D632, size: 0x8, addend: 0x0, symName: __ZNKSt3__16vectorIhNS_9allocatorIhEEE20__throw_length_errorB8ue170006Ev, symObjAddr: 0x28538, symBinAddr: 0x10002C5AC, symSize: 0x1C }
  - { offsetInCU: 0x4D658, offset: 0x4D658, size: 0x8, addend: 0x0, symName: __ZNSt3__16vectorIhNS_9allocatorIhEEE7__allocB8ue170006Ev, symObjAddr: 0x28594, symBinAddr: 0x10002C608, symSize: 0x28 }
  - { offsetInCU: 0x4D67E, offset: 0x4D67E, size: 0x8, addend: 0x0, symName: __ZNSt3__16vectorIhNS_9allocatorIhEEE9__end_capB8ue170006Ev, symObjAddr: 0x285BC, symBinAddr: 0x10002C630, symSize: 0x28 }
  - { offsetInCU: 0x4D6A4, offset: 0x4D6A4, size: 0x8, addend: 0x0, symName: __ZNKSt3__16vectorIhNS_9allocatorIhEEE14__annotate_newB8ue170006Em, symObjAddr: 0x285E4, symBinAddr: 0x10002C658, symSize: 0xAC }
  - { offsetInCU: 0x4D6E4, offset: 0x4D6E4, size: 0x8, addend: 0x0, symName: __ZNSt3__116allocator_traitsINS_9allocatorIhEEE8max_sizeB8ue170006IS2_vvEEmRKS2_, symObjAddr: 0x28690, symBinAddr: 0x10002C704, symSize: 0x28 }
  - { offsetInCU: 0x4D710, offset: 0x4D710, size: 0x8, addend: 0x0, symName: __ZNKSt3__16vectorIhNS_9allocatorIhEEE7__allocB8ue170006Ev, symObjAddr: 0x286B8, symBinAddr: 0x10002C72C, symSize: 0x28 }
  - { offsetInCU: 0x4D736, offset: 0x4D736, size: 0x8, addend: 0x0, symName: __ZNKSt3__117__compressed_pairIPhNS_9allocatorIhEEE6secondB8ue170006Ev, symObjAddr: 0x286E0, symBinAddr: 0x10002C754, symSize: 0x24 }
  - { offsetInCU: 0x4D75C, offset: 0x4D75C, size: 0x8, addend: 0x0, symName: __ZNKSt3__122__compressed_pair_elemINS_9allocatorIhEELi1ELb1EE5__getB8ue170006Ev, symObjAddr: 0x28704, symBinAddr: 0x10002C778, symSize: 0x14 }
  - { offsetInCU: 0x4D782, offset: 0x4D782, size: 0x8, addend: 0x0, symName: __ZNSt3__19allocatorIhE8allocateB8ue170006Em, symObjAddr: 0x28718, symBinAddr: 0x10002C78C, symSize: 0x58 }
  - { offsetInCU: 0x4D7B6, offset: 0x4D7B6, size: 0x8, addend: 0x0, symName: __ZNSt3__117__compressed_pairIPhNS_9allocatorIhEEE6secondB8ue170006Ev, symObjAddr: 0x28770, symBinAddr: 0x10002C7E4, symSize: 0x24 }
  - { offsetInCU: 0x4D7DC, offset: 0x4D7DC, size: 0x8, addend: 0x0, symName: __ZNSt3__122__compressed_pair_elemINS_9allocatorIhEELi1ELb1EE5__getB8ue170006Ev, symObjAddr: 0x28794, symBinAddr: 0x10002C808, symSize: 0x14 }
  - { offsetInCU: 0x4D802, offset: 0x4D802, size: 0x8, addend: 0x0, symName: __ZNSt3__117__compressed_pairIPhNS_9allocatorIhEEE5firstB8ue170006Ev, symObjAddr: 0x287A8, symBinAddr: 0x10002C81C, symSize: 0x24 }
  - { offsetInCU: 0x4D828, offset: 0x4D828, size: 0x8, addend: 0x0, symName: __ZNSt3__122__compressed_pair_elemIPhLi0ELb0EE5__getB8ue170006Ev, symObjAddr: 0x287CC, symBinAddr: 0x10002C840, symSize: 0x14 }
  - { offsetInCU: 0x4D84E, offset: 0x4D84E, size: 0x8, addend: 0x0, symName: __ZNKSt3__16vectorIhNS_9allocatorIhEEE31__annotate_contiguous_containerB8ue170006EPKvS5_S5_S5_, symObjAddr: 0x287E0, symBinAddr: 0x10002C854, symSize: 0x20 }
  - { offsetInCU: 0x4D8A4, offset: 0x4D8A4, size: 0x8, addend: 0x0, symName: __ZNKSt3__16vectorIhNS_9allocatorIhEEE4dataB8ue170006Ev, symObjAddr: 0x28800, symBinAddr: 0x10002C874, symSize: 0x28 }
  - { offsetInCU: 0x4D8CA, offset: 0x4D8CA, size: 0x8, addend: 0x0, symName: __ZNKSt3__16vectorIhNS_9allocatorIhEEE8capacityB8ue170006Ev, symObjAddr: 0x28828, symBinAddr: 0x10002C89C, symSize: 0x38 }
  - { offsetInCU: 0x4D8F0, offset: 0x4D8F0, size: 0x8, addend: 0x0, symName: __ZNKSt3__16vectorIhNS_9allocatorIhEEE9__end_capB8ue170006Ev, symObjAddr: 0x28874, symBinAddr: 0x10002C8E8, symSize: 0x28 }
  - { offsetInCU: 0x4D916, offset: 0x4D916, size: 0x8, addend: 0x0, symName: __ZNKSt3__117__compressed_pairIPhNS_9allocatorIhEEE5firstB8ue170006Ev, symObjAddr: 0x2889C, symBinAddr: 0x10002C910, symSize: 0x24 }
  - { offsetInCU: 0x4D93C, offset: 0x4D93C, size: 0x8, addend: 0x0, symName: __ZNKSt3__122__compressed_pair_elemIPhLi0ELb0EE5__getB8ue170006Ev, symObjAddr: 0x288C0, symBinAddr: 0x10002C934, symSize: 0x14 }
  - { offsetInCU: 0x4D97D, offset: 0x4D97D, size: 0x8, addend: 0x0, symName: __ZNSt3__16vectorIhNS_9allocatorIhEEE21_ConstructTransactionC1B8ue170006ERS3_m, symObjAddr: 0x288D4, symBinAddr: 0x10002C948, symSize: 0x3C }
  - { offsetInCU: 0x4D9C5, offset: 0x4D9C5, size: 0x8, addend: 0x0, symName: __ZNSt3__116allocator_traitsINS_9allocatorIhEEE9constructB8ue170006IhJEvvEEvRS2_PT_DpOT0_, symObjAddr: 0x28910, symBinAddr: 0x10002C984, symSize: 0x28 }
  - { offsetInCU: 0x4DA05, offset: 0x4DA05, size: 0x8, addend: 0x0, symName: __ZNSt3__16vectorIhNS_9allocatorIhEEE21_ConstructTransactionD1B8ue170006Ev, symObjAddr: 0x28938, symBinAddr: 0x10002C9AC, symSize: 0x2C }
  - { offsetInCU: 0x4DA2F, offset: 0x4DA2F, size: 0x8, addend: 0x0, symName: __ZNSt3__16vectorIhNS_9allocatorIhEEE21_ConstructTransactionC2B8ue170006ERS3_m, symObjAddr: 0x28964, symBinAddr: 0x10002C9D8, symSize: 0x44 }
  - { offsetInCU: 0x4DA77, offset: 0x4DA77, size: 0x8, addend: 0x0, symName: __ZNSt3__16vectorIhNS_9allocatorIhEEE21_ConstructTransactionD2B8ue170006Ev, symObjAddr: 0x289C8, symBinAddr: 0x10002CA3C, symSize: 0x20 }
  - { offsetInCU: 0x4DAA1, offset: 0x4DAA1, size: 0x8, addend: 0x0, symName: __ZNSt3__128__exception_guard_exceptionsINS_6vectorIhNS_9allocatorIhEEE16__destroy_vectorEED2B8ue170006Ev, symObjAddr: 0x289E8, symBinAddr: 0x10002CA5C, symSize: 0x50 }
  - { offsetInCU: 0x4DACB, offset: 0x4DACB, size: 0x8, addend: 0x0, symName: __ZNSt3__16vectorIhNS_9allocatorIhEEE16__destroy_vectorclB8ue170006Ev, symObjAddr: 0x28A38, symBinAddr: 0x10002CAAC, symSize: 0x90 }
  - { offsetInCU: 0x4DAF1, offset: 0x4DAF1, size: 0x8, addend: 0x0, symName: __ZNSt3__16vectorIhNS_9allocatorIhEEE7__clearB8ue170006Ev, symObjAddr: 0x28AC8, symBinAddr: 0x10002CB3C, symSize: 0x28 }
  - { offsetInCU: 0x4DB17, offset: 0x4DB17, size: 0x8, addend: 0x0, symName: __ZNKSt3__16vectorIhNS_9allocatorIhEEE17__annotate_deleteB8ue170006Ev, symObjAddr: 0x28AF0, symBinAddr: 0x10002CB64, symSize: 0xB8 }
  - { offsetInCU: 0x4DB3D, offset: 0x4DB3D, size: 0x8, addend: 0x0, symName: __ZNSt3__116allocator_traitsINS_9allocatorIhEEE10deallocateB8ue170006ERS2_Phm, symObjAddr: 0x28BA8, symBinAddr: 0x10002CC1C, symSize: 0x34 }
  - { offsetInCU: 0x4DB7F, offset: 0x4DB7F, size: 0x8, addend: 0x0, symName: __ZNSt3__16vectorIhNS_9allocatorIhEEE22__base_destruct_at_endB8ue170006EPh, symObjAddr: 0x28BDC, symBinAddr: 0x10002CC50, symSize: 0x8C }
  - { offsetInCU: 0x4DBC3, offset: 0x4DBC3, size: 0x8, addend: 0x0, symName: __ZNSt3__116allocator_traitsINS_9allocatorIhEEE7destroyB8ue170006IhvvEEvRS2_PT_, symObjAddr: 0x28C68, symBinAddr: 0x10002CCDC, symSize: 0x28 }
  - { offsetInCU: 0x4DBFE, offset: 0x4DBFE, size: 0x8, addend: 0x0, symName: __ZNKSt3__16vectorIhNS_9allocatorIhEEE4sizeB8ue170006Ev, symObjAddr: 0x28CC4, symBinAddr: 0x10002CD38, symSize: 0x20 }
  - { offsetInCU: 0x4DC24, offset: 0x4DC24, size: 0x8, addend: 0x0, symName: __ZNSt3__19allocatorIhE10deallocateB8ue170006EPhm, symObjAddr: 0x28CE4, symBinAddr: 0x10002CD58, symSize: 0x40 }
  - { offsetInCU: 0x4DC66, offset: 0x4DC66, size: 0x8, addend: 0x0, symName: __ZNSt3__16vectorIhNS_9allocatorIhEEED2B8ue170006Ev, symObjAddr: 0x28D24, symBinAddr: 0x10002CD98, symSize: 0x40 }
  - { offsetInCU: 0x4DC90, offset: 0x4DC90, size: 0x8, addend: 0x0, symName: __ZNSt3__114basic_ifstreamIcNS_11char_traitsIcEEED2Ev, symObjAddr: 0x28D64, symBinAddr: 0x10002CDD8, symSize: 0x64 }
  - { offsetInCU: 0x4DCCA, offset: 0x4DCCA, size: 0x8, addend: 0x0, symName: __ZTv0_n24_NSt3__114basic_ifstreamIcNS_11char_traitsIcEEED1Ev, symObjAddr: 0x28DC8, symBinAddr: 0x10002CE3C, symSize: 0x28 }
  - { offsetInCU: 0x4DCE1, offset: 0x4DCE1, size: 0x8, addend: 0x0, symName: __ZN6MergerC2Em, symObjAddr: 0x28DF0, symBinAddr: 0x10002CE64, symSize: 0x5C }
  - { offsetInCU: 0x4DD1A, offset: 0x4DD1A, size: 0x8, addend: 0x0, symName: __ZNSt3__113unordered_mapINS_12basic_stringIcNS_11char_traitsIcEENS_9allocatorIcEEEEN6Merger10FileMergerENS_4hashIS6_EENS_8equal_toIS6_EENS4_INS_4pairIKS6_S8_EEEEEC1B8ue170006Ev, symObjAddr: 0x28E4C, symBinAddr: 0x10002CEC0, symSize: 0x2C }
  - { offsetInCU: 0x4DD44, offset: 0x4DD44, size: 0x8, addend: 0x0, symName: __ZN6MergerD0Ev, symObjAddr: 0x28E78, symBinAddr: 0x10002CEEC, symSize: 0x34 }
  - { offsetInCU: 0x4DD71, offset: 0x4DD71, size: 0x8, addend: 0x0, symName: __ZN6Merger3svcEP4Task, symObjAddr: 0x28EAC, symBinAddr: 0x10002CF20, symSize: 0x38 }
  - { offsetInCU: 0x4DDA6, offset: 0x4DDA6, size: 0x8, addend: 0x0, symName: __ZNSt3__113unordered_mapINS_12basic_stringIcNS_11char_traitsIcEENS_9allocatorIcEEEEN6Merger10FileMergerENS_4hashIS6_EENS_8equal_toIS6_EENS4_INS_4pairIKS6_S8_EEEEEC2B8ue170006Ev, symObjAddr: 0x28EE4, symBinAddr: 0x10002CF58, symSize: 0x2C }
  - { offsetInCU: 0x4DDD0, offset: 0x4DDD0, size: 0x8, addend: 0x0, symName: __ZNSt3__112__hash_tableINS_17__hash_value_typeINS_12basic_stringIcNS_11char_traitsIcEENS_9allocatorIcEEEEN6Merger10FileMergerEEENS_22__unordered_map_hasherIS7_SA_NS_4hashIS7_EENS_8equal_toIS7_EELb1EEENS_21__unordered_map_equalIS7_SA_SF_SD_Lb1EEENS5_ISA_EEEC1Ev, symObjAddr: 0x28F10, symBinAddr: 0x10002CF84, symSize: 0x2C }
  - { offsetInCU: 0x4DDFC, offset: 0x4DDFC, size: 0x8, addend: 0x0, symName: __ZNSt3__112__hash_tableINS_17__hash_value_typeINS_12basic_stringIcNS_11char_traitsIcEENS_9allocatorIcEEEEN6Merger10FileMergerEEENS_22__unordered_map_hasherIS7_SA_NS_4hashIS7_EENS_8equal_toIS7_EELb1EEENS_21__unordered_map_equalIS7_SA_SF_SD_Lb1EEENS5_ISA_EEEC2Ev, symObjAddr: 0x28F3C, symBinAddr: 0x10002CFB0, symSize: 0x7C }
  - { offsetInCU: 0x4DE28, offset: 0x4DE28, size: 0x8, addend: 0x0, symName: __ZNSt3__110unique_ptrIA_PNS_16__hash_node_baseIPNS_11__hash_nodeINS_17__hash_value_typeINS_12basic_stringIcNS_11char_traitsIcEENS_9allocatorIcEEEEN6Merger10FileMergerEEEPvEEEENS_25__bucket_list_deallocatorINS7_ISH_EEEEEC1B8ue170006ILb1EvEEv, symObjAddr: 0x28FB8, symBinAddr: 0x10002D02C, symSize: 0x2C }
  - { offsetInCU: 0x4DE5D, offset: 0x4DE5D, size: 0x8, addend: 0x0, symName: __ZNSt3__117__compressed_pairINS_16__hash_node_baseIPNS_11__hash_nodeINS_17__hash_value_typeINS_12basic_stringIcNS_11char_traitsIcEENS_9allocatorIcEEEEN6Merger10FileMergerEEEPvEEEENS7_ISE_EEEC1B8ue170006ILb1EvEEv, symObjAddr: 0x28FE4, symBinAddr: 0x10002D058, symSize: 0x2C }
  - { offsetInCU: 0x4DE92, offset: 0x4DE92, size: 0x8, addend: 0x0, symName: __ZNSt3__117__compressed_pairImNS_22__unordered_map_hasherINS_12basic_stringIcNS_11char_traitsIcEENS_9allocatorIcEEEENS_17__hash_value_typeIS7_N6Merger10FileMergerEEENS_4hashIS7_EENS_8equal_toIS7_EELb1EEEEC1B8ue170006IiNS_18__default_init_tagEEEOT_OT0_, symObjAddr: 0x29010, symBinAddr: 0x10002D084, symSize: 0x3C }
  - { offsetInCU: 0x4DEF0, offset: 0x4DEF0, size: 0x8, addend: 0x0, symName: __ZNSt3__117__compressed_pairIfNS_21__unordered_map_equalINS_12basic_stringIcNS_11char_traitsIcEENS_9allocatorIcEEEENS_17__hash_value_typeIS7_N6Merger10FileMergerEEENS_8equal_toIS7_EENS_4hashIS7_EELb1EEEEC1B8ue170006IfNS_18__default_init_tagEEEOT_OT0_, symObjAddr: 0x2904C, symBinAddr: 0x10002D0C0, symSize: 0x3C }
  - { offsetInCU: 0x4DF48, offset: 0x4DF48, size: 0x8, addend: 0x0, symName: __ZNSt3__110unique_ptrIA_PNS_16__hash_node_baseIPNS_11__hash_nodeINS_17__hash_value_typeINS_12basic_stringIcNS_11char_traitsIcEENS_9allocatorIcEEEEN6Merger10FileMergerEEEPvEEEENS_25__bucket_list_deallocatorINS7_ISH_EEEEEC2B8ue170006ILb1EvEEv, symObjAddr: 0x29088, symBinAddr: 0x10002D0FC, symSize: 0x3C }
  - { offsetInCU: 0x4DF83, offset: 0x4DF83, size: 0x8, addend: 0x0, symName: __ZNSt3__117__compressed_pairIPPNS_16__hash_node_baseIPNS_11__hash_nodeINS_17__hash_value_typeINS_12basic_stringIcNS_11char_traitsIcEENS_9allocatorIcEEEEN6Merger10FileMergerEEEPvEEEENS_25__bucket_list_deallocatorINS7_ISH_EEEEEC1B8ue170006INS_16__value_init_tagESO_EEOT_OT0_, symObjAddr: 0x290C4, symBinAddr: 0x10002D138, symSize: 0x3C }
  - { offsetInCU: 0x4DFDB, offset: 0x4DFDB, size: 0x8, addend: 0x0, symName: __ZNSt3__117__compressed_pairIPPNS_16__hash_node_baseIPNS_11__hash_nodeINS_17__hash_value_typeINS_12basic_stringIcNS_11char_traitsIcEENS_9allocatorIcEEEEN6Merger10FileMergerEEEPvEEEENS_25__bucket_list_deallocatorINS7_ISH_EEEEEC2B8ue170006INS_16__value_init_tagESO_EEOT_OT0_, symObjAddr: 0x29100, symBinAddr: 0x10002D174, symSize: 0x40 }
  - { offsetInCU: 0x4E033, offset: 0x4E033, size: 0x8, addend: 0x0, symName: __ZNSt3__122__compressed_pair_elemIPPNS_16__hash_node_baseIPNS_11__hash_nodeINS_17__hash_value_typeINS_12basic_stringIcNS_11char_traitsIcEENS_9allocatorIcEEEEN6Merger10FileMergerEEEPvEEEELi0ELb0EEC2B8ue170006ENS_16__value_init_tagE, symObjAddr: 0x29140, symBinAddr: 0x10002D1B4, symSize: 0x18 }
  - { offsetInCU: 0x4E067, offset: 0x4E067, size: 0x8, addend: 0x0, symName: __ZNSt3__122__compressed_pair_elemINS_25__bucket_list_deallocatorINS_9allocatorIPNS_16__hash_node_baseIPNS_11__hash_nodeINS_17__hash_value_typeINS_12basic_stringIcNS_11char_traitsIcEENS2_IcEEEEN6Merger10FileMergerEEEPvEEEEEEEELi1ELb0EEC2B8ue170006ENS_16__value_init_tagE, symObjAddr: 0x29158, symBinAddr: 0x10002D1CC, symSize: 0x2C }
  - { offsetInCU: 0x4E09B, offset: 0x4E09B, size: 0x8, addend: 0x0, symName: __ZNSt3__125__bucket_list_deallocatorINS_9allocatorIPNS_16__hash_node_baseIPNS_11__hash_nodeINS_17__hash_value_typeINS_12basic_stringIcNS_11char_traitsIcEENS1_IcEEEEN6Merger10FileMergerEEEPvEEEEEEEC1B8ue170006Ev, symObjAddr: 0x29184, symBinAddr: 0x10002D1F8, symSize: 0x2C }
  - { offsetInCU: 0x4E0C5, offset: 0x4E0C5, size: 0x8, addend: 0x0, symName: __ZNSt3__125__bucket_list_deallocatorINS_9allocatorIPNS_16__hash_node_baseIPNS_11__hash_nodeINS_17__hash_value_typeINS_12basic_stringIcNS_11char_traitsIcEENS1_IcEEEEN6Merger10FileMergerEEEPvEEEEEEEC2B8ue170006Ev, symObjAddr: 0x291B0, symBinAddr: 0x10002D224, symSize: 0x40 }
  - { offsetInCU: 0x4E0EF, offset: 0x4E0EF, size: 0x8, addend: 0x0, symName: __ZNSt3__117__compressed_pairImNS_9allocatorIPNS_16__hash_node_baseIPNS_11__hash_nodeINS_17__hash_value_typeINS_12basic_stringIcNS_11char_traitsIcEENS1_IcEEEEN6Merger10FileMergerEEEPvEEEEEEEC1B8ue170006IiNS_18__default_init_tagEEEOT_OT0_, symObjAddr: 0x291F0, symBinAddr: 0x10002D264, symSize: 0x3C }
  - { offsetInCU: 0x4E147, offset: 0x4E147, size: 0x8, addend: 0x0, symName: __ZNSt3__117__compressed_pairImNS_9allocatorIPNS_16__hash_node_baseIPNS_11__hash_nodeINS_17__hash_value_typeINS_12basic_stringIcNS_11char_traitsIcEENS1_IcEEEEN6Merger10FileMergerEEEPvEEEEEEEC2B8ue170006IiNS_18__default_init_tagEEEOT_OT0_, symObjAddr: 0x2922C, symBinAddr: 0x10002D2A0, symSize: 0x40 }
  - { offsetInCU: 0x4E19F, offset: 0x4E19F, size: 0x8, addend: 0x0, symName: __ZNSt3__122__compressed_pair_elemINS_9allocatorIPNS_16__hash_node_baseIPNS_11__hash_nodeINS_17__hash_value_typeINS_12basic_stringIcNS_11char_traitsIcEENS1_IcEEEEN6Merger10FileMergerEEEPvEEEEEELi1ELb1EEC2B8ue170006ENS_18__default_init_tagE, symObjAddr: 0x2926C, symBinAddr: 0x10002D2E0, symSize: 0x2C }
  - { offsetInCU: 0x4E1D3, offset: 0x4E1D3, size: 0x8, addend: 0x0, symName: __ZNSt3__19allocatorIPNS_16__hash_node_baseIPNS_11__hash_nodeINS_17__hash_value_typeINS_12basic_stringIcNS_11char_traitsIcEENS0_IcEEEEN6Merger10FileMergerEEEPvEEEEEC2B8ue170006Ev, symObjAddr: 0x29298, symBinAddr: 0x10002D30C, symSize: 0x2C }
  - { offsetInCU: 0x4E1FD, offset: 0x4E1FD, size: 0x8, addend: 0x0, symName: __ZNSt3__116__non_trivial_ifILb1ENS_9allocatorIPNS_16__hash_node_baseIPNS_11__hash_nodeINS_17__hash_value_typeINS_12basic_stringIcNS_11char_traitsIcEENS1_IcEEEEN6Merger10FileMergerEEEPvEEEEEEEC2B8ue170006Ev, symObjAddr: 0x292C4, symBinAddr: 0x10002D338, symSize: 0x14 }
  - { offsetInCU: 0x4E227, offset: 0x4E227, size: 0x8, addend: 0x0, symName: __ZNSt3__117__compressed_pairINS_16__hash_node_baseIPNS_11__hash_nodeINS_17__hash_value_typeINS_12basic_stringIcNS_11char_traitsIcEENS_9allocatorIcEEEEN6Merger10FileMergerEEEPvEEEENS7_ISE_EEEC2B8ue170006ILb1EvEEv, symObjAddr: 0x292D8, symBinAddr: 0x10002D34C, symSize: 0x34 }
  - { offsetInCU: 0x4E25C, offset: 0x4E25C, size: 0x8, addend: 0x0, symName: __ZNSt3__122__compressed_pair_elemINS_16__hash_node_baseIPNS_11__hash_nodeINS_17__hash_value_typeINS_12basic_stringIcNS_11char_traitsIcEENS_9allocatorIcEEEEN6Merger10FileMergerEEEPvEEEELi0ELb0EEC2B8ue170006ENS_16__value_init_tagE, symObjAddr: 0x2930C, symBinAddr: 0x10002D380, symSize: 0x2C }
  - { offsetInCU: 0x4E290, offset: 0x4E290, size: 0x8, addend: 0x0, symName: __ZNSt3__122__compressed_pair_elemINS_9allocatorINS_11__hash_nodeINS_17__hash_value_typeINS_12basic_stringIcNS_11char_traitsIcEENS1_IcEEEEN6Merger10FileMergerEEEPvEEEELi1ELb1EEC2B8ue170006ENS_16__value_init_tagE, symObjAddr: 0x29338, symBinAddr: 0x10002D3AC, symSize: 0x2C }
  - { offsetInCU: 0x4E2C4, offset: 0x4E2C4, size: 0x8, addend: 0x0, symName: __ZNSt3__116__hash_node_baseIPNS_11__hash_nodeINS_17__hash_value_typeINS_12basic_stringIcNS_11char_traitsIcEENS_9allocatorIcEEEEN6Merger10FileMergerEEEPvEEEC1B8ue170006Ev, symObjAddr: 0x29364, symBinAddr: 0x10002D3D8, symSize: 0x2C }
  - { offsetInCU: 0x4E2EE, offset: 0x4E2EE, size: 0x8, addend: 0x0, symName: __ZNSt3__116__hash_node_baseIPNS_11__hash_nodeINS_17__hash_value_typeINS_12basic_stringIcNS_11char_traitsIcEENS_9allocatorIcEEEEN6Merger10FileMergerEEEPvEEEC2B8ue170006Ev, symObjAddr: 0x29390, symBinAddr: 0x10002D404, symSize: 0x18 }
  - { offsetInCU: 0x4E318, offset: 0x4E318, size: 0x8, addend: 0x0, symName: __ZNSt3__19allocatorINS_11__hash_nodeINS_17__hash_value_typeINS_12basic_stringIcNS_11char_traitsIcEENS0_IcEEEEN6Merger10FileMergerEEEPvEEEC2B8ue170006Ev, symObjAddr: 0x293A8, symBinAddr: 0x10002D41C, symSize: 0x2C }
  - { offsetInCU: 0x4E342, offset: 0x4E342, size: 0x8, addend: 0x0, symName: __ZNSt3__116__non_trivial_ifILb1ENS_9allocatorINS_11__hash_nodeINS_17__hash_value_typeINS_12basic_stringIcNS_11char_traitsIcEENS1_IcEEEEN6Merger10FileMergerEEEPvEEEEEC2B8ue170006Ev, symObjAddr: 0x293D4, symBinAddr: 0x10002D448, symSize: 0x14 }
  - { offsetInCU: 0x4E36C, offset: 0x4E36C, size: 0x8, addend: 0x0, symName: __ZNSt3__117__compressed_pairImNS_22__unordered_map_hasherINS_12basic_stringIcNS_11char_traitsIcEENS_9allocatorIcEEEENS_17__hash_value_typeIS7_N6Merger10FileMergerEEENS_4hashIS7_EENS_8equal_toIS7_EELb1EEEEC2B8ue170006IiNS_18__default_init_tagEEEOT_OT0_, symObjAddr: 0x293E8, symBinAddr: 0x10002D45C, symSize: 0x40 }
  - { offsetInCU: 0x4E3C4, offset: 0x4E3C4, size: 0x8, addend: 0x0, symName: __ZNSt3__122__compressed_pair_elemINS_22__unordered_map_hasherINS_12basic_stringIcNS_11char_traitsIcEENS_9allocatorIcEEEENS_17__hash_value_typeIS7_N6Merger10FileMergerEEENS_4hashIS7_EENS_8equal_toIS7_EELb1EEELi1ELb1EEC2B8ue170006ENS_18__default_init_tagE, symObjAddr: 0x29428, symBinAddr: 0x10002D49C, symSize: 0x2C }
  - { offsetInCU: 0x4E3F8, offset: 0x4E3F8, size: 0x8, addend: 0x0, symName: __ZNSt3__122__unordered_map_hasherINS_12basic_stringIcNS_11char_traitsIcEENS_9allocatorIcEEEENS_17__hash_value_typeIS6_N6Merger10FileMergerEEENS_4hashIS6_EENS_8equal_toIS6_EELb1EEC2B8ue170006Ev, symObjAddr: 0x29454, symBinAddr: 0x10002D4C8, symSize: 0x14 }
  - { offsetInCU: 0x4E422, offset: 0x4E422, size: 0x8, addend: 0x0, symName: __ZNSt3__117__compressed_pairIfNS_21__unordered_map_equalINS_12basic_stringIcNS_11char_traitsIcEENS_9allocatorIcEEEENS_17__hash_value_typeIS7_N6Merger10FileMergerEEENS_8equal_toIS7_EENS_4hashIS7_EELb1EEEEC2B8ue170006IfNS_18__default_init_tagEEEOT_OT0_, symObjAddr: 0x29468, symBinAddr: 0x10002D4DC, symSize: 0x40 }
  - { offsetInCU: 0x4E47A, offset: 0x4E47A, size: 0x8, addend: 0x0, symName: __ZNSt3__122__compressed_pair_elemIfLi0ELb0EEC2B8ue170006IfvEEOT_, symObjAddr: 0x294A8, symBinAddr: 0x10002D51C, symSize: 0x24 }
  - { offsetInCU: 0x4E4BC, offset: 0x4E4BC, size: 0x8, addend: 0x0, symName: __ZNSt3__122__compressed_pair_elemINS_21__unordered_map_equalINS_12basic_stringIcNS_11char_traitsIcEENS_9allocatorIcEEEENS_17__hash_value_typeIS7_N6Merger10FileMergerEEENS_8equal_toIS7_EENS_4hashIS7_EELb1EEELi1ELb1EEC2B8ue170006ENS_18__default_init_tagE, symObjAddr: 0x294CC, symBinAddr: 0x10002D540, symSize: 0x2C }
  - { offsetInCU: 0x4E4F0, offset: 0x4E4F0, size: 0x8, addend: 0x0, symName: __ZNSt3__121__unordered_map_equalINS_12basic_stringIcNS_11char_traitsIcEENS_9allocatorIcEEEENS_17__hash_value_typeIS6_N6Merger10FileMergerEEENS_8equal_toIS6_EENS_4hashIS6_EELb1EEC2B8ue170006Ev, symObjAddr: 0x294F8, symBinAddr: 0x10002D56C, symSize: 0x14 }
  - { offsetInCU: 0x4E51A, offset: 0x4E51A, size: 0x8, addend: 0x0, symName: __ZN6Merger16handleMultiBlockEP4Task, symObjAddr: 0x2950C, symBinAddr: 0x10002D580, symSize: 0x208 }
  - { offsetInCU: 0x4E58B, offset: 0x4E58B, size: 0x8, addend: 0x0, symName: __ZNSt3__113unordered_mapINS_12basic_stringIcNS_11char_traitsIcEENS_9allocatorIcEEEEN6Merger10FileMergerENS_4hashIS6_EENS_8equal_toIS6_EENS4_INS_4pairIKS6_S8_EEEEEixERSE_, symObjAddr: 0x29714, symBinAddr: 0x10002D788, symSize: 0x80 }
  - { offsetInCU: 0x4E5C2, offset: 0x4E5C2, size: 0x8, addend: 0x0, symName: __ZNSt3__16vectorI9PartitionNS_9allocatorIS1_EEE9push_backB8ue170006EOS1_, symObjAddr: 0x29794, symBinAddr: 0x10002D808, symSize: 0x6C }
  - { offsetInCU: 0x4E5F9, offset: 0x4E5F9, size: 0x8, addend: 0x0, symName: __ZNKSt3__16vectorI9PartitionNS_9allocatorIS1_EEE4sizeB8ue170006Ev, symObjAddr: 0x29800, symBinAddr: 0x10002D874, symSize: 0x28 }
  - { offsetInCU: 0x4E61F, offset: 0x4E61F, size: 0x8, addend: 0x0, symName: __ZN6Merger13regroupAndZipERKNSt3__112basic_stringIcNS0_11char_traitsIcEENS0_9allocatorIcEEEERNS_10FileMergerE, symObjAddr: 0x29828, symBinAddr: 0x10002D89C, symSize: 0x2D0 }
  - { offsetInCU: 0x4E785, offset: 0x4E785, size: 0x8, addend: 0x0, symName: __ZN6Merger15regroupAndWriteERKNSt3__112basic_stringIcNS0_11char_traitsIcEENS0_9allocatorIcEEEERNS_10FileMergerE, symObjAddr: 0x29AF8, symBinAddr: 0x10002DB6C, symSize: 0x200 }
  - { offsetInCU: 0x4E856, offset: 0x4E856, size: 0x8, addend: 0x0, symName: __ZNSt3__113unordered_mapINS_12basic_stringIcNS_11char_traitsIcEENS_9allocatorIcEEEEN6Merger10FileMergerENS_4hashIS6_EENS_8equal_toIS6_EENS4_INS_4pairIKS6_S8_EEEEE5eraseB8ue170006ERSE_, symObjAddr: 0x29CF8, symBinAddr: 0x10002DD6C, symSize: 0x2C }
  - { offsetInCU: 0x4E8A2, offset: 0x4E8A2, size: 0x8, addend: 0x0, symName: __ZNSt3__112__hash_tableINS_17__hash_value_typeINS_12basic_stringIcNS_11char_traitsIcEENS_9allocatorIcEEEEN6Merger10FileMergerEEENS_22__unordered_map_hasherIS7_SA_NS_4hashIS7_EENS_8equal_toIS7_EELb1EEENS_21__unordered_map_equalIS7_SA_SF_SD_Lb1EEENS5_ISA_EEE25__emplace_unique_key_argsIS7_JRKNS_21piecewise_construct_tENS_5tupleIJRKS7_EEENSP_IJEEEEEENS_4pairINS_15__hash_iteratorIPNS_11__hash_nodeISA_PvEEEEbEERKT_DpOT0_, symObjAddr: 0x29D24, symBinAddr: 0x10002DD98, symSize: 0x4E8 }
  - { offsetInCU: 0x4E9AD, offset: 0x4E9AD, size: 0x8, addend: 0x0, symName: __ZNKSt3__115__hash_iteratorIPNS_11__hash_nodeINS_17__hash_value_typeINS_12basic_stringIcNS_11char_traitsIcEENS_9allocatorIcEEEEN6Merger10FileMergerEEEPvEEEptB8ue170006Ev, symObjAddr: 0x2A23C, symBinAddr: 0x10002E2B0, symSize: 0x30 }
  - { offsetInCU: 0x4E9D3, offset: 0x4E9D3, size: 0x8, addend: 0x0, symName: __ZNSt3__117__hash_value_typeINS_12basic_stringIcNS_11char_traitsIcEENS_9allocatorIcEEEEN6Merger10FileMergerEE11__get_valueB8ue170006Ev, symObjAddr: 0x2A26C, symBinAddr: 0x10002E2E0, symSize: 0x24 }
  - { offsetInCU: 0x4E9F9, offset: 0x4E9F9, size: 0x8, addend: 0x0, symName: __ZNSt3__112__hash_tableINS_17__hash_value_typeINS_12basic_stringIcNS_11char_traitsIcEENS_9allocatorIcEEEEN6Merger10FileMergerEEENS_22__unordered_map_hasherIS7_SA_NS_4hashIS7_EENS_8equal_toIS7_EELb1EEENS_21__unordered_map_equalIS7_SA_SF_SD_Lb1EEENS5_ISA_EEE13hash_functionB8ue170006Ev, symObjAddr: 0x2A290, symBinAddr: 0x10002E304, symSize: 0x28 }
  - { offsetInCU: 0x4EA1F, offset: 0x4EA1F, size: 0x8, addend: 0x0, symName: __ZNKSt3__122__unordered_map_hasherINS_12basic_stringIcNS_11char_traitsIcEENS_9allocatorIcEEEENS_17__hash_value_typeIS6_N6Merger10FileMergerEEENS_4hashIS6_EENS_8equal_toIS6_EELb1EEclB8ue170006ERKS6_, symObjAddr: 0x2A2B8, symBinAddr: 0x10002E32C, symSize: 0x2C }
  - { offsetInCU: 0x4EA54, offset: 0x4EA54, size: 0x8, addend: 0x0, symName: __ZNKSt3__112__hash_tableINS_17__hash_value_typeINS_12basic_stringIcNS_11char_traitsIcEENS_9allocatorIcEEEEN6Merger10FileMergerEEENS_22__unordered_map_hasherIS7_SA_NS_4hashIS7_EENS_8equal_toIS7_EELb1EEENS_21__unordered_map_equalIS7_SA_SF_SD_Lb1EEENS5_ISA_EEE12bucket_countB8ue170006Ev, symObjAddr: 0x2A2E4, symBinAddr: 0x10002E358, symSize: 0x28 }
  - { offsetInCU: 0x4EA7A, offset: 0x4EA7A, size: 0x8, addend: 0x0, symName: __ZNKSt3__110unique_ptrIA_PNS_16__hash_node_baseIPNS_11__hash_nodeINS_17__hash_value_typeINS_12basic_stringIcNS_11char_traitsIcEENS_9allocatorIcEEEEN6Merger10FileMergerEEEPvEEEENS_25__bucket_list_deallocatorINS7_ISH_EEEEEixB8ue170006Em, symObjAddr: 0x2A3A4, symBinAddr: 0x10002E418, symSize: 0x34 }
  - { offsetInCU: 0x4EAAF, offset: 0x4EAAF, size: 0x8, addend: 0x0, symName: __ZNKSt3__116__hash_node_baseIPNS_11__hash_nodeINS_17__hash_value_typeINS_12basic_stringIcNS_11char_traitsIcEENS_9allocatorIcEEEEN6Merger10FileMergerEEEPvEEE6__hashB8ue170006Ev, symObjAddr: 0x2A3D8, symBinAddr: 0x10002E44C, symSize: 0x18 }
  - { offsetInCU: 0x4EAD5, offset: 0x4EAD5, size: 0x8, addend: 0x0, symName: __ZNSt3__112__hash_tableINS_17__hash_value_typeINS_12basic_stringIcNS_11char_traitsIcEENS_9allocatorIcEEEEN6Merger10FileMergerEEENS_22__unordered_map_hasherIS7_SA_NS_4hashIS7_EENS_8equal_toIS7_EELb1EEENS_21__unordered_map_equalIS7_SA_SF_SD_Lb1EEENS5_ISA_EEE6key_eqB8ue170006Ev, symObjAddr: 0x2A3F0, symBinAddr: 0x10002E464, symSize: 0x28 }
  - { offsetInCU: 0x4EAFB, offset: 0x4EAFB, size: 0x8, addend: 0x0, symName: __ZNKSt3__121__unordered_map_equalINS_12basic_stringIcNS_11char_traitsIcEENS_9allocatorIcEEEENS_17__hash_value_typeIS6_N6Merger10FileMergerEEENS_8equal_toIS6_EENS_4hashIS6_EELb1EEclB8ue170006ERKSA_RKS6_, symObjAddr: 0x2A418, symBinAddr: 0x10002E48C, symSize: 0x48 }
  - { offsetInCU: 0x4EB3F, offset: 0x4EB3F, size: 0x8, addend: 0x0, symName: __ZNSt3__116__hash_node_baseIPNS_11__hash_nodeINS_17__hash_value_typeINS_12basic_stringIcNS_11char_traitsIcEENS_9allocatorIcEEEEN6Merger10FileMergerEEEPvEEE8__upcastB8ue170006Ev, symObjAddr: 0x2A460, symBinAddr: 0x10002E4D4, symSize: 0x24 }
  - { offsetInCU: 0x4EB65, offset: 0x4EB65, size: 0x8, addend: 0x0, symName: __ZNSt3__112__hash_tableINS_17__hash_value_typeINS_12basic_stringIcNS_11char_traitsIcEENS_9allocatorIcEEEEN6Merger10FileMergerEEENS_22__unordered_map_hasherIS7_SA_NS_4hashIS7_EENS_8equal_toIS7_EELb1EEENS_21__unordered_map_equalIS7_SA_SF_SD_Lb1EEENS5_ISA_EEE21__construct_node_hashIRKNS_21piecewise_construct_tEJNS_5tupleIJRKS7_EEENSP_IJEEEEEENS_10unique_ptrINS_11__hash_nodeISA_PvEENS_22__hash_node_destructorINS5_ISX_EEEEEEmOT_DpOT0_, symObjAddr: 0x2A484, symBinAddr: 0x10002E4F8, symSize: 0x150 }
  - { offsetInCU: 0x4EC01, offset: 0x4EC01, size: 0x8, addend: 0x0, symName: __ZNSt3__112__hash_tableINS_17__hash_value_typeINS_12basic_stringIcNS_11char_traitsIcEENS_9allocatorIcEEEEN6Merger10FileMergerEEENS_22__unordered_map_hasherIS7_SA_NS_4hashIS7_EENS_8equal_toIS7_EELb1EEENS_21__unordered_map_equalIS7_SA_SF_SD_Lb1EEENS5_ISA_EEE4sizeB8ue170006Ev, symObjAddr: 0x2A5D4, symBinAddr: 0x10002E648, symSize: 0x28 }
  - { offsetInCU: 0x4EC27, offset: 0x4EC27, size: 0x8, addend: 0x0, symName: __ZNSt3__112__hash_tableINS_17__hash_value_typeINS_12basic_stringIcNS_11char_traitsIcEENS_9allocatorIcEEEEN6Merger10FileMergerEEENS_22__unordered_map_hasherIS7_SA_NS_4hashIS7_EENS_8equal_toIS7_EELb1EEENS_21__unordered_map_equalIS7_SA_SF_SD_Lb1EEENS5_ISA_EEE15max_load_factorB8ue170006Ev, symObjAddr: 0x2A5FC, symBinAddr: 0x10002E670, symSize: 0x28 }
  - { offsetInCU: 0x4EC4D, offset: 0x4EC4D, size: 0x8, addend: 0x0, symName: __ZNSt3__112__hash_tableINS_17__hash_value_typeINS_12basic_stringIcNS_11char_traitsIcEENS_9allocatorIcEEEEN6Merger10FileMergerEEENS_22__unordered_map_hasherIS7_SA_NS_4hashIS7_EENS_8equal_toIS7_EELb1EEENS_21__unordered_map_equalIS7_SA_SF_SD_Lb1EEENS5_ISA_EEE15__rehash_uniqueB8ue170006Em, symObjAddr: 0x2A624, symBinAddr: 0x10002E698, symSize: 0x2C }
  - { offsetInCU: 0x4EC82, offset: 0x4EC82, size: 0x8, addend: 0x0, symName: __Z4ceilB8ue170006f, symObjAddr: 0x2A6A0, symBinAddr: 0x10002E714, symSize: 0x18 }
  - { offsetInCU: 0x4ECB1, offset: 0x4ECB1, size: 0x8, addend: 0x0, symName: __ZNSt3__117__compressed_pairINS_16__hash_node_baseIPNS_11__hash_nodeINS_17__hash_value_typeINS_12basic_stringIcNS_11char_traitsIcEENS_9allocatorIcEEEEN6Merger10FileMergerEEEPvEEEENS7_ISE_EEE5firstB8ue170006Ev, symObjAddr: 0x2A6B8, symBinAddr: 0x10002E72C, symSize: 0x24 }
  - { offsetInCU: 0x4ECD7, offset: 0x4ECD7, size: 0x8, addend: 0x0, symName: __ZNSt3__116__hash_node_baseIPNS_11__hash_nodeINS_17__hash_value_typeINS_12basic_stringIcNS_11char_traitsIcEENS_9allocatorIcEEEEN6Merger10FileMergerEEEPvEEE5__ptrB8ue170006Ev, symObjAddr: 0x2A6DC, symBinAddr: 0x10002E750, symSize: 0x24 }
  - { offsetInCU: 0x4ECFD, offset: 0x4ECFD, size: 0x8, addend: 0x0, symName: __ZNKSt3__110unique_ptrINS_11__hash_nodeINS_17__hash_value_typeINS_12basic_stringIcNS_11char_traitsIcEENS_9allocatorIcEEEEN6Merger10FileMergerEEEPvEENS_22__hash_node_destructorINS6_ISD_EEEEEptB8ue170006Ev, symObjAddr: 0x2A700, symBinAddr: 0x10002E774, symSize: 0x28 }
  - { offsetInCU: 0x4ED23, offset: 0x4ED23, size: 0x8, addend: 0x0, symName: __ZNKSt3__110unique_ptrINS_11__hash_nodeINS_17__hash_value_typeINS_12basic_stringIcNS_11char_traitsIcEENS_9allocatorIcEEEEN6Merger10FileMergerEEEPvEENS_22__hash_node_destructorINS6_ISD_EEEEE3getB8ue170006Ev, symObjAddr: 0x2A728, symBinAddr: 0x10002E79C, symSize: 0x28 }
  - { offsetInCU: 0x4ED49, offset: 0x4ED49, size: 0x8, addend: 0x0, symName: __ZNSt3__110unique_ptrINS_11__hash_nodeINS_17__hash_value_typeINS_12basic_stringIcNS_11char_traitsIcEENS_9allocatorIcEEEEN6Merger10FileMergerEEEPvEENS_22__hash_node_destructorINS6_ISD_EEEEE7releaseB8ue170006Ev, symObjAddr: 0x2A750, symBinAddr: 0x10002E7C4, symSize: 0x44 }
  - { offsetInCU: 0x4ED7E, offset: 0x4ED7E, size: 0x8, addend: 0x0, symName: __ZNSt3__110unique_ptrINS_11__hash_nodeINS_17__hash_value_typeINS_12basic_stringIcNS_11char_traitsIcEENS_9allocatorIcEEEEN6Merger10FileMergerEEEPvEENS_22__hash_node_destructorINS6_ISD_EEEEED1B8ue170006Ev, symObjAddr: 0x2A794, symBinAddr: 0x10002E808, symSize: 0x2C }
  - { offsetInCU: 0x4EDA8, offset: 0x4EDA8, size: 0x8, addend: 0x0, symName: __ZNSt3__115__hash_iteratorIPNS_11__hash_nodeINS_17__hash_value_typeINS_12basic_stringIcNS_11char_traitsIcEENS_9allocatorIcEEEEN6Merger10FileMergerEEEPvEEEC1B8ue170006EPNS_16__hash_node_baseISE_EE, symObjAddr: 0x2A7C0, symBinAddr: 0x10002E834, symSize: 0x34 }
  - { offsetInCU: 0x4EDE7, offset: 0x4EDE7, size: 0x8, addend: 0x0, symName: __ZNSt3__14pairINS_15__hash_iteratorIPNS_11__hash_nodeINS_17__hash_value_typeINS_12basic_stringIcNS_11char_traitsIcEENS_9allocatorIcEEEEN6Merger10FileMergerEEEPvEEEEbEC1B8ue170006ISG_RbLSD_0EEEOT_OT0_, symObjAddr: 0x2A7F4, symBinAddr: 0x10002E868, symSize: 0x3C }
  - { offsetInCU: 0x4EE45, offset: 0x4EE45, size: 0x8, addend: 0x0, symName: __ZNSt3__117__compressed_pairImNS_22__unordered_map_hasherINS_12basic_stringIcNS_11char_traitsIcEENS_9allocatorIcEEEENS_17__hash_value_typeIS7_N6Merger10FileMergerEEENS_4hashIS7_EENS_8equal_toIS7_EELb1EEEE6secondB8ue170006Ev, symObjAddr: 0x2A830, symBinAddr: 0x10002E8A4, symSize: 0x24 }
  - { offsetInCU: 0x4EE6B, offset: 0x4EE6B, size: 0x8, addend: 0x0, symName: __ZNSt3__122__compressed_pair_elemINS_22__unordered_map_hasherINS_12basic_stringIcNS_11char_traitsIcEENS_9allocatorIcEEEENS_17__hash_value_typeIS7_N6Merger10FileMergerEEENS_4hashIS7_EENS_8equal_toIS7_EELb1EEELi1ELb1EE5__getB8ue170006Ev, symObjAddr: 0x2A854, symBinAddr: 0x10002E8C8, symSize: 0x14 }
  - { offsetInCU: 0x4EE91, offset: 0x4EE91, size: 0x8, addend: 0x0, symName: __ZNKSt3__113__string_hashIcNS_9allocatorIcEEEclB8ue170006ERKNS_12basic_stringIcNS_11char_traitsIcEES2_EE, symObjAddr: 0x2A868, symBinAddr: 0x10002E8DC, symSize: 0x64 }
  - { offsetInCU: 0x4EEC6, offset: 0x4EEC6, size: 0x8, addend: 0x0, symName: __ZNKSt3__121__murmur2_or_cityhashImLm64EEclB8ue170006EPKvm, symObjAddr: 0x2A908, symBinAddr: 0x10002E97C, symSize: 0x410 }
  - { offsetInCU: 0x4EF60, offset: 0x4EF60, size: 0x8, addend: 0x0, symName: __ZNSt3__121__murmur2_or_cityhashImLm64EE18__hash_len_0_to_16B8ue170006EPKcm, symObjAddr: 0x2AD18, symBinAddr: 0x10002ED8C, symSize: 0x1C0 }
  - { offsetInCU: 0x4F039, offset: 0x4F039, size: 0x8, addend: 0x0, symName: __ZNSt3__121__murmur2_or_cityhashImLm64EE19__hash_len_17_to_32B8ue170006EPKcm, symObjAddr: 0x2AED8, symBinAddr: 0x10002EF4C, symSize: 0x130 }
  - { offsetInCU: 0x4F0A2, offset: 0x4F0A2, size: 0x8, addend: 0x0, symName: __ZNSt3__121__murmur2_or_cityhashImLm64EE19__hash_len_33_to_64B8ue170006EPKcm, symObjAddr: 0x2B008, symBinAddr: 0x10002F07C, symSize: 0x2B8 }
  - { offsetInCU: 0x4F157, offset: 0x4F157, size: 0x8, addend: 0x0, symName: __ZNSt3__121__murmur2_or_cityhashImLm64EE13__hash_len_16B8ue170006Emm, symObjAddr: 0x2B2E0, symBinAddr: 0x10002F354, symSize: 0x80 }
  - { offsetInCU: 0x4F1B2, offset: 0x4F1B2, size: 0x8, addend: 0x0, symName: __ZNSt3__121__murmur2_or_cityhashImLm64EE29__weak_hash_len_32_with_seedsB8ue170006EPKcmm, symObjAddr: 0x2B360, symBinAddr: 0x10002F3D4, symSize: 0x88 }
  - { offsetInCU: 0x4F1F1, offset: 0x4F1F1, size: 0x8, addend: 0x0, symName: __ZNSt3__121__murmur2_or_cityhashImLm64EE8__rotateB8ue170006Emi, symObjAddr: 0x2B3E8, symBinAddr: 0x10002F45C, symSize: 0x64 }
  - { offsetInCU: 0x4F222, offset: 0x4F222, size: 0x8, addend: 0x0, symName: __ZNSt3__14pairImmEaSB8ue170006EOS1_, symObjAddr: 0x2B44C, symBinAddr: 0x10002F4C0, symSize: 0x30 }
  - { offsetInCU: 0x4F257, offset: 0x4F257, size: 0x8, addend: 0x0, symName: __ZNSt3__121__murmur2_or_cityhashImLm64EE11__shift_mixB8ue170006Em, symObjAddr: 0x2B4B8, symBinAddr: 0x10002F52C, symSize: 0x1C }
  - { offsetInCU: 0x4F27A, offset: 0x4F27A, size: 0x8, addend: 0x0, symName: __ZNSt3__121__murmur2_or_cityhashImLm64EE22__rotate_by_at_least_1B8ue170006Emi, symObjAddr: 0x2B4D4, symBinAddr: 0x10002F548, symSize: 0x38 }
  - { offsetInCU: 0x4F2AB, offset: 0x4F2AB, size: 0x8, addend: 0x0, symName: __ZNSt3__121__murmur2_or_cityhashImLm64EE29__weak_hash_len_32_with_seedsB8ue170006Emmmmmm, symObjAddr: 0x2B52C, symBinAddr: 0x10002F5A0, symSize: 0xD8 }
  - { offsetInCU: 0x4F322, offset: 0x4F322, size: 0x8, addend: 0x0, symName: __ZNSt3__14pairImmEC1B8ue170006ImmLPv0EEEOT_OT0_, symObjAddr: 0x2B604, symBinAddr: 0x10002F678, symSize: 0x3C }
  - { offsetInCU: 0x4F380, offset: 0x4F380, size: 0x8, addend: 0x0, symName: __ZNSt3__14pairImmEC2B8ue170006ImmLPv0EEEOT_OT0_, symObjAddr: 0x2B640, symBinAddr: 0x10002F6B4, symSize: 0x34 }
  - { offsetInCU: 0x4F3DE, offset: 0x4F3DE, size: 0x8, addend: 0x0, symName: __ZNKSt3__110unique_ptrIA_PNS_16__hash_node_baseIPNS_11__hash_nodeINS_17__hash_value_typeINS_12basic_stringIcNS_11char_traitsIcEENS_9allocatorIcEEEEN6Merger10FileMergerEEEPvEEEENS_25__bucket_list_deallocatorINS7_ISH_EEEEE11get_deleterB8ue170006Ev, symObjAddr: 0x2B674, symBinAddr: 0x10002F6E8, symSize: 0x24 }
  - { offsetInCU: 0x4F404, offset: 0x4F404, size: 0x8, addend: 0x0, symName: __ZNKSt3__125__bucket_list_deallocatorINS_9allocatorIPNS_16__hash_node_baseIPNS_11__hash_nodeINS_17__hash_value_typeINS_12basic_stringIcNS_11char_traitsIcEENS1_IcEEEEN6Merger10FileMergerEEEPvEEEEEEE4sizeB8ue170006Ev, symObjAddr: 0x2B698, symBinAddr: 0x10002F70C, symSize: 0x28 }
  - { offsetInCU: 0x4F42A, offset: 0x4F42A, size: 0x8, addend: 0x0, symName: __ZNKSt3__117__compressed_pairIPPNS_16__hash_node_baseIPNS_11__hash_nodeINS_17__hash_value_typeINS_12basic_stringIcNS_11char_traitsIcEENS_9allocatorIcEEEEN6Merger10FileMergerEEEPvEEEENS_25__bucket_list_deallocatorINS7_ISH_EEEEE6secondB8ue170006Ev, symObjAddr: 0x2B6C0, symBinAddr: 0x10002F734, symSize: 0x28 }
  - { offsetInCU: 0x4F450, offset: 0x4F450, size: 0x8, addend: 0x0, symName: __ZNKSt3__122__compressed_pair_elemINS_25__bucket_list_deallocatorINS_9allocatorIPNS_16__hash_node_baseIPNS_11__hash_nodeINS_17__hash_value_typeINS_12basic_stringIcNS_11char_traitsIcEENS2_IcEEEEN6Merger10FileMergerEEEPvEEEEEEEELi1ELb0EE5__getB8ue170006Ev, symObjAddr: 0x2B6E8, symBinAddr: 0x10002F75C, symSize: 0x14 }
  - { offsetInCU: 0x4F476, offset: 0x4F476, size: 0x8, addend: 0x0, symName: __ZNKSt3__117__compressed_pairImNS_9allocatorIPNS_16__hash_node_baseIPNS_11__hash_nodeINS_17__hash_value_typeINS_12basic_stringIcNS_11char_traitsIcEENS1_IcEEEEN6Merger10FileMergerEEEPvEEEEEEE5firstB8ue170006Ev, symObjAddr: 0x2B6FC, symBinAddr: 0x10002F770, symSize: 0x24 }
  - { offsetInCU: 0x4F49C, offset: 0x4F49C, size: 0x8, addend: 0x0, symName: __ZNKSt3__117__compressed_pairIPPNS_16__hash_node_baseIPNS_11__hash_nodeINS_17__hash_value_typeINS_12basic_stringIcNS_11char_traitsIcEENS_9allocatorIcEEEEN6Merger10FileMergerEEEPvEEEENS_25__bucket_list_deallocatorINS7_ISH_EEEEE5firstB8ue170006Ev, symObjAddr: 0x2B720, symBinAddr: 0x10002F794, symSize: 0x24 }
  - { offsetInCU: 0x4F4C2, offset: 0x4F4C2, size: 0x8, addend: 0x0, symName: __ZNKSt3__122__compressed_pair_elemIPPNS_16__hash_node_baseIPNS_11__hash_nodeINS_17__hash_value_typeINS_12basic_stringIcNS_11char_traitsIcEENS_9allocatorIcEEEEN6Merger10FileMergerEEEPvEEEELi0ELb0EE5__getB8ue170006Ev, symObjAddr: 0x2B744, symBinAddr: 0x10002F7B8, symSize: 0x14 }
  - { offsetInCU: 0x4F4E8, offset: 0x4F4E8, size: 0x8, addend: 0x0, symName: __ZNSt3__117__compressed_pairIfNS_21__unordered_map_equalINS_12basic_stringIcNS_11char_traitsIcEENS_9allocatorIcEEEENS_17__hash_value_typeIS7_N6Merger10FileMergerEEENS_8equal_toIS7_EENS_4hashIS7_EELb1EEEE6secondB8ue170006Ev, symObjAddr: 0x2B758, symBinAddr: 0x10002F7CC, symSize: 0x24 }
  - { offsetInCU: 0x4F50E, offset: 0x4F50E, size: 0x8, addend: 0x0, symName: __ZNSt3__122__compressed_pair_elemINS_21__unordered_map_equalINS_12basic_stringIcNS_11char_traitsIcEENS_9allocatorIcEEEENS_17__hash_value_typeIS7_N6Merger10FileMergerEEENS_8equal_toIS7_EENS_4hashIS7_EELb1EEELi1ELb1EE5__getB8ue170006Ev, symObjAddr: 0x2B77C, symBinAddr: 0x10002F7F0, symSize: 0x14 }
  - { offsetInCU: 0x4F534, offset: 0x4F534, size: 0x8, addend: 0x0, symName: __ZNKSt3__18equal_toINS_12basic_stringIcNS_11char_traitsIcEENS_9allocatorIcEEEEEclB8ue170006ERKS6_S9_, symObjAddr: 0x2B790, symBinAddr: 0x10002F804, symSize: 0x34 }
  - { offsetInCU: 0x4F578, offset: 0x4F578, size: 0x8, addend: 0x0, symName: __ZNKSt3__117__hash_value_typeINS_12basic_stringIcNS_11char_traitsIcEENS_9allocatorIcEEEEN6Merger10FileMergerEE11__get_valueB8ue170006Ev, symObjAddr: 0x2B7C4, symBinAddr: 0x10002F838, symSize: 0x24 }
  - { offsetInCU: 0x4F59E, offset: 0x4F59E, size: 0x8, addend: 0x0, symName: __ZNSt3__114pointer_traitsIPNS_16__hash_node_baseIPNS_11__hash_nodeINS_17__hash_value_typeINS_12basic_stringIcNS_11char_traitsIcEENS_9allocatorIcEEEEN6Merger10FileMergerEEEPvEEEEE10pointer_toB8ue170006ERSG_, symObjAddr: 0x2B968, symBinAddr: 0x10002F9DC, symSize: 0x14 }
  - { offsetInCU: 0x4F5C1, offset: 0x4F5C1, size: 0x8, addend: 0x0, symName: __ZNSt3__112__hash_tableINS_17__hash_value_typeINS_12basic_stringIcNS_11char_traitsIcEENS_9allocatorIcEEEEN6Merger10FileMergerEEENS_22__unordered_map_hasherIS7_SA_NS_4hashIS7_EENS_8equal_toIS7_EELb1EEENS_21__unordered_map_equalIS7_SA_SF_SD_Lb1EEENS5_ISA_EEE12__node_allocB8ue170006Ev, symObjAddr: 0x2B97C, symBinAddr: 0x10002F9F0, symSize: 0x28 }
  - { offsetInCU: 0x4F5E7, offset: 0x4F5E7, size: 0x8, addend: 0x0, symName: __ZNSt3__116allocator_traitsINS_9allocatorINS_11__hash_nodeINS_17__hash_value_typeINS_12basic_stringIcNS_11char_traitsIcEENS1_IcEEEEN6Merger10FileMergerEEEPvEEEEE8allocateB8ue170006ERSE_m, symObjAddr: 0x2B9A4, symBinAddr: 0x10002FA18, symSize: 0x2C }
  - { offsetInCU: 0x4F61A, offset: 0x4F61A, size: 0x8, addend: 0x0, symName: __ZNSt3__122__hash_node_destructorINS_9allocatorINS_11__hash_nodeINS_17__hash_value_typeINS_12basic_stringIcNS_11char_traitsIcEENS1_IcEEEEN6Merger10FileMergerEEEPvEEEEEC1B8ue170006ERSE_b, symObjAddr: 0x2B9D0, symBinAddr: 0x10002FA44, symSize: 0x48 }
  - { offsetInCU: 0x4F668, offset: 0x4F668, size: 0x8, addend: 0x0, symName: __ZNSt3__110unique_ptrINS_11__hash_nodeINS_17__hash_value_typeINS_12basic_stringIcNS_11char_traitsIcEENS_9allocatorIcEEEEN6Merger10FileMergerEEEPvEENS_22__hash_node_destructorINS6_ISD_EEEEEC1B8ue170006ILb1EvEEPSD_NS_16__dependent_typeINS_27__unique_ptr_deleter_sfinaeISG_EEXT_EE20__good_rval_ref_typeE, symObjAddr: 0x2BA18, symBinAddr: 0x10002FA8C, symSize: 0x3C }
  - { offsetInCU: 0x4F6B9, offset: 0x4F6B9, size: 0x8, addend: 0x0, symName: __ZNSt3__116allocator_traitsINS_9allocatorINS_11__hash_nodeINS_17__hash_value_typeINS_12basic_stringIcNS_11char_traitsIcEENS1_IcEEEEN6Merger10FileMergerEEEPvEEEEE9constructB8ue170006INS_4pairIKS8_SA_EEJRKNS_21piecewise_construct_tENS_5tupleIJRSI_EEENSN_IJEEEEvvEEvRSE_PT_DpOT0_, symObjAddr: 0x2BA54, symBinAddr: 0x10002FAC8, symSize: 0x40 }
  - { offsetInCU: 0x4F736, offset: 0x4F736, size: 0x8, addend: 0x0, symName: __ZNSt3__122__hash_key_value_typesINS_17__hash_value_typeINS_12basic_stringIcNS_11char_traitsIcEENS_9allocatorIcEEEEN6Merger10FileMergerEEEE9__get_ptrB8ue170006ERSA_, symObjAddr: 0x2BA94, symBinAddr: 0x10002FB08, symSize: 0x24 }
  - { offsetInCU: 0x4F759, offset: 0x4F759, size: 0x8, addend: 0x0, symName: __ZNSt3__110unique_ptrINS_11__hash_nodeINS_17__hash_value_typeINS_12basic_stringIcNS_11char_traitsIcEENS_9allocatorIcEEEEN6Merger10FileMergerEEEPvEENS_22__hash_node_destructorINS6_ISD_EEEEE11get_deleterB8ue170006Ev, symObjAddr: 0x2BAB8, symBinAddr: 0x10002FB2C, symSize: 0x24 }
  - { offsetInCU: 0x4F77F, offset: 0x4F77F, size: 0x8, addend: 0x0, symName: __ZNSt3__117__compressed_pairINS_16__hash_node_baseIPNS_11__hash_nodeINS_17__hash_value_typeINS_12basic_stringIcNS_11char_traitsIcEENS_9allocatorIcEEEEN6Merger10FileMergerEEEPvEEEENS7_ISE_EEE6secondB8ue170006Ev, symObjAddr: 0x2BADC, symBinAddr: 0x10002FB50, symSize: 0x24 }
  - { offsetInCU: 0x4F7A5, offset: 0x4F7A5, size: 0x8, addend: 0x0, symName: __ZNSt3__122__compressed_pair_elemINS_9allocatorINS_11__hash_nodeINS_17__hash_value_typeINS_12basic_stringIcNS_11char_traitsIcEENS1_IcEEEEN6Merger10FileMergerEEEPvEEEELi1ELb1EE5__getB8ue170006Ev, symObjAddr: 0x2BB00, symBinAddr: 0x10002FB74, symSize: 0x14 }
  - { offsetInCU: 0x4F7CB, offset: 0x4F7CB, size: 0x8, addend: 0x0, symName: __ZNSt3__19allocatorINS_11__hash_nodeINS_17__hash_value_typeINS_12basic_stringIcNS_11char_traitsIcEENS0_IcEEEEN6Merger10FileMergerEEEPvEEE8allocateB8ue170006Em, symObjAddr: 0x2BB14, symBinAddr: 0x10002FB88, symSize: 0x58 }
  - { offsetInCU: 0x4F80A, offset: 0x4F80A, size: 0x8, addend: 0x0, symName: __ZNSt3__116allocator_traitsINS_9allocatorINS_11__hash_nodeINS_17__hash_value_typeINS_12basic_stringIcNS_11char_traitsIcEENS1_IcEEEEN6Merger10FileMergerEEEPvEEEEE8max_sizeB8ue170006ISE_vvEEmRKSE_, symObjAddr: 0x2BB6C, symBinAddr: 0x10002FBE0, symSize: 0x28 }
  - { offsetInCU: 0x4F836, offset: 0x4F836, size: 0x8, addend: 0x0, symName: __ZNSt3__122__hash_node_destructorINS_9allocatorINS_11__hash_nodeINS_17__hash_value_typeINS_12basic_stringIcNS_11char_traitsIcEENS1_IcEEEEN6Merger10FileMergerEEEPvEEEEEC2B8ue170006ERSE_b, symObjAddr: 0x2BB94, symBinAddr: 0x10002FC08, symSize: 0x38 }
  - { offsetInCU: 0x4F87E, offset: 0x4F87E, size: 0x8, addend: 0x0, symName: __ZNSt3__110unique_ptrINS_11__hash_nodeINS_17__hash_value_typeINS_12basic_stringIcNS_11char_traitsIcEENS_9allocatorIcEEEEN6Merger10FileMergerEEEPvEENS_22__hash_node_destructorINS6_ISD_EEEEEC2B8ue170006ILb1EvEEPSD_NS_16__dependent_typeINS_27__unique_ptr_deleter_sfinaeISG_EEXT_EE20__good_rval_ref_typeE, symObjAddr: 0x2BBCC, symBinAddr: 0x10002FC40, symSize: 0x48 }
  - { offsetInCU: 0x4F8CF, offset: 0x4F8CF, size: 0x8, addend: 0x0, symName: __ZNSt3__117__compressed_pairIPNS_11__hash_nodeINS_17__hash_value_typeINS_12basic_stringIcNS_11char_traitsIcEENS_9allocatorIcEEEEN6Merger10FileMergerEEEPvEENS_22__hash_node_destructorINS6_ISD_EEEEEC1B8ue170006IRSE_SH_EEOT_OT0_, symObjAddr: 0x2BC14, symBinAddr: 0x10002FC88, symSize: 0x3C }
  - { offsetInCU: 0x4F927, offset: 0x4F927, size: 0x8, addend: 0x0, symName: __ZNSt3__117__compressed_pairIPNS_11__hash_nodeINS_17__hash_value_typeINS_12basic_stringIcNS_11char_traitsIcEENS_9allocatorIcEEEEN6Merger10FileMergerEEEPvEENS_22__hash_node_destructorINS6_ISD_EEEEEC2B8ue170006IRSE_SH_EEOT_OT0_, symObjAddr: 0x2BC50, symBinAddr: 0x10002FCC4, symSize: 0x48 }
  - { offsetInCU: 0x4F97F, offset: 0x4F97F, size: 0x8, addend: 0x0, symName: __ZNSt3__122__compressed_pair_elemIPNS_11__hash_nodeINS_17__hash_value_typeINS_12basic_stringIcNS_11char_traitsIcEENS_9allocatorIcEEEEN6Merger10FileMergerEEEPvEELi0ELb0EEC2B8ue170006IRSE_vEEOT_, symObjAddr: 0x2BC98, symBinAddr: 0x10002FD0C, symSize: 0x24 }
  - { offsetInCU: 0x4F9C1, offset: 0x4F9C1, size: 0x8, addend: 0x0, symName: __ZNSt3__122__compressed_pair_elemINS_22__hash_node_destructorINS_9allocatorINS_11__hash_nodeINS_17__hash_value_typeINS_12basic_stringIcNS_11char_traitsIcEENS2_IcEEEEN6Merger10FileMergerEEEPvEEEEEELi1ELb0EEC2B8ue170006ISG_vEEOT_, symObjAddr: 0x2BCBC, symBinAddr: 0x10002FD30, symSize: 0x24 }
  - { offsetInCU: 0x4FA03, offset: 0x4FA03, size: 0x8, addend: 0x0, symName: __ZNSt3__14pairIKNS_12basic_stringIcNS_11char_traitsIcEENS_9allocatorIcEEEEN6Merger10FileMergerEEC1B8ue170006IJRS7_EJEEENS_21piecewise_construct_tENS_5tupleIJDpT_EEENSE_IJDpT0_EEE, symObjAddr: 0x2BD30, symBinAddr: 0x10002FDA4, symSize: 0x3C }
  - { offsetInCU: 0x4FA6A, offset: 0x4FA6A, size: 0x8, addend: 0x0, symName: __ZNSt3__14pairIKNS_12basic_stringIcNS_11char_traitsIcEENS_9allocatorIcEEEEN6Merger10FileMergerEEC1B8ue170006IJRS7_EJEJLm0EEJEEENS_21piecewise_construct_tERNS_5tupleIJDpT_EEERNSE_IJDpT0_EEENS_15__tuple_indicesIJXspT1_EEEENSN_IJXspT2_EEEE, symObjAddr: 0x2BD6C, symBinAddr: 0x10002FDE0, symSize: 0x3C }
  - { offsetInCU: 0x4FAFA, offset: 0x4FAFA, size: 0x8, addend: 0x0, symName: __ZNSt3__14pairIKNS_12basic_stringIcNS_11char_traitsIcEENS_9allocatorIcEEEEN6Merger10FileMergerEEC2B8ue170006IJRS7_EJEJLm0EEJEEENS_21piecewise_construct_tERNS_5tupleIJDpT_EEERNSE_IJDpT0_EEENS_15__tuple_indicesIJXspT1_EEEENSN_IJXspT2_EEEE, symObjAddr: 0x2BDA8, symBinAddr: 0x10002FE1C, symSize: 0x5C }
  - { offsetInCU: 0x4FB8F, offset: 0x4FB8F, size: 0x8, addend: 0x0, symName: __ZN6Merger10FileMergerC1Ev, symObjAddr: 0x2BE28, symBinAddr: 0x10002FE9C, symSize: 0x2C }
  - { offsetInCU: 0x4FBBC, offset: 0x4FBBC, size: 0x8, addend: 0x0, symName: __ZNSt3__112__tuple_leafILm0ERKNS_12basic_stringIcNS_11char_traitsIcEENS_9allocatorIcEEEELb0EE3getB8ue170006Ev, symObjAddr: 0x2BE54, symBinAddr: 0x10002FEC8, symSize: 0x18 }
  - { offsetInCU: 0x4FBE2, offset: 0x4FBE2, size: 0x8, addend: 0x0, symName: __ZN6Merger10FileMergerC2Ev, symObjAddr: 0x2BE6C, symBinAddr: 0x10002FEE0, symSize: 0x2C }
  - { offsetInCU: 0x4FC0F, offset: 0x4FC0F, size: 0x8, addend: 0x0, symName: __ZNSt3__16vectorI9PartitionNS_9allocatorIS1_EEEC1B8ue170006Ev, symObjAddr: 0x2BE98, symBinAddr: 0x10002FF0C, symSize: 0x2C }
  - { offsetInCU: 0x4FC39, offset: 0x4FC39, size: 0x8, addend: 0x0, symName: __ZNSt3__16vectorI9PartitionNS_9allocatorIS1_EEEC2B8ue170006Ev, symObjAddr: 0x2BEC4, symBinAddr: 0x10002FF38, symSize: 0x4C }
  - { offsetInCU: 0x4FC63, offset: 0x4FC63, size: 0x8, addend: 0x0, symName: __ZNSt3__117__compressed_pairIP9PartitionNS_9allocatorIS1_EEEC1B8ue170006IDnNS_18__default_init_tagEEEOT_OT0_, symObjAddr: 0x2BF10, symBinAddr: 0x10002FF84, symSize: 0x3C }
  - { offsetInCU: 0x4FCBB, offset: 0x4FCBB, size: 0x8, addend: 0x0, symName: __ZNSt3__117__compressed_pairIP9PartitionNS_9allocatorIS1_EEEC2B8ue170006IDnNS_18__default_init_tagEEEOT_OT0_, symObjAddr: 0x2BF4C, symBinAddr: 0x10002FFC0, symSize: 0x40 }
  - { offsetInCU: 0x4FD13, offset: 0x4FD13, size: 0x8, addend: 0x0, symName: __ZNSt3__122__compressed_pair_elemIP9PartitionLi0ELb0EEC2B8ue170006IDnvEEOT_, symObjAddr: 0x2BF8C, symBinAddr: 0x100030000, symSize: 0x1C }
  - { offsetInCU: 0x4FD55, offset: 0x4FD55, size: 0x8, addend: 0x0, symName: __ZNSt3__122__compressed_pair_elemINS_9allocatorI9PartitionEELi1ELb1EEC2B8ue170006ENS_18__default_init_tagE, symObjAddr: 0x2BFA8, symBinAddr: 0x10003001C, symSize: 0x2C }
  - { offsetInCU: 0x4FD89, offset: 0x4FD89, size: 0x8, addend: 0x0, symName: __ZNSt3__19allocatorI9PartitionEC2B8ue170006Ev, symObjAddr: 0x2BFD4, symBinAddr: 0x100030048, symSize: 0x2C }
  - { offsetInCU: 0x4FDB3, offset: 0x4FDB3, size: 0x8, addend: 0x0, symName: __ZNSt3__116__non_trivial_ifILb1ENS_9allocatorI9PartitionEEEC2B8ue170006Ev, symObjAddr: 0x2C000, symBinAddr: 0x100030074, symSize: 0x14 }
  - { offsetInCU: 0x4FDDD, offset: 0x4FDDD, size: 0x8, addend: 0x0, symName: __ZNSt3__117__compressed_pairIPNS_11__hash_nodeINS_17__hash_value_typeINS_12basic_stringIcNS_11char_traitsIcEENS_9allocatorIcEEEEN6Merger10FileMergerEEEPvEENS_22__hash_node_destructorINS6_ISD_EEEEE6secondB8ue170006Ev, symObjAddr: 0x2C014, symBinAddr: 0x100030088, symSize: 0x28 }
  - { offsetInCU: 0x4FE03, offset: 0x4FE03, size: 0x8, addend: 0x0, symName: __ZNSt3__122__compressed_pair_elemINS_22__hash_node_destructorINS_9allocatorINS_11__hash_nodeINS_17__hash_value_typeINS_12basic_stringIcNS_11char_traitsIcEENS2_IcEEEEN6Merger10FileMergerEEEPvEEEEEELi1ELb0EE5__getB8ue170006Ev, symObjAddr: 0x2C03C, symBinAddr: 0x1000300B0, symSize: 0x14 }
  - { offsetInCU: 0x4FE29, offset: 0x4FE29, size: 0x8, addend: 0x0, symName: __ZNSt3__117__compressed_pairImNS_22__unordered_map_hasherINS_12basic_stringIcNS_11char_traitsIcEENS_9allocatorIcEEEENS_17__hash_value_typeIS7_N6Merger10FileMergerEEENS_4hashIS7_EENS_8equal_toIS7_EELb1EEEE5firstB8ue170006Ev, symObjAddr: 0x2C050, symBinAddr: 0x1000300C4, symSize: 0x24 }
  - { offsetInCU: 0x4FE4F, offset: 0x4FE4F, size: 0x8, addend: 0x0, symName: __ZNSt3__117__compressed_pairIfNS_21__unordered_map_equalINS_12basic_stringIcNS_11char_traitsIcEENS_9allocatorIcEEEENS_17__hash_value_typeIS7_N6Merger10FileMergerEEENS_8equal_toIS7_EENS_4hashIS7_EELb1EEEE5firstB8ue170006Ev, symObjAddr: 0x2C074, symBinAddr: 0x1000300E8, symSize: 0x24 }
  - { offsetInCU: 0x4FE75, offset: 0x4FE75, size: 0x8, addend: 0x0, symName: __ZNSt3__122__compressed_pair_elemIfLi0ELb0EE5__getB8ue170006Ev, symObjAddr: 0x2C098, symBinAddr: 0x10003010C, symSize: 0x14 }
  - { offsetInCU: 0x4FE9B, offset: 0x4FE9B, size: 0x8, addend: 0x0, symName: __ZNSt3__112__hash_tableINS_17__hash_value_typeINS_12basic_stringIcNS_11char_traitsIcEENS_9allocatorIcEEEEN6Merger10FileMergerEEENS_22__unordered_map_hasherIS7_SA_NS_4hashIS7_EENS_8equal_toIS7_EELb1EEENS_21__unordered_map_equalIS7_SA_SF_SD_Lb1EEENS5_ISA_EEE8__rehashILb1EEEvm, symObjAddr: 0x2C0AC, symBinAddr: 0x100030120, symSize: 0x1A8 }
  - { offsetInCU: 0x4FEEB, offset: 0x4FEEB, size: 0x8, addend: 0x0, symName: __ZNSt3__112__hash_tableINS_17__hash_value_typeINS_12basic_stringIcNS_11char_traitsIcEENS_9allocatorIcEEEEN6Merger10FileMergerEEENS_22__unordered_map_hasherIS7_SA_NS_4hashIS7_EENS_8equal_toIS7_EELb1EEENS_21__unordered_map_equalIS7_SA_SF_SD_Lb1EEENS5_ISA_EEE11__do_rehashILb1EEEvm, symObjAddr: 0x2C254, symBinAddr: 0x1000302C8, symSize: 0x288 }
  - { offsetInCU: 0x4FFCE, offset: 0x4FFCE, size: 0x8, addend: 0x0, symName: __ZNSt3__110unique_ptrIA_PNS_16__hash_node_baseIPNS_11__hash_nodeINS_17__hash_value_typeINS_12basic_stringIcNS_11char_traitsIcEENS_9allocatorIcEEEEN6Merger10FileMergerEEEPvEEEENS_25__bucket_list_deallocatorINS7_ISH_EEEEE11get_deleterB8ue170006Ev, symObjAddr: 0x2C548, symBinAddr: 0x1000305BC, symSize: 0x24 }
  - { offsetInCU: 0x4FFF4, offset: 0x4FFF4, size: 0x8, addend: 0x0, symName: __ZNSt3__125__bucket_list_deallocatorINS_9allocatorIPNS_16__hash_node_baseIPNS_11__hash_nodeINS_17__hash_value_typeINS_12basic_stringIcNS_11char_traitsIcEENS1_IcEEEEN6Merger10FileMergerEEEPvEEEEEEE7__allocB8ue170006Ev, symObjAddr: 0x2C56C, symBinAddr: 0x1000305E0, symSize: 0x24 }
  - { offsetInCU: 0x5001A, offset: 0x5001A, size: 0x8, addend: 0x0, symName: __ZNSt3__110unique_ptrIA_PNS_16__hash_node_baseIPNS_11__hash_nodeINS_17__hash_value_typeINS_12basic_stringIcNS_11char_traitsIcEENS_9allocatorIcEEEEN6Merger10FileMergerEEEPvEEEENS_25__bucket_list_deallocatorINS7_ISH_EEEEE5resetB8ue170006IPSH_EENS_9enable_ifIXsr28_CheckArrayPointerConversionIT_EE5valueEvE4typeESQ_, symObjAddr: 0x2C590, symBinAddr: 0x100030604, symSize: 0x78 }
  - { offsetInCU: 0x50067, offset: 0x50067, size: 0x8, addend: 0x0, symName: __ZNSt3__116allocator_traitsINS_9allocatorIPNS_16__hash_node_baseIPNS_11__hash_nodeINS_17__hash_value_typeINS_12basic_stringIcNS_11char_traitsIcEENS1_IcEEEEN6Merger10FileMergerEEEPvEEEEEEE8allocateB8ue170006ERSI_m, symObjAddr: 0x2C608, symBinAddr: 0x10003067C, symSize: 0x2C }
  - { offsetInCU: 0x5009A, offset: 0x5009A, size: 0x8, addend: 0x0, symName: __ZNSt3__125__bucket_list_deallocatorINS_9allocatorIPNS_16__hash_node_baseIPNS_11__hash_nodeINS_17__hash_value_typeINS_12basic_stringIcNS_11char_traitsIcEENS1_IcEEEEN6Merger10FileMergerEEEPvEEEEEEE4sizeB8ue170006Ev, symObjAddr: 0x2C634, symBinAddr: 0x1000306A8, symSize: 0x24 }
  - { offsetInCU: 0x500C0, offset: 0x500C0, size: 0x8, addend: 0x0, symName: __ZNSt3__117__compressed_pairIPPNS_16__hash_node_baseIPNS_11__hash_nodeINS_17__hash_value_typeINS_12basic_stringIcNS_11char_traitsIcEENS_9allocatorIcEEEEN6Merger10FileMergerEEEPvEEEENS_25__bucket_list_deallocatorINS7_ISH_EEEEE6secondB8ue170006Ev, symObjAddr: 0x2C658, symBinAddr: 0x1000306CC, symSize: 0x28 }
  - { offsetInCU: 0x500E6, offset: 0x500E6, size: 0x8, addend: 0x0, symName: __ZNSt3__122__compressed_pair_elemINS_25__bucket_list_deallocatorINS_9allocatorIPNS_16__hash_node_baseIPNS_11__hash_nodeINS_17__hash_value_typeINS_12basic_stringIcNS_11char_traitsIcEENS2_IcEEEEN6Merger10FileMergerEEEPvEEEEEEEELi1ELb0EE5__getB8ue170006Ev, symObjAddr: 0x2C680, symBinAddr: 0x1000306F4, symSize: 0x14 }
  - { offsetInCU: 0x5010C, offset: 0x5010C, size: 0x8, addend: 0x0, symName: __ZNSt3__117__compressed_pairImNS_9allocatorIPNS_16__hash_node_baseIPNS_11__hash_nodeINS_17__hash_value_typeINS_12basic_stringIcNS_11char_traitsIcEENS1_IcEEEEN6Merger10FileMergerEEEPvEEEEEEE6secondB8ue170006Ev, symObjAddr: 0x2C694, symBinAddr: 0x100030708, symSize: 0x24 }
  - { offsetInCU: 0x50132, offset: 0x50132, size: 0x8, addend: 0x0, symName: __ZNSt3__122__compressed_pair_elemINS_9allocatorIPNS_16__hash_node_baseIPNS_11__hash_nodeINS_17__hash_value_typeINS_12basic_stringIcNS_11char_traitsIcEENS1_IcEEEEN6Merger10FileMergerEEEPvEEEEEELi1ELb1EE5__getB8ue170006Ev, symObjAddr: 0x2C6B8, symBinAddr: 0x10003072C, symSize: 0x14 }
  - { offsetInCU: 0x50158, offset: 0x50158, size: 0x8, addend: 0x0, symName: __ZNSt3__117__compressed_pairIPPNS_16__hash_node_baseIPNS_11__hash_nodeINS_17__hash_value_typeINS_12basic_stringIcNS_11char_traitsIcEENS_9allocatorIcEEEEN6Merger10FileMergerEEEPvEEEENS_25__bucket_list_deallocatorINS7_ISH_EEEEE5firstB8ue170006Ev, symObjAddr: 0x2C6CC, symBinAddr: 0x100030740, symSize: 0x24 }
  - { offsetInCU: 0x5017E, offset: 0x5017E, size: 0x8, addend: 0x0, symName: __ZNSt3__125__bucket_list_deallocatorINS_9allocatorIPNS_16__hash_node_baseIPNS_11__hash_nodeINS_17__hash_value_typeINS_12basic_stringIcNS_11char_traitsIcEENS1_IcEEEEN6Merger10FileMergerEEEPvEEEEEEEclB8ue170006EPSH_, symObjAddr: 0x2C6F0, symBinAddr: 0x100030764, symSize: 0x58 }
  - { offsetInCU: 0x501B3, offset: 0x501B3, size: 0x8, addend: 0x0, symName: __ZNSt3__122__compressed_pair_elemIPPNS_16__hash_node_baseIPNS_11__hash_nodeINS_17__hash_value_typeINS_12basic_stringIcNS_11char_traitsIcEENS_9allocatorIcEEEEN6Merger10FileMergerEEEPvEEEELi0ELb0EE5__getB8ue170006Ev, symObjAddr: 0x2C748, symBinAddr: 0x1000307BC, symSize: 0x14 }
  - { offsetInCU: 0x501D9, offset: 0x501D9, size: 0x8, addend: 0x0, symName: __ZNSt3__116allocator_traitsINS_9allocatorIPNS_16__hash_node_baseIPNS_11__hash_nodeINS_17__hash_value_typeINS_12basic_stringIcNS_11char_traitsIcEENS1_IcEEEEN6Merger10FileMergerEEEPvEEEEEEE10deallocateB8ue170006ERSI_PSH_m, symObjAddr: 0x2C75C, symBinAddr: 0x1000307D0, symSize: 0x34 }
  - { offsetInCU: 0x5021B, offset: 0x5021B, size: 0x8, addend: 0x0, symName: __ZNSt3__19allocatorIPNS_16__hash_node_baseIPNS_11__hash_nodeINS_17__hash_value_typeINS_12basic_stringIcNS_11char_traitsIcEENS0_IcEEEEN6Merger10FileMergerEEEPvEEEEE10deallocateB8ue170006EPSG_m, symObjAddr: 0x2C790, symBinAddr: 0x100030804, symSize: 0x40 }
  - { offsetInCU: 0x5025D, offset: 0x5025D, size: 0x8, addend: 0x0, symName: __ZNSt3__19allocatorIPNS_16__hash_node_baseIPNS_11__hash_nodeINS_17__hash_value_typeINS_12basic_stringIcNS_11char_traitsIcEENS0_IcEEEEN6Merger10FileMergerEEEPvEEEEE8allocateB8ue170006Em, symObjAddr: 0x2C7D0, symBinAddr: 0x100030844, symSize: 0x58 }
  - { offsetInCU: 0x5029C, offset: 0x5029C, size: 0x8, addend: 0x0, symName: __ZNSt3__116allocator_traitsINS_9allocatorIPNS_16__hash_node_baseIPNS_11__hash_nodeINS_17__hash_value_typeINS_12basic_stringIcNS_11char_traitsIcEENS1_IcEEEEN6Merger10FileMergerEEEPvEEEEEEE8max_sizeB8ue170006ISI_vvEEmRKSI_, symObjAddr: 0x2C828, symBinAddr: 0x10003089C, symSize: 0x28 }
  - { offsetInCU: 0x502C8, offset: 0x502C8, size: 0x8, addend: 0x0, symName: __ZNSt3__117__compressed_pairImNS_9allocatorIPNS_16__hash_node_baseIPNS_11__hash_nodeINS_17__hash_value_typeINS_12basic_stringIcNS_11char_traitsIcEENS1_IcEEEEN6Merger10FileMergerEEEPvEEEEEEE5firstB8ue170006Ev, symObjAddr: 0x2C850, symBinAddr: 0x1000308C4, symSize: 0x24 }
  - { offsetInCU: 0x502EE, offset: 0x502EE, size: 0x8, addend: 0x0, symName: __ZNSt3__122__compressed_pair_elemINS_16__hash_node_baseIPNS_11__hash_nodeINS_17__hash_value_typeINS_12basic_stringIcNS_11char_traitsIcEENS_9allocatorIcEEEEN6Merger10FileMergerEEEPvEEEELi0ELb0EE5__getB8ue170006Ev, symObjAddr: 0x2C874, symBinAddr: 0x1000308E8, symSize: 0x14 }
  - { offsetInCU: 0x50314, offset: 0x50314, size: 0x8, addend: 0x0, symName: __ZNKSt3__117__compressed_pairIPNS_11__hash_nodeINS_17__hash_value_typeINS_12basic_stringIcNS_11char_traitsIcEENS_9allocatorIcEEEEN6Merger10FileMergerEEEPvEENS_22__hash_node_destructorINS6_ISD_EEEEE5firstB8ue170006Ev, symObjAddr: 0x2C888, symBinAddr: 0x1000308FC, symSize: 0x24 }
  - { offsetInCU: 0x5033A, offset: 0x5033A, size: 0x8, addend: 0x0, symName: __ZNKSt3__122__compressed_pair_elemIPNS_11__hash_nodeINS_17__hash_value_typeINS_12basic_stringIcNS_11char_traitsIcEENS_9allocatorIcEEEEN6Merger10FileMergerEEEPvEELi0ELb0EE5__getB8ue170006Ev, symObjAddr: 0x2C8AC, symBinAddr: 0x100030920, symSize: 0x14 }
  - { offsetInCU: 0x50360, offset: 0x50360, size: 0x8, addend: 0x0, symName: __ZNSt3__117__compressed_pairIPNS_11__hash_nodeINS_17__hash_value_typeINS_12basic_stringIcNS_11char_traitsIcEENS_9allocatorIcEEEEN6Merger10FileMergerEEEPvEENS_22__hash_node_destructorINS6_ISD_EEEEE5firstB8ue170006Ev, symObjAddr: 0x2C8C0, symBinAddr: 0x100030934, symSize: 0x24 }
  - { offsetInCU: 0x50386, offset: 0x50386, size: 0x8, addend: 0x0, symName: __ZNSt3__122__compressed_pair_elemIPNS_11__hash_nodeINS_17__hash_value_typeINS_12basic_stringIcNS_11char_traitsIcEENS_9allocatorIcEEEEN6Merger10FileMergerEEEPvEELi0ELb0EE5__getB8ue170006Ev, symObjAddr: 0x2C8E4, symBinAddr: 0x100030958, symSize: 0x14 }
  - { offsetInCU: 0x503AC, offset: 0x503AC, size: 0x8, addend: 0x0, symName: __ZNSt3__110unique_ptrINS_11__hash_nodeINS_17__hash_value_typeINS_12basic_stringIcNS_11char_traitsIcEENS_9allocatorIcEEEEN6Merger10FileMergerEEEPvEENS_22__hash_node_destructorINS6_ISD_EEEEED2B8ue170006Ev, symObjAddr: 0x2C8F8, symBinAddr: 0x10003096C, symSize: 0x30 }
  - { offsetInCU: 0x503D6, offset: 0x503D6, size: 0x8, addend: 0x0, symName: __ZNSt3__110unique_ptrINS_11__hash_nodeINS_17__hash_value_typeINS_12basic_stringIcNS_11char_traitsIcEENS_9allocatorIcEEEEN6Merger10FileMergerEEEPvEENS_22__hash_node_destructorINS6_ISD_EEEEE5resetB8ue170006EPSD_, symObjAddr: 0x2C928, symBinAddr: 0x10003099C, symSize: 0x78 }
  - { offsetInCU: 0x5041A, offset: 0x5041A, size: 0x8, addend: 0x0, symName: __ZNSt3__122__hash_node_destructorINS_9allocatorINS_11__hash_nodeINS_17__hash_value_typeINS_12basic_stringIcNS_11char_traitsIcEENS1_IcEEEEN6Merger10FileMergerEEEPvEEEEEclB8ue170006EPSD_, symObjAddr: 0x2C9A0, symBinAddr: 0x100030A14, symSize: 0x98 }
  - { offsetInCU: 0x5044F, offset: 0x5044F, size: 0x8, addend: 0x0, symName: __ZNSt3__116allocator_traitsINS_9allocatorINS_11__hash_nodeINS_17__hash_value_typeINS_12basic_stringIcNS_11char_traitsIcEENS1_IcEEEEN6Merger10FileMergerEEEPvEEEEE7destroyB8ue170006INS_4pairIKS8_SA_EEvvEEvRSE_PT_, symObjAddr: 0x2CA38, symBinAddr: 0x100030AAC, symSize: 0x28 }
  - { offsetInCU: 0x5048A, offset: 0x5048A, size: 0x8, addend: 0x0, symName: __ZNSt3__116allocator_traitsINS_9allocatorINS_11__hash_nodeINS_17__hash_value_typeINS_12basic_stringIcNS_11char_traitsIcEENS1_IcEEEEN6Merger10FileMergerEEEPvEEEEE10deallocateB8ue170006ERSE_PSD_m, symObjAddr: 0x2CA60, symBinAddr: 0x100030AD4, symSize: 0x34 }
  - { offsetInCU: 0x504CC, offset: 0x504CC, size: 0x8, addend: 0x0, symName: __ZNSt3__14pairIKNS_12basic_stringIcNS_11char_traitsIcEENS_9allocatorIcEEEEN6Merger10FileMergerEED1Ev, symObjAddr: 0x2CADC, symBinAddr: 0x100030B50, symSize: 0x2C }
  - { offsetInCU: 0x504F8, offset: 0x504F8, size: 0x8, addend: 0x0, symName: __ZNSt3__14pairIKNS_12basic_stringIcNS_11char_traitsIcEENS_9allocatorIcEEEEN6Merger10FileMergerEED2Ev, symObjAddr: 0x2CB08, symBinAddr: 0x100030B7C, symSize: 0x38 }
  - { offsetInCU: 0x50524, offset: 0x50524, size: 0x8, addend: 0x0, symName: __ZN6Merger10FileMergerD1Ev, symObjAddr: 0x2CB40, symBinAddr: 0x100030BB4, symSize: 0x2C }
  - { offsetInCU: 0x50551, offset: 0x50551, size: 0x8, addend: 0x0, symName: __ZN6Merger10FileMergerD2Ev, symObjAddr: 0x2CB6C, symBinAddr: 0x100030BE0, symSize: 0x2C }
  - { offsetInCU: 0x5057E, offset: 0x5057E, size: 0x8, addend: 0x0, symName: __ZNSt3__16vectorI9PartitionNS_9allocatorIS1_EEED1B8ue170006Ev, symObjAddr: 0x2CB98, symBinAddr: 0x100030C0C, symSize: 0x2C }
  - { offsetInCU: 0x505A8, offset: 0x505A8, size: 0x8, addend: 0x0, symName: __ZNSt3__16vectorI9PartitionNS_9allocatorIS1_EEED2B8ue170006Ev, symObjAddr: 0x2CBC4, symBinAddr: 0x100030C38, symSize: 0x44 }
  - { offsetInCU: 0x505D2, offset: 0x505D2, size: 0x8, addend: 0x0, symName: __ZNSt3__16vectorI9PartitionNS_9allocatorIS1_EEE16__destroy_vectorC1B8ue170006ERS4_, symObjAddr: 0x2CC08, symBinAddr: 0x100030C7C, symSize: 0x34 }
  - { offsetInCU: 0x5060B, offset: 0x5060B, size: 0x8, addend: 0x0, symName: __ZNSt3__16vectorI9PartitionNS_9allocatorIS1_EEE16__destroy_vectorclB8ue170006Ev, symObjAddr: 0x2CC3C, symBinAddr: 0x100030CB0, symSize: 0x90 }
  - { offsetInCU: 0x50631, offset: 0x50631, size: 0x8, addend: 0x0, symName: __ZNSt3__16vectorI9PartitionNS_9allocatorIS1_EEE16__destroy_vectorC2B8ue170006ERS4_, symObjAddr: 0x2CCCC, symBinAddr: 0x100030D40, symSize: 0x20 }
  - { offsetInCU: 0x5066A, offset: 0x5066A, size: 0x8, addend: 0x0, symName: __ZNSt3__16vectorI9PartitionNS_9allocatorIS1_EEE7__clearB8ue170006Ev, symObjAddr: 0x2CCEC, symBinAddr: 0x100030D60, symSize: 0x28 }
  - { offsetInCU: 0x50690, offset: 0x50690, size: 0x8, addend: 0x0, symName: __ZNKSt3__16vectorI9PartitionNS_9allocatorIS1_EEE17__annotate_deleteB8ue170006Ev, symObjAddr: 0x2CD14, symBinAddr: 0x100030D88, symSize: 0xB8 }
  - { offsetInCU: 0x506B6, offset: 0x506B6, size: 0x8, addend: 0x0, symName: __ZNSt3__116allocator_traitsINS_9allocatorI9PartitionEEE10deallocateB8ue170006ERS3_PS2_m, symObjAddr: 0x2CDCC, symBinAddr: 0x100030E40, symSize: 0x34 }
  - { offsetInCU: 0x506F8, offset: 0x506F8, size: 0x8, addend: 0x0, symName: __ZNSt3__16vectorI9PartitionNS_9allocatorIS1_EEE7__allocB8ue170006Ev, symObjAddr: 0x2CE00, symBinAddr: 0x100030E74, symSize: 0x28 }
  - { offsetInCU: 0x5071E, offset: 0x5071E, size: 0x8, addend: 0x0, symName: __ZNKSt3__16vectorI9PartitionNS_9allocatorIS1_EEE8capacityB8ue170006Ev, symObjAddr: 0x2CE28, symBinAddr: 0x100030E9C, symSize: 0x40 }
  - { offsetInCU: 0x50744, offset: 0x50744, size: 0x8, addend: 0x0, symName: __ZNSt3__16vectorI9PartitionNS_9allocatorIS1_EEE22__base_destruct_at_endB8ue170006EPS1_, symObjAddr: 0x2CE68, symBinAddr: 0x100030EDC, symSize: 0x8C }
  - { offsetInCU: 0x50788, offset: 0x50788, size: 0x8, addend: 0x0, symName: __ZNSt3__116allocator_traitsINS_9allocatorI9PartitionEEE7destroyB8ue170006IS2_vvEEvRS3_PT_, symObjAddr: 0x2CEF4, symBinAddr: 0x100030F68, symSize: 0x28 }
  - { offsetInCU: 0x507C3, offset: 0x507C3, size: 0x8, addend: 0x0, symName: __ZNKSt3__16vectorI9PartitionNS_9allocatorIS1_EEE31__annotate_contiguous_containerB8ue170006EPKvS6_S6_S6_, symObjAddr: 0x2CF64, symBinAddr: 0x100030FD8, symSize: 0x20 }
  - { offsetInCU: 0x50819, offset: 0x50819, size: 0x8, addend: 0x0, symName: __ZNKSt3__16vectorI9PartitionNS_9allocatorIS1_EEE4dataB8ue170006Ev, symObjAddr: 0x2CF84, symBinAddr: 0x100030FF8, symSize: 0x28 }
  - { offsetInCU: 0x5083F, offset: 0x5083F, size: 0x8, addend: 0x0, symName: __ZNSt3__19allocatorI9PartitionE10deallocateB8ue170006EPS1_m, symObjAddr: 0x2CFAC, symBinAddr: 0x100031020, symSize: 0x40 }
  - { offsetInCU: 0x50881, offset: 0x50881, size: 0x8, addend: 0x0, symName: __ZNSt3__117__compressed_pairIP9PartitionNS_9allocatorIS1_EEE6secondB8ue170006Ev, symObjAddr: 0x2CFEC, symBinAddr: 0x100031060, symSize: 0x24 }
  - { offsetInCU: 0x508A7, offset: 0x508A7, size: 0x8, addend: 0x0, symName: __ZNSt3__122__compressed_pair_elemINS_9allocatorI9PartitionEELi1ELb1EE5__getB8ue170006Ev, symObjAddr: 0x2D010, symBinAddr: 0x100031084, symSize: 0x14 }
  - { offsetInCU: 0x508CD, offset: 0x508CD, size: 0x8, addend: 0x0, symName: __ZNKSt3__16vectorI9PartitionNS_9allocatorIS1_EEE9__end_capB8ue170006Ev, symObjAddr: 0x2D024, symBinAddr: 0x100031098, symSize: 0x28 }
  - { offsetInCU: 0x508F3, offset: 0x508F3, size: 0x8, addend: 0x0, symName: __ZNKSt3__117__compressed_pairIP9PartitionNS_9allocatorIS1_EEE5firstB8ue170006Ev, symObjAddr: 0x2D04C, symBinAddr: 0x1000310C0, symSize: 0x24 }
  - { offsetInCU: 0x50919, offset: 0x50919, size: 0x8, addend: 0x0, symName: __ZNKSt3__122__compressed_pair_elemIP9PartitionLi0ELb0EE5__getB8ue170006Ev, symObjAddr: 0x2D070, symBinAddr: 0x1000310E4, symSize: 0x14 }
  - { offsetInCU: 0x5093F, offset: 0x5093F, size: 0x8, addend: 0x0, symName: __ZNSt3__19allocatorINS_11__hash_nodeINS_17__hash_value_typeINS_12basic_stringIcNS_11char_traitsIcEENS0_IcEEEEN6Merger10FileMergerEEEPvEEE10deallocateB8ue170006EPSC_m, symObjAddr: 0x2D084, symBinAddr: 0x1000310F8, symSize: 0x40 }
  - { offsetInCU: 0x50981, offset: 0x50981, size: 0x8, addend: 0x0, symName: __ZNSt3__115__hash_iteratorIPNS_11__hash_nodeINS_17__hash_value_typeINS_12basic_stringIcNS_11char_traitsIcEENS_9allocatorIcEEEEN6Merger10FileMergerEEEPvEEEC2B8ue170006EPNS_16__hash_node_baseISE_EE, symObjAddr: 0x2D0C4, symBinAddr: 0x100031138, symSize: 0x20 }
  - { offsetInCU: 0x509BA, offset: 0x509BA, size: 0x8, addend: 0x0, symName: __ZNSt3__14pairINS_15__hash_iteratorIPNS_11__hash_nodeINS_17__hash_value_typeINS_12basic_stringIcNS_11char_traitsIcEENS_9allocatorIcEEEEN6Merger10FileMergerEEEPvEEEEbEC2B8ue170006ISG_RbLSD_0EEEOT_OT0_, symObjAddr: 0x2D0E4, symBinAddr: 0x100031158, symSize: 0x38 }
  - { offsetInCU: 0x50A18, offset: 0x50A18, size: 0x8, addend: 0x0, symName: __ZNSt3__15tupleIJRKNS_12basic_stringIcNS_11char_traitsIcEENS_9allocatorIcEEEEEEC1B8ue170006INS_4_AndELi0EEES8_, symObjAddr: 0x2D11C, symBinAddr: 0x100031190, symSize: 0x34 }
  - { offsetInCU: 0x50A62, offset: 0x50A62, size: 0x8, addend: 0x0, symName: __ZNSt3__15tupleIJRKNS_12basic_stringIcNS_11char_traitsIcEENS_9allocatorIcEEEEEEC2B8ue170006INS_4_AndELi0EEES8_, symObjAddr: 0x2D150, symBinAddr: 0x1000311C4, symSize: 0x34 }
  - { offsetInCU: 0x50AAC, offset: 0x50AAC, size: 0x8, addend: 0x0, symName: __ZNSt3__112__tuple_implINS_15__tuple_indicesIJLm0EEEEJRKNS_12basic_stringIcNS_11char_traitsIcEENS_9allocatorIcEEEEEEC1B8ue170006IJLm0EEJSA_EJEJEJSA_EEENS1_IJXspT_EEEENS_13__tuple_typesIJDpT0_EEENS1_IJXspT1_EEEENSE_IJDpT2_EEEDpOT3_, symObjAddr: 0x2D184, symBinAddr: 0x1000311F8, symSize: 0x34 }
  - { offsetInCU: 0x50B41, offset: 0x50B41, size: 0x8, addend: 0x0, symName: __ZNSt3__112__tuple_implINS_15__tuple_indicesIJLm0EEEEJRKNS_12basic_stringIcNS_11char_traitsIcEENS_9allocatorIcEEEEEEC2B8ue170006IJLm0EEJSA_EJEJEJSA_EEENS1_IJXspT_EEEENS_13__tuple_typesIJDpT0_EEENS1_IJXspT1_EEEENSE_IJDpT2_EEEDpOT3_, symObjAddr: 0x2D1B8, symBinAddr: 0x10003122C, symSize: 0x34 }
  - { offsetInCU: 0x50BD6, offset: 0x50BD6, size: 0x8, addend: 0x0, symName: __ZNSt3__112__tuple_leafILm0ERKNS_12basic_stringIcNS_11char_traitsIcEENS_9allocatorIcEEEELb0EEC2B8ue170006IS8_vEEOT_, symObjAddr: 0x2D1EC, symBinAddr: 0x100031260, symSize: 0x20 }
  - { offsetInCU: 0x50C19, offset: 0x50C19, size: 0x8, addend: 0x0, symName: __ZNSt3__114pointer_traitsIPNS_17__hash_value_typeINS_12basic_stringIcNS_11char_traitsIcEENS_9allocatorIcEEEEN6Merger10FileMergerEEEE10pointer_toB8ue170006ERSA_, symObjAddr: 0x2D20C, symBinAddr: 0x100031280, symSize: 0x14 }
  - { offsetInCU: 0x50C3C, offset: 0x50C3C, size: 0x8, addend: 0x0, symName: __ZNSt3__16vectorI9PartitionNS_9allocatorIS1_EEE9__end_capB8ue170006Ev, symObjAddr: 0x2D258, symBinAddr: 0x1000312CC, symSize: 0x28 }
  - { offsetInCU: 0x50C68, offset: 0x50C68, size: 0x8, addend: 0x0, symName: __ZNSt3__16vectorI9PartitionNS_9allocatorIS1_EEE22__construct_one_at_endB8ue170006IJS1_EEEvDpOT_, symObjAddr: 0x2D280, symBinAddr: 0x1000312F4, symSize: 0x90 }
  - { offsetInCU: 0x50CB7, offset: 0x50CB7, size: 0x8, addend: 0x0, symName: __ZNSt3__16vectorI9PartitionNS_9allocatorIS1_EEE21__push_back_slow_pathIS1_EEvOT_, symObjAddr: 0x2D310, symBinAddr: 0x100031384, symSize: 0xD8 }
  - { offsetInCU: 0x50D15, offset: 0x50D15, size: 0x8, addend: 0x0, symName: __ZNSt3__117__compressed_pairIP9PartitionNS_9allocatorIS1_EEE5firstB8ue170006Ev, symObjAddr: 0x2D3E8, symBinAddr: 0x10003145C, symSize: 0x24 }
  - { offsetInCU: 0x50D3B, offset: 0x50D3B, size: 0x8, addend: 0x0, symName: __ZNSt3__122__compressed_pair_elemIP9PartitionLi0ELb0EE5__getB8ue170006Ev, symObjAddr: 0x2D40C, symBinAddr: 0x100031480, symSize: 0x14 }
  - { offsetInCU: 0x50D7C, offset: 0x50D7C, size: 0x8, addend: 0x0, symName: __ZNSt3__16vectorI9PartitionNS_9allocatorIS1_EEE21_ConstructTransactionC1B8ue170006ERS4_m, symObjAddr: 0x2D420, symBinAddr: 0x100031494, symSize: 0x3C }
  - { offsetInCU: 0x50DC4, offset: 0x50DC4, size: 0x8, addend: 0x0, symName: __ZNSt3__116allocator_traitsINS_9allocatorI9PartitionEEE9constructB8ue170006IS2_JS2_EvvEEvRS3_PT_DpOT0_, symObjAddr: 0x2D45C, symBinAddr: 0x1000314D0, symSize: 0x30 }
  - { offsetInCU: 0x50E19, offset: 0x50E19, size: 0x8, addend: 0x0, symName: __ZNSt3__16vectorI9PartitionNS_9allocatorIS1_EEE21_ConstructTransactionD1B8ue170006Ev, symObjAddr: 0x2D48C, symBinAddr: 0x100031500, symSize: 0x2C }
  - { offsetInCU: 0x50E43, offset: 0x50E43, size: 0x8, addend: 0x0, symName: __ZNSt3__16vectorI9PartitionNS_9allocatorIS1_EEE21_ConstructTransactionC2B8ue170006ERS4_m, symObjAddr: 0x2D4B8, symBinAddr: 0x10003152C, symSize: 0x44 }
  - { offsetInCU: 0x50E8B, offset: 0x50E8B, size: 0x8, addend: 0x0, symName: __ZNSt3__16vectorI9PartitionNS_9allocatorIS1_EEE21_ConstructTransactionD2B8ue170006Ev, symObjAddr: 0x2D530, symBinAddr: 0x1000315A4, symSize: 0x20 }
  - { offsetInCU: 0x50EB5, offset: 0x50EB5, size: 0x8, addend: 0x0, symName: __ZNKSt3__16vectorI9PartitionNS_9allocatorIS1_EEE11__recommendB8ue170006Em, symObjAddr: 0x2D550, symBinAddr: 0x1000315C4, symSize: 0xB4 }
  - { offsetInCU: 0x50F0A, offset: 0x50F0A, size: 0x8, addend: 0x0, symName: __ZNSt3__114__split_bufferI9PartitionRNS_9allocatorIS1_EEEC1EmmS4_, symObjAddr: 0x2D604, symBinAddr: 0x100031678, symSize: 0x44 }
  - { offsetInCU: 0x50F60, offset: 0x50F60, size: 0x8, addend: 0x0, symName: __ZNSt3__114__split_bufferI9PartitionRNS_9allocatorIS1_EEED1Ev, symObjAddr: 0x2D758, symBinAddr: 0x1000317CC, symSize: 0x2C }
  - { offsetInCU: 0x50F8C, offset: 0x50F8C, size: 0x8, addend: 0x0, symName: __ZNKSt3__16vectorI9PartitionNS_9allocatorIS1_EEE8max_sizeEv, symObjAddr: 0x2D784, symBinAddr: 0x1000317F8, symSize: 0x60 }
  - { offsetInCU: 0x50FB4, offset: 0x50FB4, size: 0x8, addend: 0x0, symName: __ZNKSt3__16vectorI9PartitionNS_9allocatorIS1_EEE20__throw_length_errorB8ue170006Ev, symObjAddr: 0x2D7E4, symBinAddr: 0x100031858, symSize: 0x1C }
  - { offsetInCU: 0x50FE5, offset: 0x50FE5, size: 0x8, addend: 0x0, symName: __ZNSt3__116allocator_traitsINS_9allocatorI9PartitionEEE8max_sizeB8ue170006IS3_vvEEmRKS3_, symObjAddr: 0x2D800, symBinAddr: 0x100031874, symSize: 0x28 }
  - { offsetInCU: 0x51011, offset: 0x51011, size: 0x8, addend: 0x0, symName: __ZNKSt3__16vectorI9PartitionNS_9allocatorIS1_EEE7__allocB8ue170006Ev, symObjAddr: 0x2D828, symBinAddr: 0x10003189C, symSize: 0x28 }
  - { offsetInCU: 0x51037, offset: 0x51037, size: 0x8, addend: 0x0, symName: __ZNKSt3__117__compressed_pairIP9PartitionNS_9allocatorIS1_EEE6secondB8ue170006Ev, symObjAddr: 0x2D850, symBinAddr: 0x1000318C4, symSize: 0x24 }
  - { offsetInCU: 0x5105D, offset: 0x5105D, size: 0x8, addend: 0x0, symName: __ZNKSt3__122__compressed_pair_elemINS_9allocatorI9PartitionEELi1ELb1EE5__getB8ue170006Ev, symObjAddr: 0x2D874, symBinAddr: 0x1000318E8, symSize: 0x14 }
  - { offsetInCU: 0x51083, offset: 0x51083, size: 0x8, addend: 0x0, symName: __ZNSt3__114__split_bufferI9PartitionRNS_9allocatorIS1_EEEC2EmmS4_, symObjAddr: 0x2D888, symBinAddr: 0x1000318FC, symSize: 0xD4 }
  - { offsetInCU: 0x510F6, offset: 0x510F6, size: 0x8, addend: 0x0, symName: __ZNSt3__117__compressed_pairIP9PartitionRNS_9allocatorIS1_EEEC1B8ue170006IDnS5_EEOT_OT0_, symObjAddr: 0x2D95C, symBinAddr: 0x1000319D0, symSize: 0x3C }
  - { offsetInCU: 0x5114E, offset: 0x5114E, size: 0x8, addend: 0x0, symName: __ZNSt3__114__split_bufferI9PartitionRNS_9allocatorIS1_EEE7__allocB8ue170006Ev, symObjAddr: 0x2D9D8, symBinAddr: 0x100031A4C, symSize: 0x28 }
  - { offsetInCU: 0x51174, offset: 0x51174, size: 0x8, addend: 0x0, symName: __ZNSt3__114__split_bufferI9PartitionRNS_9allocatorIS1_EEE9__end_capB8ue170006Ev, symObjAddr: 0x2DA00, symBinAddr: 0x100031A74, symSize: 0x28 }
  - { offsetInCU: 0x5119A, offset: 0x5119A, size: 0x8, addend: 0x0, symName: __ZNSt3__117__compressed_pairIP9PartitionRNS_9allocatorIS1_EEEC2B8ue170006IDnS5_EEOT_OT0_, symObjAddr: 0x2DA28, symBinAddr: 0x100031A9C, symSize: 0x48 }
  - { offsetInCU: 0x511F2, offset: 0x511F2, size: 0x8, addend: 0x0, symName: __ZNSt3__122__compressed_pair_elemIRNS_9allocatorI9PartitionEELi1ELb0EEC2B8ue170006IS4_vEEOT_, symObjAddr: 0x2DA70, symBinAddr: 0x100031AE4, symSize: 0x20 }
  - { offsetInCU: 0x51234, offset: 0x51234, size: 0x8, addend: 0x0, symName: __ZNSt3__19allocatorI9PartitionE8allocateB8ue170006Em, symObjAddr: 0x2DA90, symBinAddr: 0x100031B04, symSize: 0x58 }
  - { offsetInCU: 0x51268, offset: 0x51268, size: 0x8, addend: 0x0, symName: __ZNSt3__117__compressed_pairIP9PartitionRNS_9allocatorIS1_EEE6secondB8ue170006Ev, symObjAddr: 0x2DAE8, symBinAddr: 0x100031B5C, symSize: 0x28 }
  - { offsetInCU: 0x5128E, offset: 0x5128E, size: 0x8, addend: 0x0, symName: __ZNSt3__122__compressed_pair_elemIRNS_9allocatorI9PartitionEELi1ELb0EE5__getB8ue170006Ev, symObjAddr: 0x2DB10, symBinAddr: 0x100031B84, symSize: 0x18 }
  - { offsetInCU: 0x512B4, offset: 0x512B4, size: 0x8, addend: 0x0, symName: __ZNSt3__117__compressed_pairIP9PartitionRNS_9allocatorIS1_EEE5firstB8ue170006Ev, symObjAddr: 0x2DB28, symBinAddr: 0x100031B9C, symSize: 0x24 }
  - { offsetInCU: 0x512DA, offset: 0x512DA, size: 0x8, addend: 0x0, symName: __ZNSt3__116reverse_iteratorIP9PartitionEC1B8ue170006ES2_, symObjAddr: 0x2DBC4, symBinAddr: 0x100031C38, symSize: 0x34 }
  - { offsetInCU: 0x51312, offset: 0x51312, size: 0x8, addend: 0x0, symName: __ZNKSt3__116reverse_iteratorIP9PartitionE4baseB8ue170006Ev, symObjAddr: 0x2DBF8, symBinAddr: 0x100031C6C, symSize: 0x18 }
  - { offsetInCU: 0x51338, offset: 0x51338, size: 0x8, addend: 0x0, symName: __ZNKSt3__16vectorI9PartitionNS_9allocatorIS1_EEE14__annotate_newB8ue170006Em, symObjAddr: 0x2DC4C, symBinAddr: 0x100031CC0, symSize: 0xAC }
  - { offsetInCU: 0x51389, offset: 0x51389, size: 0x8, addend: 0x0, symName: __ZNKSt3__111__move_loopINS_17_ClassicAlgPolicyEEclB8ue170006INS_16reverse_iteratorIP9PartitionEES7_S7_EENS_4pairIT_T1_EES9_T0_SA_, symObjAddr: 0x2DFB0, symBinAddr: 0x100032024, symSize: 0xA8 }
  - { offsetInCU: 0x513F4, offset: 0x513F4, size: 0x8, addend: 0x0, symName: __ZNSt3__119__unwrap_range_implINS_16reverse_iteratorIP9PartitionEES4_E8__unwrapB8ue170006ES4_S4_, symObjAddr: 0x2E1A4, symBinAddr: 0x100032218, symSize: 0x84 }
  - { offsetInCU: 0x5142B, offset: 0x5142B, size: 0x8, addend: 0x0, symName: __ZNSt3__14pairINS_16reverse_iteratorIP9PartitionEES4_EC1B8ue170006IS4_S4_LPv0EEEOT_OT0_, symObjAddr: 0x2E228, symBinAddr: 0x10003229C, symSize: 0x3C }
  - { offsetInCU: 0x51489, offset: 0x51489, size: 0x8, addend: 0x0, symName: __ZNSt3__14pairINS_16reverse_iteratorIP9PartitionEES4_EC2B8ue170006IS4_S4_LPv0EEEOT_OT0_, symObjAddr: 0x2E264, symBinAddr: 0x1000322D8, symSize: 0x34 }
  - { offsetInCU: 0x514E7, offset: 0x514E7, size: 0x8, addend: 0x0, symName: __ZNSt3__18_IterOpsINS_17_ClassicAlgPolicyEE11__iter_moveB8ue170006IRNS_16reverse_iteratorIP9PartitionEEEENS_9enable_ifIXsr12is_referenceIDTdeclsr3stdE7declvalIRT_EEEEE5valueEDTclsr3stdE4movedeclsr3stdE7declvalISB_EEEEE4typeEOSA_, symObjAddr: 0x2E2E0, symBinAddr: 0x100032354, symSize: 0x28 }
  - { offsetInCU: 0x51513, offset: 0x51513, size: 0x8, addend: 0x0, symName: __ZNKSt3__116reverse_iteratorIP9PartitionEdeB8ue170006Ev, symObjAddr: 0x2E308, symBinAddr: 0x10003237C, symSize: 0x28 }
  - { offsetInCU: 0x51547, offset: 0x51547, size: 0x8, addend: 0x0, symName: __ZNSt3__116reverse_iteratorIP9PartitionEppB8ue170006Ev, symObjAddr: 0x2E330, symBinAddr: 0x1000323A4, symSize: 0x20 }
  - { offsetInCU: 0x5156D, offset: 0x5156D, size: 0x8, addend: 0x0, symName: __ZNSt3__18_IterOpsINS_17_ClassicAlgPolicyEE25__validate_iter_referenceB8ue170006IRNS_16reverse_iteratorIP9PartitionEEEEvv, symObjAddr: 0x2E350, symBinAddr: 0x1000323C4, symSize: 0x4 }
  - { offsetInCU: 0x5158B, offset: 0x5158B, size: 0x8, addend: 0x0, symName: __ZNSt3__118__unwrap_iter_implINS_16reverse_iteratorIP9PartitionEELb0EE8__unwrapB8ue170006ES4_, symObjAddr: 0x2E354, symBinAddr: 0x1000323C8, symSize: 0x24 }
  - { offsetInCU: 0x515AE, offset: 0x515AE, size: 0x8, addend: 0x0, symName: __ZNSt3__119__unwrap_range_implINS_16reverse_iteratorIP9PartitionEES4_E8__rewrapB8ue170006ES4_S4_, symObjAddr: 0x2E378, symBinAddr: 0x1000323EC, symSize: 0x5C }
  - { offsetInCU: 0x515DF, offset: 0x515DF, size: 0x8, addend: 0x0, symName: __ZNSt3__118__unwrap_iter_implINS_16reverse_iteratorIP9PartitionEELb0EE8__rewrapB8ue170006ES4_S4_, symObjAddr: 0x2E3D4, symBinAddr: 0x100032448, symSize: 0x2C }
  - { offsetInCU: 0x5160C, offset: 0x5160C, size: 0x8, addend: 0x0, symName: __ZNSt3__116reverse_iteratorIP9PartitionEC2B8ue170006ES2_, symObjAddr: 0x2E400, symBinAddr: 0x100032474, symSize: 0x28 }
  - { offsetInCU: 0x51644, offset: 0x51644, size: 0x8, addend: 0x0, symName: __ZNSt3__114__split_bufferI9PartitionRNS_9allocatorIS1_EEED2Ev, symObjAddr: 0x2E428, symBinAddr: 0x10003249C, symSize: 0x8C }
  - { offsetInCU: 0x51670, offset: 0x51670, size: 0x8, addend: 0x0, symName: __ZNSt3__114__split_bufferI9PartitionRNS_9allocatorIS1_EEE5clearB8ue170006Ev, symObjAddr: 0x2E4B4, symBinAddr: 0x100032528, symSize: 0x28 }
  - { offsetInCU: 0x51696, offset: 0x51696, size: 0x8, addend: 0x0, symName: __ZNKSt3__114__split_bufferI9PartitionRNS_9allocatorIS1_EEE8capacityB8ue170006Ev, symObjAddr: 0x2E4DC, symBinAddr: 0x100032550, symSize: 0x40 }
  - { offsetInCU: 0x516BC, offset: 0x516BC, size: 0x8, addend: 0x0, symName: __ZNSt3__114__split_bufferI9PartitionRNS_9allocatorIS1_EEE17__destruct_at_endB8ue170006EPS1_, symObjAddr: 0x2E51C, symBinAddr: 0x100032590, symSize: 0x2C }
  - { offsetInCU: 0x516F0, offset: 0x516F0, size: 0x8, addend: 0x0, symName: __ZNSt3__114__split_bufferI9PartitionRNS_9allocatorIS1_EEE17__destruct_at_endB8ue170006EPS1_NS_17integral_constantIbLb0EEE, symObjAddr: 0x2E548, symBinAddr: 0x1000325BC, symSize: 0x80 }
  - { offsetInCU: 0x51730, offset: 0x51730, size: 0x8, addend: 0x0, symName: __ZNKSt3__114__split_bufferI9PartitionRNS_9allocatorIS1_EEE9__end_capB8ue170006Ev, symObjAddr: 0x2E5C8, symBinAddr: 0x10003263C, symSize: 0x28 }
  - { offsetInCU: 0x51756, offset: 0x51756, size: 0x8, addend: 0x0, symName: __ZNKSt3__117__compressed_pairIP9PartitionRNS_9allocatorIS1_EEE5firstB8ue170006Ev, symObjAddr: 0x2E5F0, symBinAddr: 0x100032664, symSize: 0x24 }
  - { offsetInCU: 0x5177C, offset: 0x5177C, size: 0x8, addend: 0x0, symName: __ZNSt3__16vectorI9PartitionNS_9allocatorIS1_EEE5beginB8ue170006Ev, symObjAddr: 0x2E654, symBinAddr: 0x1000326C8, symSize: 0x30 }
  - { offsetInCU: 0x517A4, offset: 0x517A4, size: 0x8, addend: 0x0, symName: __ZNSt3__16vectorI9PartitionNS_9allocatorIS1_EEE3endB8ue170006Ev, symObjAddr: 0x2E684, symBinAddr: 0x1000326F8, symSize: 0x30 }
  - { offsetInCU: 0x517CC, offset: 0x517CC, size: 0x8, addend: 0x0, symName: __ZNKSt3__111__wrap_iterIP9PartitionEdeB8ue170006Ev, symObjAddr: 0x2E6E8, symBinAddr: 0x10003275C, symSize: 0x18 }
  - { offsetInCU: 0x517F2, offset: 0x517F2, size: 0x8, addend: 0x0, symName: __ZNSt3__111__wrap_iterIP9PartitionEppB8ue170006Ev, symObjAddr: 0x2E700, symBinAddr: 0x100032774, symSize: 0x20 }
  - { offsetInCU: 0x51818, offset: 0x51818, size: 0x8, addend: 0x0, symName: __ZNSt3__16vectorI9PartitionNS_9allocatorIS1_EEEixB8ue170006Em, symObjAddr: 0x2E720, symBinAddr: 0x100032794, symSize: 0x24 }
  - { offsetInCU: 0x5185F, offset: 0x5185F, size: 0x8, addend: 0x0, symName: __ZZN6Merger13regroupAndZipERKNSt3__112basic_stringIcNS0_11char_traitsIcEENS0_9allocatorIcEEEERNS_10FileMergerEENKUlRK9PartitionSD_E_clESD_SD_, symObjAddr: 0x2ECF4, symBinAddr: 0x100032D68, symSize: 0x34 }
  - { offsetInCU: 0x518A7, offset: 0x518A7, size: 0x8, addend: 0x0, symName: __ZNSt3__18_IterOpsINS_17_ClassicAlgPolicyEE9iter_swapB8ue170006IRP9PartitionS6_EEvOT_OT0_, symObjAddr: 0x2ED28, symBinAddr: 0x100032D9C, symSize: 0x34 }
  - { offsetInCU: 0x518F0, offset: 0x518F0, size: 0x8, addend: 0x0, symName: __ZNSt3__18_IterOpsINS_17_ClassicAlgPolicyEE9iter_swapB8ue170006IRP9PartitionS5_EEvOT_OT0_, symObjAddr: 0x2F2A0, symBinAddr: 0x100033314, symSize: 0x34 }
  - { offsetInCU: 0x51933, offset: 0x51933, size: 0x8, addend: 0x0, symName: __ZNSt3__18_IterOpsINS_17_ClassicAlgPolicyEE11__iter_moveB8ue170006IRP9PartitionEENS_9enable_ifIXsr12is_referenceIDTdeclsr3stdE7declvalIRT_EEEEE5valueEDTclsr3stdE4movedeclsr3stdE7declvalIS9_EEEEE4typeEOS8_, symObjAddr: 0x2FFBC, symBinAddr: 0x100034030, symSize: 0x28 }
  - { offsetInCU: 0x5195F, offset: 0x5195F, size: 0x8, addend: 0x0, symName: __ZNSt3__18_IterOpsINS_17_ClassicAlgPolicyEE25__validate_iter_referenceB8ue170006IRP9PartitionEEvv, symObjAddr: 0x2FFE4, symBinAddr: 0x100034058, symSize: 0x4 }
  - { offsetInCU: 0x5197D, offset: 0x5197D, size: 0x8, addend: 0x0, symName: __ZNSt3__18_IterOpsINS_17_ClassicAlgPolicyEE4nextB8ue170006IP9PartitionEET_S6_S6_, symObjAddr: 0x2FFE8, symBinAddr: 0x10003405C, symSize: 0x18 }
  - { offsetInCU: 0x519B3, offset: 0x519B3, size: 0x8, addend: 0x0, symName: __ZNSt3__18_IterOpsINS_17_ClassicAlgPolicyEE9iter_swapB8ue170006IP9PartitionS5_EEvOT_OT0_, symObjAddr: 0x30F40, symBinAddr: 0x100034FB4, symSize: 0x34 }
  - { offsetInCU: 0x51A12, offset: 0x51A12, size: 0x8, addend: 0x0, symName: __ZNSt3__14pairIP9PartitionbEC1B8ue170006IRS2_RbLPv0EEEOT_OT0_, symObjAddr: 0x30F74, symBinAddr: 0x100034FE8, symSize: 0x3C }
  - { offsetInCU: 0x51A70, offset: 0x51A70, size: 0x8, addend: 0x0, symName: __ZNSt3__14pairIP9PartitionbEC2B8ue170006IRS2_RbLPv0EEEOT_OT0_, symObjAddr: 0x30FB0, symBinAddr: 0x100035024, symSize: 0x38 }
  - { offsetInCU: 0x51ACE, offset: 0x51ACE, size: 0x8, addend: 0x0, symName: __ZNSt3__118__unwrap_iter_implINS_11__wrap_iterIP9PartitionEELb1EE8__unwrapB8ue170006ES4_, symObjAddr: 0x30FE8, symBinAddr: 0x10003505C, symSize: 0x28 }
  - { offsetInCU: 0x51AFC, offset: 0x51AFC, size: 0x8, addend: 0x0, symName: __ZNSt3__119__to_address_helperINS_11__wrap_iterIP9PartitionEEvE6__callB8ue170006ERKS4_, symObjAddr: 0x31034, symBinAddr: 0x1000350A8, symSize: 0x30 }
  - { offsetInCU: 0x51B1F, offset: 0x51B1F, size: 0x8, addend: 0x0, symName: __ZNSt3__114pointer_traitsINS_11__wrap_iterIP9PartitionEEE10to_addressB8ue170006ES4_, symObjAddr: 0x31064, symBinAddr: 0x1000350D8, symSize: 0x2C }
  - { offsetInCU: 0x51B42, offset: 0x51B42, size: 0x8, addend: 0x0, symName: __ZNKSt3__111__wrap_iterIP9PartitionE4baseB8ue170006Ev, symObjAddr: 0x31090, symBinAddr: 0x100035104, symSize: 0x18 }
  - { offsetInCU: 0x51B68, offset: 0x51B68, size: 0x8, addend: 0x0, symName: __ZNSt3__16vectorI9PartitionNS_9allocatorIS1_EEE11__make_iterB8ue170006EPS1_, symObjAddr: 0x310A8, symBinAddr: 0x10003511C, symSize: 0x30 }
  - { offsetInCU: 0x51B9D, offset: 0x51B9D, size: 0x8, addend: 0x0, symName: __ZNSt3__111__wrap_iterIP9PartitionEC1B8ue170006ES2_, symObjAddr: 0x310D8, symBinAddr: 0x10003514C, symSize: 0x34 }
  - { offsetInCU: 0x51BD5, offset: 0x51BD5, size: 0x8, addend: 0x0, symName: __ZNSt3__111__wrap_iterIP9PartitionEC2B8ue170006ES2_, symObjAddr: 0x3110C, symBinAddr: 0x100035180, symSize: 0x20 }
  - { offsetInCU: 0x51C17, offset: 0x51C17, size: 0x8, addend: 0x0, symName: __ZZN6Merger15regroupAndWriteERKNSt3__112basic_stringIcNS0_11char_traitsIcEENS0_9allocatorIcEEEERNS_10FileMergerEENKUlRK9PartitionSD_E_clESD_SD_, symObjAddr: 0x31724, symBinAddr: 0x100035798, symSize: 0x34 }
  - { offsetInCU: 0x51C5F, offset: 0x51C5F, size: 0x8, addend: 0x0, symName: __ZNSt3__112__hash_tableINS_17__hash_value_typeINS_12basic_stringIcNS_11char_traitsIcEENS_9allocatorIcEEEEN6Merger10FileMergerEEENS_22__unordered_map_hasherIS7_SA_NS_4hashIS7_EENS_8equal_toIS7_EELb1EEENS_21__unordered_map_equalIS7_SA_SF_SD_Lb1EEENS5_ISA_EEE14__erase_uniqueIS7_EEmRKT_, symObjAddr: 0x33518, symBinAddr: 0x10003758C, symSize: 0x98 }
  - { offsetInCU: 0x51CAE, offset: 0x51CAE, size: 0x8, addend: 0x0, symName: __ZNSt3__112__hash_tableINS_17__hash_value_typeINS_12basic_stringIcNS_11char_traitsIcEENS_9allocatorIcEEEEN6Merger10FileMergerEEENS_22__unordered_map_hasherIS7_SA_NS_4hashIS7_EENS_8equal_toIS7_EELb1EEENS_21__unordered_map_equalIS7_SA_SF_SD_Lb1EEENS5_ISA_EEE4findIS7_EENS_15__hash_iteratorIPNS_11__hash_nodeISA_PvEEEERKT_, symObjAddr: 0x335B0, symBinAddr: 0x100037624, symSize: 0x1B0 }
  - { offsetInCU: 0x51D38, offset: 0x51D38, size: 0x8, addend: 0x0, symName: __ZNSt3__112__hash_tableINS_17__hash_value_typeINS_12basic_stringIcNS_11char_traitsIcEENS_9allocatorIcEEEEN6Merger10FileMergerEEENS_22__unordered_map_hasherIS7_SA_NS_4hashIS7_EENS_8equal_toIS7_EELb1EEENS_21__unordered_map_equalIS7_SA_SF_SD_Lb1EEENS5_ISA_EEE3endEv, symObjAddr: 0x33790, symBinAddr: 0x100037804, symSize: 0x2C }
  - { offsetInCU: 0x51D60, offset: 0x51D60, size: 0x8, addend: 0x0, symName: __ZNSt3__112__hash_tableINS_17__hash_value_typeINS_12basic_stringIcNS_11char_traitsIcEENS_9allocatorIcEEEEN6Merger10FileMergerEEENS_22__unordered_map_hasherIS7_SA_NS_4hashIS7_EENS_8equal_toIS7_EELb1EEENS_21__unordered_map_equalIS7_SA_SF_SD_Lb1EEENS5_ISA_EEE5eraseENS_21__hash_const_iteratorIPNS_11__hash_nodeISA_PvEEEE, symObjAddr: 0x337BC, symBinAddr: 0x100037830, symSize: 0x70 }
  - { offsetInCU: 0x51DB5, offset: 0x51DB5, size: 0x8, addend: 0x0, symName: __ZNSt3__121__hash_const_iteratorIPNS_11__hash_nodeINS_17__hash_value_typeINS_12basic_stringIcNS_11char_traitsIcEENS_9allocatorIcEEEEN6Merger10FileMergerEEEPvEEEC1B8ue170006ERKNS_15__hash_iteratorISE_EE, symObjAddr: 0x3382C, symBinAddr: 0x1000378A0, symSize: 0x34 }
  - { offsetInCU: 0x51DEE, offset: 0x51DEE, size: 0x8, addend: 0x0, symName: __ZNSt3__115__hash_iteratorIPNS_11__hash_nodeINS_17__hash_value_typeINS_12basic_stringIcNS_11char_traitsIcEENS_9allocatorIcEEEEN6Merger10FileMergerEEEPvEEEppB8ue170006Ev, symObjAddr: 0x33860, symBinAddr: 0x1000378D4, symSize: 0x20 }
  - { offsetInCU: 0x51E14, offset: 0x51E14, size: 0x8, addend: 0x0, symName: __ZNSt3__112__hash_tableINS_17__hash_value_typeINS_12basic_stringIcNS_11char_traitsIcEENS_9allocatorIcEEEEN6Merger10FileMergerEEENS_22__unordered_map_hasherIS7_SA_NS_4hashIS7_EENS_8equal_toIS7_EELb1EEENS_21__unordered_map_equalIS7_SA_SF_SD_Lb1EEENS5_ISA_EEE6removeENS_21__hash_const_iteratorIPNS_11__hash_nodeISA_PvEEEE, symObjAddr: 0x33880, symBinAddr: 0x1000378F4, symSize: 0x220 }
  - { offsetInCU: 0x51EA5, offset: 0x51EA5, size: 0x8, addend: 0x0, symName: __ZNSt3__121__hash_const_iteratorIPNS_11__hash_nodeINS_17__hash_value_typeINS_12basic_stringIcNS_11char_traitsIcEENS_9allocatorIcEEEEN6Merger10FileMergerEEEPvEEEC2B8ue170006ERKNS_15__hash_iteratorISE_EE, symObjAddr: 0x33AA0, symBinAddr: 0x100037B14, symSize: 0x24 }
  - { offsetInCU: 0x51EDE, offset: 0x51EDE, size: 0x8, addend: 0x0, symName: __ZN2ff6ff_a2aC2Ebiib, symObjAddr: 0x33AC4, symBinAddr: 0x100037B38, symSize: 0x178 }
  - { offsetInCU: 0x51F44, offset: 0x51F44, size: 0x8, addend: 0x0, symName: __ZN2ff6ff_a2a19init_input_blockingERP23_opaque_pthread_mutex_tRP22_opaque_pthread_cond_tb, symObjAddr: 0x33C3C, symBinAddr: 0x100037CB0, symSize: 0x124 }
  - { offsetInCU: 0x51FEC, offset: 0x51FEC, size: 0x8, addend: 0x0, symName: __ZN2ff6ff_a2a20init_output_blockingERP23_opaque_pthread_mutex_tRP22_opaque_pthread_cond_tb, symObjAddr: 0x33D60, symBinAddr: 0x100037DD4, symSize: 0xF4 }
  - { offsetInCU: 0x5208E, offset: 0x5208E, size: 0x8, addend: 0x0, symName: __ZN2ff6ff_a2a19set_output_blockingERP23_opaque_pthread_mutex_tRP22_opaque_pthread_cond_tb, symObjAddr: 0x33E54, symBinAddr: 0x100037EC8, symSize: 0xA4 }
  - { offsetInCU: 0x5210D, offset: 0x5210D, size: 0x8, addend: 0x0, symName: __ZN2ff6ff_a2a12skipfirstpopEb, symObjAddr: 0x33EF8, symBinAddr: 0x100037F6C, symSize: 0xA8 }
  - { offsetInCU: 0x5215F, offset: 0x5215F, size: 0x8, addend: 0x0, symName: __ZN2ff6ff_a2a19create_input_bufferEib, symObjAddr: 0x33FA0, symBinAddr: 0x100038014, symSize: 0xC4 }
  - { offsetInCU: 0x521CF, offset: 0x521CF, size: 0x8, addend: 0x0, symName: __ZN2ff6ff_a2a20create_output_bufferEib, symObjAddr: 0x34064, symBinAddr: 0x1000380D8, symSize: 0x3AC }
  - { offsetInCU: 0x52293, offset: 0x52293, size: 0x8, addend: 0x0, symName: __ZN2ff6ff_a2a10set_outputERKNS_7svectorIPNS_7ff_nodeEEE, symObjAddr: 0x34410, symBinAddr: 0x100038484, symSize: 0x34 }
  - { offsetInCU: 0x522C8, offset: 0x522C8, size: 0x8, addend: 0x0, symName: __ZN2ff6ff_a2a10set_outputEPNS_7ff_nodeE, symObjAddr: 0x34444, symBinAddr: 0x1000384B8, symSize: 0x38 }
  - { offsetInCU: 0x522FD, offset: 0x522FD, size: 0x8, addend: 0x0, symName: __ZN2ff6ff_a2a7prepareEv, symObjAddr: 0x3447C, symBinAddr: 0x1000384F0, symSize: 0x1B90 }
  - { offsetInCU: 0x5276B, offset: 0x5276B, size: 0x8, addend: 0x0, symName: __ZNK2ff6ff_a2a15ondemand_bufferEv, symObjAddr: 0x3600C, symBinAddr: 0x10003A080, symSize: 0x18 }
  - { offsetInCU: 0x52791, offset: 0x52791, size: 0x8, addend: 0x0, symName: __ZN2ff6ff_a2a3runEb, symObjAddr: 0x36024, symBinAddr: 0x10003A098, symSize: 0x2A4 }
  - { offsetInCU: 0x5281E, offset: 0x5281E, size: 0x8, addend: 0x0, symName: __ZN2ff6ff_a2a4waitEv, symObjAddr: 0x362C8, symBinAddr: 0x10003A33C, symSize: 0x190 }
  - { offsetInCU: 0x528AB, offset: 0x528AB, size: 0x8, addend: 0x0, symName: __ZNK2ff6ff_a2a4doneEv, symObjAddr: 0x36458, symBinAddr: 0x10003A4CC, symSize: 0x13C }
  - { offsetInCU: 0x52929, offset: 0x52929, size: 0x8, addend: 0x0, symName: __ZN2ff6ff_a2a11cardinalityEPNS_11spinBarrierE, symObjAddr: 0x36594, symBinAddr: 0x10003A608, symSize: 0x118 }
  - { offsetInCU: 0x529A3, offset: 0x529A3, size: 0x8, addend: 0x0, symName: __ZNK2ff6ff_a2a11cardinalityEv, symObjAddr: 0x366AC, symBinAddr: 0x10003A720, symSize: 0x10C }
  - { offsetInCU: 0x52A12, offset: 0x52A12, size: 0x8, addend: 0x0, symName: __ZN2ff6ff_a2a6ffTimeEv, symObjAddr: 0x367B8, symBinAddr: 0x10003A82C, symSize: 0x70 }
  - { offsetInCU: 0x52A38, offset: 0x52A38, size: 0x8, addend: 0x0, symName: __ZN2ff6ff_a2aD0Ev, symObjAddr: 0x36828, symBinAddr: 0x10003A89C, symSize: 0x34 }
  - { offsetInCU: 0x52A62, offset: 0x52A62, size: 0x8, addend: 0x0, symName: __ZN2ff6ff_a2a3svcEPv, symObjAddr: 0x3685C, symBinAddr: 0x10003A8D0, symSize: 0x1C }
  - { offsetInCU: 0x52A94, offset: 0x52A94, size: 0x8, addend: 0x0, symName: __ZN2ff6ff_a2a11change_nodeEPNS_7ff_nodeES2_bb, symObjAddr: 0x36878, symBinAddr: 0x10003A8EC, symSize: 0x3A8 }
  - { offsetInCU: 0x52BA7, offset: 0x52BA7, size: 0x8, addend: 0x0, symName: __ZN2ff6ff_a2a13get_out_nodesERNS_7svectorIPNS_7ff_nodeEEE, symObjAddr: 0x36C20, symBinAddr: 0x10003AC94, symSize: 0xC0 }
  - { offsetInCU: 0x52BF9, offset: 0x52BF9, size: 0x8, addend: 0x0, symName: __ZN2ff6ff_a2a22get_out_nodes_feedbackERNS_7svectorIPNS_7ff_nodeEEE, symObjAddr: 0x36CE0, symBinAddr: 0x10003AD54, symSize: 0x90 }
  - { offsetInCU: 0x52C4B, offset: 0x52C4B, size: 0x8, addend: 0x0, symName: __ZN2ff6ff_a2a12get_in_nodesERNS_7svectorIPNS_7ff_nodeEEE, symObjAddr: 0x36D70, symBinAddr: 0x10003ADE4, symSize: 0xD8 }
  - { offsetInCU: 0x52CAC, offset: 0x52CAC, size: 0x8, addend: 0x0, symName: __ZNK2ff6ff_a2a12getstarttimeEv, symObjAddr: 0x36E48, symBinAddr: 0x10003AEBC, symSize: 0x164 }
  - { offsetInCU: 0x52D1E, offset: 0x52D1E, size: 0x8, addend: 0x0, symName: __ZNK2ff6ff_a2a11getstoptimeEv, symObjAddr: 0x36FAC, symBinAddr: 0x10003B020, symSize: 0x164 }
  - { offsetInCU: 0x52D90, offset: 0x52D90, size: 0x8, addend: 0x0, symName: __ZNK2ff6ff_a2a12getwstartimeEv, symObjAddr: 0x37110, symBinAddr: 0x10003B184, symSize: 0x164 }
  - { offsetInCU: 0x52E02, offset: 0x52E02, size: 0x8, addend: 0x0, symName: __ZNK2ff6ff_a2a12getwstoptimeEv, symObjAddr: 0x37274, symBinAddr: 0x10003B2E8, symSize: 0x164 }
  - { offsetInCU: 0x52E74, offset: 0x52E74, size: 0x8, addend: 0x0, symName: __ZNK2ff6ff_a2a12isMultiInputEv, symObjAddr: 0x373D8, symBinAddr: 0x10003B44C, symSize: 0x18 }
  - { offsetInCU: 0x52E9A, offset: 0x52E9A, size: 0x8, addend: 0x0, symName: __ZNK2ff6ff_a2a13isMultiOutputEv, symObjAddr: 0x373F0, symBinAddr: 0x10003B464, symSize: 0x18 }
  - { offsetInCU: 0x52EC0, offset: 0x52EC0, size: 0x8, addend: 0x0, symName: __ZNK2ff6ff_a2a9isAll2AllEv, symObjAddr: 0x37408, symBinAddr: 0x10003B47C, symSize: 0x18 }
  - { offsetInCU: 0x52EE6, offset: 0x52EE6, size: 0x8, addend: 0x0, symName: __ZN2ff6ff_a2a13blocking_modeEb, symObjAddr: 0x37420, symBinAddr: 0x10003B494, symSize: 0x34 }
  - { offsetInCU: 0x52F1B, offset: 0x52F1B, size: 0x8, addend: 0x0, symName: __ZN2ff6ff_a2a10no_barrierEv, symObjAddr: 0x37454, symBinAddr: 0x10003B4C8, symSize: 0x18 }
  - { offsetInCU: 0x52F41, offset: 0x52F41, size: 0x8, addend: 0x0, symName: __ZN2ff6ff_a2a10no_mappingEv, symObjAddr: 0x3746C, symBinAddr: 0x10003B4E0, symSize: 0x18 }
  - { offsetInCU: 0x52F67, offset: 0x52F67, size: 0x8, addend: 0x0, symName: __ZN2ff23internal_mo_transformerC1EPNS_7ff_nodeEb, symObjAddr: 0x3754C, symBinAddr: 0x10003B5C0, symSize: 0x48 }
  - { offsetInCU: 0x52FC4, offset: 0x52FC4, size: 0x8, addend: 0x0, symName: __ZN2ff23internal_mi_transformerC1EPNS_7ff_nodeEb, symObjAddr: 0x37594, symBinAddr: 0x10003B608, symSize: 0x48 }
  - { offsetInCU: 0x5300C, offset: 0x5300C, size: 0x8, addend: 0x0, symName: __ZN2ff7svectorIPNS_7ff_nodeEEaSERKS3_, symObjAddr: 0x375DC, symBinAddr: 0x10003B650, symSize: 0x9C }
  - { offsetInCU: 0x5306A, offset: 0x5306A, size: 0x8, addend: 0x0, symName: __ZNK2ff11ff_pipeline12get_lastnodeEv, symObjAddr: 0x37678, symBinAddr: 0x10003B6EC, symSize: 0xCC }
  - { offsetInCU: 0x530BC, offset: 0x530BC, size: 0x8, addend: 0x0, symName: __ZNK2ff7ff_farm12hasCollectorEv, symObjAddr: 0x37744, symBinAddr: 0x10003B7B8, symSize: 0x78 }
  - { offsetInCU: 0x530E2, offset: 0x530E2, size: 0x8, addend: 0x0, symName: __ZN2ff23internal_mo_transformerC2EPNS_7ff_nodeEb, symObjAddr: 0x377BC, symBinAddr: 0x10003B830, symSize: 0x70 }
  - { offsetInCU: 0x5312A, offset: 0x5312A, size: 0x8, addend: 0x0, symName: __ZN2ff9ff_monodeC2EPNS_7ff_nodeEi, symObjAddr: 0x3782C, symBinAddr: 0x10003B8A0, symSize: 0x1CC }
  - { offsetInCU: 0x53172, offset: 0x53172, size: 0x8, addend: 0x0, symName: __ZN2ff23internal_mo_transformer6set_idEl, symObjAddr: 0x379F8, symBinAddr: 0x10003BA6C, symSize: 0x64 }
  - { offsetInCU: 0x531A7, offset: 0x531A7, size: 0x8, addend: 0x0, symName: __ZN2ff23internal_mo_transformer19create_input_bufferEib, symObjAddr: 0x37A5C, symBinAddr: 0x10003BAD0, symSize: 0xA4 }
  - { offsetInCU: 0x531FA, offset: 0x531FA, size: 0x8, addend: 0x0, symName: __ZN2ff23internal_mo_transformer6dryrunEv, symObjAddr: 0x37B00, symBinAddr: 0x10003BB74, symSize: 0x130 }
  - { offsetInCU: 0x53220, offset: 0x53220, size: 0x8, addend: 0x0, symName: __ZN2ff23internal_mo_transformer3runEb, symObjAddr: 0x37C30, symBinAddr: 0x10003BCA4, symSize: 0x1AC }
  - { offsetInCU: 0x53255, offset: 0x53255, size: 0x8, addend: 0x0, symName: __ZN2ff23internal_mo_transformerD1Ev, symObjAddr: 0x37DDC, symBinAddr: 0x10003BE50, symSize: 0x2C }
  - { offsetInCU: 0x5327F, offset: 0x5327F, size: 0x8, addend: 0x0, symName: __ZN2ff23internal_mo_transformerD0Ev, symObjAddr: 0x37E08, symBinAddr: 0x10003BE7C, symSize: 0x34 }
  - { offsetInCU: 0x532A9, offset: 0x532A9, size: 0x8, addend: 0x0, symName: __ZN2ff23internal_mo_transformer3svcEPv, symObjAddr: 0x37E3C, symBinAddr: 0x10003BEB0, symSize: 0x38 }
  - { offsetInCU: 0x532DE, offset: 0x532DE, size: 0x8, addend: 0x0, symName: __ZN2ff23internal_mo_transformer8svc_initEv, symObjAddr: 0x37E74, symBinAddr: 0x10003BEE8, symSize: 0x30 }
  - { offsetInCU: 0x53304, offset: 0x53304, size: 0x8, addend: 0x0, symName: __ZN2ff23internal_mo_transformer7svc_endEv, symObjAddr: 0x37EA4, symBinAddr: 0x10003BF18, symSize: 0x30 }
  - { offsetInCU: 0x5332A, offset: 0x5332A, size: 0x8, addend: 0x0, symName: __ZN2ff23internal_mo_transformer9eosnotifyEl, symObjAddr: 0x37ED4, symBinAddr: 0x10003BF48, symSize: 0x38 }
  - { offsetInCU: 0x5335F, offset: 0x5335F, size: 0x8, addend: 0x0, symName: __ZN2ff23internal_mo_transformer16registerCallbackEPFbPvimmS1_ES1_, symObjAddr: 0x37F0C, symBinAddr: 0x10003BF80, symSize: 0x40 }
  - { offsetInCU: 0x533A3, offset: 0x533A3, size: 0x8, addend: 0x0, symName: __ZNK2ff9ff_monode5getlbEv, symObjAddr: 0x37F4C, symBinAddr: 0x10003BFC0, symSize: 0x18 }
  - { offsetInCU: 0x533C9, offset: 0x533C9, size: 0x8, addend: 0x0, symName: __ZN2ff23internal_mo_transformer25ff_send_out_motransformerEPvimmS1_, symObjAddr: 0x37F64, symBinAddr: 0x10003BFD8, symSize: 0x9C }
  - { offsetInCU: 0x53438, offset: 0x53438, size: 0x8, addend: 0x0, symName: __ZN2ff23internal_mo_transformerD2Ev, symObjAddr: 0x38000, symBinAddr: 0x10003C074, symSize: 0xA8 }
  - { offsetInCU: 0x53462, offset: 0x53462, size: 0x8, addend: 0x0, symName: __ZN2ff23internal_mi_transformerC2EPNS_7ff_nodeEb, symObjAddr: 0x380A8, symBinAddr: 0x10003C11C, symSize: 0x70 }
  - { offsetInCU: 0x534AA, offset: 0x534AA, size: 0x8, addend: 0x0, symName: __ZN2ff9ff_minodeC2EPNS_7ff_nodeEi, symObjAddr: 0x38118, symBinAddr: 0x10003C18C, symSize: 0x1C8 }
  - { offsetInCU: 0x534F0, offset: 0x534F0, size: 0x8, addend: 0x0, symName: __ZN2ff23internal_mi_transformer6set_idEl, symObjAddr: 0x382E0, symBinAddr: 0x10003C354, symSize: 0x64 }
  - { offsetInCU: 0x53525, offset: 0x53525, size: 0x8, addend: 0x0, symName: __ZN2ff23internal_mi_transformer20init_output_blockingERP23_opaque_pthread_mutex_tRP22_opaque_pthread_cond_tb, symObjAddr: 0x38344, symBinAddr: 0x10003C3B8, symSize: 0x58 }
  - { offsetInCU: 0x53578, offset: 0x53578, size: 0x8, addend: 0x0, symName: __ZN2ff23internal_mi_transformer19set_output_blockingERP23_opaque_pthread_mutex_tRP22_opaque_pthread_cond_tb, symObjAddr: 0x3839C, symBinAddr: 0x10003C410, symSize: 0x54 }
  - { offsetInCU: 0x535CB, offset: 0x535CB, size: 0x8, addend: 0x0, symName: __ZN2ff23internal_mi_transformer20create_output_bufferEib, symObjAddr: 0x383F0, symBinAddr: 0x10003C464, symSize: 0xC0 }
  - { offsetInCU: 0x5361E, offset: 0x5361E, size: 0x8, addend: 0x0, symName: __ZN2ff23internal_mi_transformer17set_output_bufferEPNS_16uSWSR_Ptr_BufferE, symObjAddr: 0x384B0, symBinAddr: 0x10003C524, symSize: 0x38 }
  - { offsetInCU: 0x53653, offset: 0x53653, size: 0x8, addend: 0x0, symName: __ZN2ff23internal_mi_transformer9set_inputERKNS_7svectorIPNS_7ff_nodeEEE, symObjAddr: 0x384E8, symBinAddr: 0x10003C55C, symSize: 0x50 }
  - { offsetInCU: 0x53688, offset: 0x53688, size: 0x8, addend: 0x0, symName: __ZN2ff23internal_mi_transformer9set_inputEPNS_7ff_nodeE, symObjAddr: 0x38538, symBinAddr: 0x10003C5AC, symSize: 0x3C }
  - { offsetInCU: 0x536BD, offset: 0x536BD, size: 0x8, addend: 0x0, symName: __ZN2ff23internal_mi_transformer6dryrunEv, symObjAddr: 0x38574, symBinAddr: 0x10003C5E8, symSize: 0xF4 }
  - { offsetInCU: 0x536E3, offset: 0x536E3, size: 0x8, addend: 0x0, symName: __ZN2ff23internal_mi_transformer3runEb, symObjAddr: 0x38668, symBinAddr: 0x10003C6DC, symSize: 0x1AC }
  - { offsetInCU: 0x53718, offset: 0x53718, size: 0x8, addend: 0x0, symName: __ZN2ff23internal_mi_transformerD1Ev, symObjAddr: 0x38814, symBinAddr: 0x10003C888, symSize: 0x2C }
  - { offsetInCU: 0x53742, offset: 0x53742, size: 0x8, addend: 0x0, symName: __ZN2ff23internal_mi_transformerD0Ev, symObjAddr: 0x38840, symBinAddr: 0x10003C8B4, symSize: 0x34 }
  - { offsetInCU: 0x5376C, offset: 0x5376C, size: 0x8, addend: 0x0, symName: __ZN2ff23internal_mi_transformer3svcEPv, symObjAddr: 0x38874, symBinAddr: 0x10003C8E8, symSize: 0x38 }
  - { offsetInCU: 0x537A1, offset: 0x537A1, size: 0x8, addend: 0x0, symName: __ZN2ff23internal_mi_transformer8svc_initEv, symObjAddr: 0x388AC, symBinAddr: 0x10003C920, symSize: 0x30 }
  - { offsetInCU: 0x537C7, offset: 0x537C7, size: 0x8, addend: 0x0, symName: __ZN2ff23internal_mi_transformer7svc_endEv, symObjAddr: 0x388DC, symBinAddr: 0x10003C950, symSize: 0x30 }
  - { offsetInCU: 0x537ED, offset: 0x537ED, size: 0x8, addend: 0x0, symName: __ZN2ff23internal_mi_transformer9eosnotifyEl, symObjAddr: 0x3890C, symBinAddr: 0x10003C980, symSize: 0x38 }
  - { offsetInCU: 0x53822, offset: 0x53822, size: 0x8, addend: 0x0, symName: __ZNK2ff23internal_mi_transformer14get_out_bufferEv, symObjAddr: 0x38944, symBinAddr: 0x10003C9B8, symSize: 0x30 }
  - { offsetInCU: 0x53848, offset: 0x53848, size: 0x8, addend: 0x0, symName: __ZN2ff23internal_mi_transformer11ff_send_outEPvimm, symObjAddr: 0x38974, symBinAddr: 0x10003C9E8, symSize: 0x54 }
  - { offsetInCU: 0x538AA, offset: 0x538AA, size: 0x8, addend: 0x0, symName: __ZN2ff23internal_mi_transformer16registerCallbackEPFbPvimmS1_ES1_, symObjAddr: 0x389C8, symBinAddr: 0x10003CA3C, symSize: 0x40 }
  - { offsetInCU: 0x538EE, offset: 0x538EE, size: 0x8, addend: 0x0, symName: __ZNK2ff9ff_minode5getgtEv, symObjAddr: 0x38A08, symBinAddr: 0x10003CA7C, symSize: 0x18 }
  - { offsetInCU: 0x53914, offset: 0x53914, size: 0x8, addend: 0x0, symName: __ZN2ff11ff_gatherer17set_output_bufferEPNS_16uSWSR_Ptr_BufferE, symObjAddr: 0x38A20, symBinAddr: 0x10003CA94, symSize: 0xF0 }
  - { offsetInCU: 0x53949, offset: 0x53949, size: 0x8, addend: 0x0, symName: __ZN2ff23internal_mi_transformerD2Ev, symObjAddr: 0x38B10, symBinAddr: 0x10003CB84, symSize: 0xA0 }
  - { offsetInCU: 0x53973, offset: 0x53973, size: 0x8, addend: 0x0, symName: __ZN2ff7svectorIPNS_7ff_nodeEE5clearEv, symObjAddr: 0x38BB0, symBinAddr: 0x10003CC24, symSize: 0x4C }
  - { offsetInCU: 0x53999, offset: 0x53999, size: 0x8, addend: 0x0, symName: __ZN2ff7svectorIPNS_7ff_nodeEE8pop_backEv, symObjAddr: 0x38BFC, symBinAddr: 0x10003CC70, symSize: 0x20 }
  - { offsetInCU: 0x539BF, offset: 0x539BF, size: 0x8, addend: 0x0, symName: __ZN2ff7svectorIPNS_7ff_nodeEE5eraseEPS2_, symObjAddr: 0x38C1C, symBinAddr: 0x10003CC90, symSize: 0x104 }
  - { offsetInCU: 0x53A2B, offset: 0x53A2B, size: 0x8, addend: 0x0, symName: __ZN2ff7svectorIPNS_7ff_nodeEE5beginEv, symObjAddr: 0x38D20, symBinAddr: 0x10003CD94, symSize: 0x18 }
  - { offsetInCU: 0x53A51, offset: 0x53A51, size: 0x8, addend: 0x0, symName: __ZN2ff7svectorIPNS_7ff_nodeEE3endEv, symObjAddr: 0x38D38, symBinAddr: 0x10003CDAC, symSize: 0x20 }
  - { offsetInCU: 0x53A77, offset: 0x53A77, size: 0x8, addend: 0x0, symName: __ZNK2ff6ff_a2a12getSecondSetEv, symObjAddr: 0x38D58, symBinAddr: 0x10003CDCC, symSize: 0x18 }
  - { offsetInCU: 0x53A9D, offset: 0x53A9D, size: 0x8, addend: 0x0, symName: __ZNK2ff6ff_a2a11getFirstSetEv, symObjAddr: 0x38D70, symBinAddr: 0x10003CDE4, symSize: 0x18 }
  - { offsetInCU: 0x53AC3, offset: 0x53AC3, size: 0x8, addend: 0x0, symName: __ZNSt3__16vectorI7timevalNS_9allocatorIS1_EEEC1EmRKS1_, symObjAddr: 0x38D88, symBinAddr: 0x10003CDFC, symSize: 0x3C }
  - { offsetInCU: 0x53B0D, offset: 0x53B0D, size: 0x8, addend: 0x0, symName: __ZNSt3__16vectorI7timevalNS_9allocatorIS1_EEEixB8ue170006Em, symObjAddr: 0x38DC4, symBinAddr: 0x10003CE38, symSize: 0x24 }
  - { offsetInCU: 0x53B44, offset: 0x53B44, size: 0x8, addend: 0x0, symName: __ZNSt3__16vectorI7timevalNS_9allocatorIS1_EEE5beginB8ue170006Ev, symObjAddr: 0x38E38, symBinAddr: 0x10003CEAC, symSize: 0x30 }
  - { offsetInCU: 0x53B6C, offset: 0x53B6C, size: 0x8, addend: 0x0, symName: __ZNSt3__16vectorI7timevalNS_9allocatorIS1_EEE3endB8ue170006Ev, symObjAddr: 0x38E68, symBinAddr: 0x10003CEDC, symSize: 0x30 }
  - { offsetInCU: 0x53B94, offset: 0x53B94, size: 0x8, addend: 0x0, symName: __ZNKSt3__111__wrap_iterIP7timevalEdeB8ue170006Ev, symObjAddr: 0x38F2C, symBinAddr: 0x10003CFA0, symSize: 0x18 }
  - { offsetInCU: 0x53BBA, offset: 0x53BBA, size: 0x8, addend: 0x0, symName: __ZNSt3__16vectorI7timevalNS_9allocatorIS1_EEED1B8ue170006Ev, symObjAddr: 0x38F44, symBinAddr: 0x10003CFB8, symSize: 0x2C }
  - { offsetInCU: 0x53BE4, offset: 0x53BE4, size: 0x8, addend: 0x0, symName: __ZNSt3__16vectorI7timevalNS_9allocatorIS1_EEEC2EmRKS1_, symObjAddr: 0x38F70, symBinAddr: 0x10003CFE4, symSize: 0xDC }
  - { offsetInCU: 0x53C44, offset: 0x53C44, size: 0x8, addend: 0x0, symName: __ZNSt3__117__compressed_pairIP7timevalNS_9allocatorIS1_EEEC1B8ue170006IDnNS_18__default_init_tagEEEOT_OT0_, symObjAddr: 0x3904C, symBinAddr: 0x10003D0C0, symSize: 0x3C }
  - { offsetInCU: 0x53C9C, offset: 0x53C9C, size: 0x8, addend: 0x0, symName: __ZNSt3__16vectorI7timevalNS_9allocatorIS1_EEE16__destroy_vectorC1B8ue170006ERS4_, symObjAddr: 0x390C8, symBinAddr: 0x10003D13C, symSize: 0x34 }
  - { offsetInCU: 0x53CD5, offset: 0x53CD5, size: 0x8, addend: 0x0, symName: __ZNSt3__16vectorI7timevalNS_9allocatorIS1_EEE11__vallocateB8ue170006Em, symObjAddr: 0x390FC, symBinAddr: 0x10003D170, symSize: 0xAC }
  - { offsetInCU: 0x53D19, offset: 0x53D19, size: 0x8, addend: 0x0, symName: __ZNSt3__16vectorI7timevalNS_9allocatorIS1_EEE18__construct_at_endEmRKS1_, symObjAddr: 0x391A8, symBinAddr: 0x10003D21C, symSize: 0xD0 }
  - { offsetInCU: 0x53D9A, offset: 0x53D9A, size: 0x8, addend: 0x0, symName: __ZNSt3__128__exception_guard_exceptionsINS_6vectorI7timevalNS_9allocatorIS2_EEE16__destroy_vectorEE10__completeB8ue170006Ev, symObjAddr: 0x39278, symBinAddr: 0x10003D2EC, symSize: 0x1C }
  - { offsetInCU: 0x53DC0, offset: 0x53DC0, size: 0x8, addend: 0x0, symName: __ZNSt3__128__exception_guard_exceptionsINS_6vectorI7timevalNS_9allocatorIS2_EEE16__destroy_vectorEED1B8ue170006Ev, symObjAddr: 0x39294, symBinAddr: 0x10003D308, symSize: 0x2C }
  - { offsetInCU: 0x53DEA, offset: 0x53DEA, size: 0x8, addend: 0x0, symName: __ZNSt3__117__compressed_pairIP7timevalNS_9allocatorIS1_EEEC2B8ue170006IDnNS_18__default_init_tagEEEOT_OT0_, symObjAddr: 0x392C0, symBinAddr: 0x10003D334, symSize: 0x40 }
  - { offsetInCU: 0x53E42, offset: 0x53E42, size: 0x8, addend: 0x0, symName: __ZNSt3__122__compressed_pair_elemIP7timevalLi0ELb0EEC2B8ue170006IDnvEEOT_, symObjAddr: 0x39300, symBinAddr: 0x10003D374, symSize: 0x1C }
  - { offsetInCU: 0x53E84, offset: 0x53E84, size: 0x8, addend: 0x0, symName: __ZNSt3__122__compressed_pair_elemINS_9allocatorI7timevalEELi1ELb1EEC2B8ue170006ENS_18__default_init_tagE, symObjAddr: 0x3931C, symBinAddr: 0x10003D390, symSize: 0x2C }
  - { offsetInCU: 0x53EB8, offset: 0x53EB8, size: 0x8, addend: 0x0, symName: __ZNSt3__19allocatorI7timevalEC2B8ue170006Ev, symObjAddr: 0x39348, symBinAddr: 0x10003D3BC, symSize: 0x2C }
  - { offsetInCU: 0x53EE2, offset: 0x53EE2, size: 0x8, addend: 0x0, symName: __ZNSt3__116__non_trivial_ifILb1ENS_9allocatorI7timevalEEEC2B8ue170006Ev, symObjAddr: 0x39374, symBinAddr: 0x10003D3E8, symSize: 0x14 }
  - { offsetInCU: 0x53F0C, offset: 0x53F0C, size: 0x8, addend: 0x0, symName: __ZNSt3__128__exception_guard_exceptionsINS_6vectorI7timevalNS_9allocatorIS2_EEE16__destroy_vectorEEC1B8ue170006ES6_, symObjAddr: 0x39388, symBinAddr: 0x10003D3FC, symSize: 0x34 }
  - { offsetInCU: 0x53F44, offset: 0x53F44, size: 0x8, addend: 0x0, symName: __ZNSt3__128__exception_guard_exceptionsINS_6vectorI7timevalNS_9allocatorIS2_EEE16__destroy_vectorEEC2B8ue170006ES6_, symObjAddr: 0x393BC, symBinAddr: 0x10003D430, symSize: 0x24 }
  - { offsetInCU: 0x53F7C, offset: 0x53F7C, size: 0x8, addend: 0x0, symName: __ZNSt3__16vectorI7timevalNS_9allocatorIS1_EEE16__destroy_vectorC2B8ue170006ERS4_, symObjAddr: 0x393E0, symBinAddr: 0x10003D454, symSize: 0x20 }
  - { offsetInCU: 0x53FB5, offset: 0x53FB5, size: 0x8, addend: 0x0, symName: __ZNKSt3__16vectorI7timevalNS_9allocatorIS1_EEE8max_sizeEv, symObjAddr: 0x39400, symBinAddr: 0x10003D474, symSize: 0x60 }
  - { offsetInCU: 0x53FDD, offset: 0x53FDD, size: 0x8, addend: 0x0, symName: __ZNKSt3__16vectorI7timevalNS_9allocatorIS1_EEE20__throw_length_errorB8ue170006Ev, symObjAddr: 0x39460, symBinAddr: 0x10003D4D4, symSize: 0x1C }
  - { offsetInCU: 0x54003, offset: 0x54003, size: 0x8, addend: 0x0, symName: __ZNSt3__16vectorI7timevalNS_9allocatorIS1_EEE7__allocB8ue170006Ev, symObjAddr: 0x394BC, symBinAddr: 0x10003D530, symSize: 0x28 }
  - { offsetInCU: 0x54029, offset: 0x54029, size: 0x8, addend: 0x0, symName: __ZNSt3__16vectorI7timevalNS_9allocatorIS1_EEE9__end_capB8ue170006Ev, symObjAddr: 0x394E4, symBinAddr: 0x10003D558, symSize: 0x28 }
  - { offsetInCU: 0x5404F, offset: 0x5404F, size: 0x8, addend: 0x0, symName: __ZNKSt3__16vectorI7timevalNS_9allocatorIS1_EEE14__annotate_newB8ue170006Em, symObjAddr: 0x3950C, symBinAddr: 0x10003D580, symSize: 0xAC }
  - { offsetInCU: 0x5408F, offset: 0x5408F, size: 0x8, addend: 0x0, symName: __ZNSt3__116allocator_traitsINS_9allocatorI7timevalEEE8max_sizeB8ue170006IS3_vvEEmRKS3_, symObjAddr: 0x395B8, symBinAddr: 0x10003D62C, symSize: 0x28 }
  - { offsetInCU: 0x540BB, offset: 0x540BB, size: 0x8, addend: 0x0, symName: __ZNKSt3__16vectorI7timevalNS_9allocatorIS1_EEE7__allocB8ue170006Ev, symObjAddr: 0x395E0, symBinAddr: 0x10003D654, symSize: 0x28 }
  - { offsetInCU: 0x540E1, offset: 0x540E1, size: 0x8, addend: 0x0, symName: __ZNKSt3__117__compressed_pairIP7timevalNS_9allocatorIS1_EEE6secondB8ue170006Ev, symObjAddr: 0x39608, symBinAddr: 0x10003D67C, symSize: 0x24 }
  - { offsetInCU: 0x54107, offset: 0x54107, size: 0x8, addend: 0x0, symName: __ZNKSt3__122__compressed_pair_elemINS_9allocatorI7timevalEELi1ELb1EE5__getB8ue170006Ev, symObjAddr: 0x3962C, symBinAddr: 0x10003D6A0, symSize: 0x14 }
  - { offsetInCU: 0x5412D, offset: 0x5412D, size: 0x8, addend: 0x0, symName: __ZNSt3__19allocatorI7timevalE8allocateB8ue170006Em, symObjAddr: 0x39640, symBinAddr: 0x10003D6B4, symSize: 0x58 }
  - { offsetInCU: 0x54161, offset: 0x54161, size: 0x8, addend: 0x0, symName: __ZNSt3__117__compressed_pairIP7timevalNS_9allocatorIS1_EEE6secondB8ue170006Ev, symObjAddr: 0x39698, symBinAddr: 0x10003D70C, symSize: 0x24 }
  - { offsetInCU: 0x54187, offset: 0x54187, size: 0x8, addend: 0x0, symName: __ZNSt3__122__compressed_pair_elemINS_9allocatorI7timevalEELi1ELb1EE5__getB8ue170006Ev, symObjAddr: 0x396BC, symBinAddr: 0x10003D730, symSize: 0x14 }
  - { offsetInCU: 0x541AD, offset: 0x541AD, size: 0x8, addend: 0x0, symName: __ZNSt3__117__compressed_pairIP7timevalNS_9allocatorIS1_EEE5firstB8ue170006Ev, symObjAddr: 0x396D0, symBinAddr: 0x10003D744, symSize: 0x24 }
  - { offsetInCU: 0x541D3, offset: 0x541D3, size: 0x8, addend: 0x0, symName: __ZNSt3__122__compressed_pair_elemIP7timevalLi0ELb0EE5__getB8ue170006Ev, symObjAddr: 0x396F4, symBinAddr: 0x10003D768, symSize: 0x14 }
  - { offsetInCU: 0x541F9, offset: 0x541F9, size: 0x8, addend: 0x0, symName: __ZNKSt3__16vectorI7timevalNS_9allocatorIS1_EEE31__annotate_contiguous_containerB8ue170006EPKvS6_S6_S6_, symObjAddr: 0x39708, symBinAddr: 0x10003D77C, symSize: 0x20 }
  - { offsetInCU: 0x5424F, offset: 0x5424F, size: 0x8, addend: 0x0, symName: __ZNKSt3__16vectorI7timevalNS_9allocatorIS1_EEE4dataB8ue170006Ev, symObjAddr: 0x39728, symBinAddr: 0x10003D79C, symSize: 0x28 }
  - { offsetInCU: 0x54275, offset: 0x54275, size: 0x8, addend: 0x0, symName: __ZNKSt3__16vectorI7timevalNS_9allocatorIS1_EEE8capacityB8ue170006Ev, symObjAddr: 0x39750, symBinAddr: 0x10003D7C4, symSize: 0x40 }
  - { offsetInCU: 0x5429B, offset: 0x5429B, size: 0x8, addend: 0x0, symName: __ZNKSt3__16vectorI7timevalNS_9allocatorIS1_EEE9__end_capB8ue170006Ev, symObjAddr: 0x397A4, symBinAddr: 0x10003D818, symSize: 0x28 }
  - { offsetInCU: 0x542C1, offset: 0x542C1, size: 0x8, addend: 0x0, symName: __ZNKSt3__117__compressed_pairIP7timevalNS_9allocatorIS1_EEE5firstB8ue170006Ev, symObjAddr: 0x397CC, symBinAddr: 0x10003D840, symSize: 0x24 }
  - { offsetInCU: 0x542E7, offset: 0x542E7, size: 0x8, addend: 0x0, symName: __ZNKSt3__122__compressed_pair_elemIP7timevalLi0ELb0EE5__getB8ue170006Ev, symObjAddr: 0x397F0, symBinAddr: 0x10003D864, symSize: 0x14 }
  - { offsetInCU: 0x54328, offset: 0x54328, size: 0x8, addend: 0x0, symName: __ZNSt3__16vectorI7timevalNS_9allocatorIS1_EEE21_ConstructTransactionC1B8ue170006ERS4_m, symObjAddr: 0x39804, symBinAddr: 0x10003D878, symSize: 0x3C }
  - { offsetInCU: 0x54370, offset: 0x54370, size: 0x8, addend: 0x0, symName: __ZNSt3__116allocator_traitsINS_9allocatorI7timevalEEE9constructB8ue170006IS2_JRKS2_EvvEEvRS3_PT_DpOT0_, symObjAddr: 0x39840, symBinAddr: 0x10003D8B4, symSize: 0x30 }
  - { offsetInCU: 0x543C5, offset: 0x543C5, size: 0x8, addend: 0x0, symName: __ZNSt3__16vectorI7timevalNS_9allocatorIS1_EEE21_ConstructTransactionD1B8ue170006Ev, symObjAddr: 0x39870, symBinAddr: 0x10003D8E4, symSize: 0x2C }
  - { offsetInCU: 0x543EF, offset: 0x543EF, size: 0x8, addend: 0x0, symName: __ZNSt3__16vectorI7timevalNS_9allocatorIS1_EEE21_ConstructTransactionC2B8ue170006ERS4_m, symObjAddr: 0x3989C, symBinAddr: 0x10003D910, symSize: 0x44 }
  - { offsetInCU: 0x54437, offset: 0x54437, size: 0x8, addend: 0x0, symName: __ZNSt3__16vectorI7timevalNS_9allocatorIS1_EEE21_ConstructTransactionD2B8ue170006Ev, symObjAddr: 0x3990C, symBinAddr: 0x10003D980, symSize: 0x20 }
  - { offsetInCU: 0x54461, offset: 0x54461, size: 0x8, addend: 0x0, symName: __ZNSt3__128__exception_guard_exceptionsINS_6vectorI7timevalNS_9allocatorIS2_EEE16__destroy_vectorEED2B8ue170006Ev, symObjAddr: 0x3992C, symBinAddr: 0x10003D9A0, symSize: 0x50 }
  - { offsetInCU: 0x5448B, offset: 0x5448B, size: 0x8, addend: 0x0, symName: __ZNSt3__16vectorI7timevalNS_9allocatorIS1_EEE16__destroy_vectorclB8ue170006Ev, symObjAddr: 0x3997C, symBinAddr: 0x10003D9F0, symSize: 0x90 }
  - { offsetInCU: 0x544B1, offset: 0x544B1, size: 0x8, addend: 0x0, symName: __ZNSt3__16vectorI7timevalNS_9allocatorIS1_EEE7__clearB8ue170006Ev, symObjAddr: 0x39A0C, symBinAddr: 0x10003DA80, symSize: 0x28 }
  - { offsetInCU: 0x544D7, offset: 0x544D7, size: 0x8, addend: 0x0, symName: __ZNKSt3__16vectorI7timevalNS_9allocatorIS1_EEE17__annotate_deleteB8ue170006Ev, symObjAddr: 0x39A34, symBinAddr: 0x10003DAA8, symSize: 0xB8 }
  - { offsetInCU: 0x544FD, offset: 0x544FD, size: 0x8, addend: 0x0, symName: __ZNSt3__116allocator_traitsINS_9allocatorI7timevalEEE10deallocateB8ue170006ERS3_PS2_m, symObjAddr: 0x39AEC, symBinAddr: 0x10003DB60, symSize: 0x34 }
  - { offsetInCU: 0x5453F, offset: 0x5453F, size: 0x8, addend: 0x0, symName: __ZNSt3__16vectorI7timevalNS_9allocatorIS1_EEE22__base_destruct_at_endB8ue170006EPS1_, symObjAddr: 0x39B20, symBinAddr: 0x10003DB94, symSize: 0x8C }
  - { offsetInCU: 0x54583, offset: 0x54583, size: 0x8, addend: 0x0, symName: __ZNSt3__116allocator_traitsINS_9allocatorI7timevalEEE7destroyB8ue170006IS2_vvEEvRS3_PT_, symObjAddr: 0x39BAC, symBinAddr: 0x10003DC20, symSize: 0x28 }
  - { offsetInCU: 0x545BE, offset: 0x545BE, size: 0x8, addend: 0x0, symName: __ZNKSt3__16vectorI7timevalNS_9allocatorIS1_EEE4sizeB8ue170006Ev, symObjAddr: 0x39C08, symBinAddr: 0x10003DC7C, symSize: 0x28 }
  - { offsetInCU: 0x545E4, offset: 0x545E4, size: 0x8, addend: 0x0, symName: __ZNSt3__19allocatorI7timevalE10deallocateB8ue170006EPS1_m, symObjAddr: 0x39C30, symBinAddr: 0x10003DCA4, symSize: 0x40 }
  - { offsetInCU: 0x54626, offset: 0x54626, size: 0x8, addend: 0x0, symName: __ZNSt3__111__wrap_iterIP7timevalEppB8ue170006Ev, symObjAddr: 0x39D60, symBinAddr: 0x10003DDD4, symSize: 0x20 }
  - { offsetInCU: 0x5464C, offset: 0x5464C, size: 0x8, addend: 0x0, symName: __ZNKSt3__111__wrap_iterIP7timevalE4baseB8ue170006Ev, symObjAddr: 0x39DC8, symBinAddr: 0x10003DE3C, symSize: 0x18 }
  - { offsetInCU: 0x54672, offset: 0x54672, size: 0x8, addend: 0x0, symName: __ZNSt3__16vectorI7timevalNS_9allocatorIS1_EEE11__make_iterB8ue170006EPS1_, symObjAddr: 0x39DE0, symBinAddr: 0x10003DE54, symSize: 0x30 }
  - { offsetInCU: 0x546A7, offset: 0x546A7, size: 0x8, addend: 0x0, symName: __ZNSt3__111__wrap_iterIP7timevalEC1B8ue170006ES2_, symObjAddr: 0x39E10, symBinAddr: 0x10003DE84, symSize: 0x34 }
  - { offsetInCU: 0x546DF, offset: 0x546DF, size: 0x8, addend: 0x0, symName: __ZNSt3__111__wrap_iterIP7timevalEC2B8ue170006ES2_, symObjAddr: 0x39E44, symBinAddr: 0x10003DEB8, symSize: 0x20 }
  - { offsetInCU: 0x54717, offset: 0x54717, size: 0x8, addend: 0x0, symName: __ZNSt3__16vectorI7timevalNS_9allocatorIS1_EEED2B8ue170006Ev, symObjAddr: 0x39E64, symBinAddr: 0x10003DED8, symSize: 0x40 }
  - { offsetInCU: 0x54741, offset: 0x54741, size: 0x8, addend: 0x0, symName: __ZN2ff6ff_a2aD2Ev, symObjAddr: 0x39EA4, symBinAddr: 0x10003DF18, symSize: 0x218 }
  - { offsetInCU: 0x547BB, offset: 0x547BB, size: 0x8, addend: 0x0, symName: __ZN6MergerD2Ev, symObjAddr: 0x3A0BC, symBinAddr: 0x10003E130, symSize: 0x48 }
  - { offsetInCU: 0x547E8, offset: 0x547E8, size: 0x8, addend: 0x0, symName: __ZNSt3__113unordered_mapINS_12basic_stringIcNS_11char_traitsIcEENS_9allocatorIcEEEEN6Merger10FileMergerENS_4hashIS6_EENS_8equal_toIS6_EENS4_INS_4pairIKS6_S8_EEEEED1B8ue170006Ev, symObjAddr: 0x3A104, symBinAddr: 0x10003E178, symSize: 0x2C }
  - { offsetInCU: 0x54812, offset: 0x54812, size: 0x8, addend: 0x0, symName: __ZNSt3__113unordered_mapINS_12basic_stringIcNS_11char_traitsIcEENS_9allocatorIcEEEEN6Merger10FileMergerENS_4hashIS6_EENS_8equal_toIS6_EENS4_INS_4pairIKS6_S8_EEEEED2B8ue170006Ev, symObjAddr: 0x3A130, symBinAddr: 0x10003E1A4, symSize: 0x2C }
  - { offsetInCU: 0x5483C, offset: 0x5483C, size: 0x8, addend: 0x0, symName: __ZNSt3__112__hash_tableINS_17__hash_value_typeINS_12basic_stringIcNS_11char_traitsIcEENS_9allocatorIcEEEEN6Merger10FileMergerEEENS_22__unordered_map_hasherIS7_SA_NS_4hashIS7_EENS_8equal_toIS7_EELb1EEENS_21__unordered_map_equalIS7_SA_SF_SD_Lb1EEENS5_ISA_EEED1Ev, symObjAddr: 0x3A15C, symBinAddr: 0x10003E1D0, symSize: 0x2C }
  - { offsetInCU: 0x54868, offset: 0x54868, size: 0x8, addend: 0x0, symName: __ZNSt3__112__hash_tableINS_17__hash_value_typeINS_12basic_stringIcNS_11char_traitsIcEENS_9allocatorIcEEEEN6Merger10FileMergerEEENS_22__unordered_map_hasherIS7_SA_NS_4hashIS7_EENS_8equal_toIS7_EELb1EEENS_21__unordered_map_equalIS7_SA_SF_SD_Lb1EEENS5_ISA_EEED2Ev, symObjAddr: 0x3A188, symBinAddr: 0x10003E1FC, symSize: 0x48 }
  - { offsetInCU: 0x54894, offset: 0x54894, size: 0x8, addend: 0x0, symName: __ZNSt3__112__hash_tableINS_17__hash_value_typeINS_12basic_stringIcNS_11char_traitsIcEENS_9allocatorIcEEEEN6Merger10FileMergerEEENS_22__unordered_map_hasherIS7_SA_NS_4hashIS7_EENS_8equal_toIS7_EELb1EEENS_21__unordered_map_equalIS7_SA_SF_SD_Lb1EEENS5_ISA_EEE17__deallocate_nodeEPNS_16__hash_node_baseIPNS_11__hash_nodeISA_PvEEEE, symObjAddr: 0x3A1D0, symBinAddr: 0x10003E244, symSize: 0xA8 }
  - { offsetInCU: 0x548FF, offset: 0x548FF, size: 0x8, addend: 0x0, symName: __ZNSt3__110unique_ptrIA_PNS_16__hash_node_baseIPNS_11__hash_nodeINS_17__hash_value_typeINS_12basic_stringIcNS_11char_traitsIcEENS_9allocatorIcEEEEN6Merger10FileMergerEEEPvEEEENS_25__bucket_list_deallocatorINS7_ISH_EEEEED1B8ue170006Ev, symObjAddr: 0x3A278, symBinAddr: 0x10003E2EC, symSize: 0x2C }
  - { offsetInCU: 0x54929, offset: 0x54929, size: 0x8, addend: 0x0, symName: __ZNSt3__110unique_ptrIA_PNS_16__hash_node_baseIPNS_11__hash_nodeINS_17__hash_value_typeINS_12basic_stringIcNS_11char_traitsIcEENS_9allocatorIcEEEEN6Merger10FileMergerEEEPvEEEENS_25__bucket_list_deallocatorINS7_ISH_EEEEED2B8ue170006Ev, symObjAddr: 0x3A2A4, symBinAddr: 0x10003E318, symSize: 0x30 }
  - { offsetInCU: 0x54953, offset: 0x54953, size: 0x8, addend: 0x0, symName: __ZNSt3__110unique_ptrIA_PNS_16__hash_node_baseIPNS_11__hash_nodeINS_17__hash_value_typeINS_12basic_stringIcNS_11char_traitsIcEENS_9allocatorIcEEEEN6Merger10FileMergerEEEPvEEEENS_25__bucket_list_deallocatorINS7_ISH_EEEEE5resetB8ue170006EDn, symObjAddr: 0x3A2D4, symBinAddr: 0x10003E348, symSize: 0x6C }
  - { offsetInCU: 0x54994, offset: 0x54994, size: 0x8, addend: 0x0, symName: __ZNSt3__16vectorIPN2ff7ff_nodeENS_9allocatorIS3_EEED2B8ue170006Ev, symObjAddr: 0x3A340, symBinAddr: 0x10003E3B4, symSize: 0x44 }
  - { offsetInCU: 0x549BE, offset: 0x549BE, size: 0x8, addend: 0x0, symName: __ZNSt3__16vectorIPN2ff7ff_nodeENS_9allocatorIS3_EEE16__destroy_vectorC1B8ue170006ERS6_, symObjAddr: 0x3A384, symBinAddr: 0x10003E3F8, symSize: 0x34 }
  - { offsetInCU: 0x549F7, offset: 0x549F7, size: 0x8, addend: 0x0, symName: __ZNSt3__16vectorIPN2ff7ff_nodeENS_9allocatorIS3_EEE16__destroy_vectorclB8ue170006Ev, symObjAddr: 0x3A3B8, symBinAddr: 0x10003E42C, symSize: 0x90 }
  - { offsetInCU: 0x54A1D, offset: 0x54A1D, size: 0x8, addend: 0x0, symName: __ZNSt3__16vectorIPN2ff7ff_nodeENS_9allocatorIS3_EEE16__destroy_vectorC2B8ue170006ERS6_, symObjAddr: 0x3A448, symBinAddr: 0x10003E4BC, symSize: 0x20 }
  - { offsetInCU: 0x54A56, offset: 0x54A56, size: 0x8, addend: 0x0, symName: __ZNSt3__16vectorIPN2ff7ff_nodeENS_9allocatorIS3_EEE7__clearB8ue170006Ev, symObjAddr: 0x3A468, symBinAddr: 0x10003E4DC, symSize: 0x28 }
  - { offsetInCU: 0x54A7C, offset: 0x54A7C, size: 0x8, addend: 0x0, symName: __ZNSt3__16vectorIPN2ff7ff_nodeENS_9allocatorIS3_EEE22__base_destruct_at_endB8ue170006EPS3_, symObjAddr: 0x3A490, symBinAddr: 0x10003E504, symSize: 0x8C }
  - { offsetInCU: 0x54AC0, offset: 0x54AC0, size: 0x8, addend: 0x0, symName: __ZN2ff7svectorIPNS_7ff_nodeEEC2Em, symObjAddr: 0x3A51C, symBinAddr: 0x10003E590, symSize: 0x80 }
  - { offsetInCU: 0x54AF8, offset: 0x54AF8, size: 0x8, addend: 0x0, symName: __ZN2ff7svectorIPNS_7ff_nodeEED2Ev, symObjAddr: 0x3A59C, symBinAddr: 0x10003E610, symSize: 0x70 }
  - { offsetInCU: 0x54B43, offset: 0x54B43, size: 0x8, addend: 0x0, symName: __ZNKSt3__113basic_ostreamIcNS_11char_traitsIcEEE6sentrycvbB8ue170006Ev, symObjAddr: 0x3A7F8, symBinAddr: 0x10003E86C, symSize: 0x1C }
  - { offsetInCU: 0x54B69, offset: 0x54B69, size: 0x8, addend: 0x0, symName: __ZNSt3__119ostreambuf_iteratorIcNS_11char_traitsIcEEEC1B8ue170006ERNS_13basic_ostreamIcS2_EE, symObjAddr: 0x3AA54, symBinAddr: 0x10003EAC8, symSize: 0x34 }
  - { offsetInCU: 0x54BA1, offset: 0x54BA1, size: 0x8, addend: 0x0, symName: __ZNKSt3__18ios_base5flagsB8ue170006Ev, symObjAddr: 0x3AA88, symBinAddr: 0x10003EAFC, symSize: 0x18 }
  - { offsetInCU: 0x54BC9, offset: 0x54BC9, size: 0x8, addend: 0x0, symName: __ZNKSt3__19basic_iosIcNS_11char_traitsIcEEE4fillB8ue170006Ev, symObjAddr: 0x3AAA0, symBinAddr: 0x10003EB14, symSize: 0x64 }
  - { offsetInCU: 0x54BF1, offset: 0x54BF1, size: 0x8, addend: 0x0, symName: __ZNKSt3__119ostreambuf_iteratorIcNS_11char_traitsIcEEE6failedB8ue170006Ev, symObjAddr: 0x3AB04, symBinAddr: 0x10003EB78, symSize: 0x24 }
  - { offsetInCU: 0x54C17, offset: 0x54C17, size: 0x8, addend: 0x0, symName: __ZNKSt3__18ios_base5widthB8ue170006Ev, symObjAddr: 0x3AB28, symBinAddr: 0x10003EB9C, symSize: 0x18 }
  - { offsetInCU: 0x54C3F, offset: 0x54C3F, size: 0x8, addend: 0x0, symName: __ZNSt3__115basic_streambufIcNS_11char_traitsIcEEE5sputnB8ue170006EPKcl, symObjAddr: 0x3AB40, symBinAddr: 0x10003EBB4, symSize: 0x3C }
  - { offsetInCU: 0x54C81, offset: 0x54C81, size: 0x8, addend: 0x0, symName: __ZNSt3__112basic_stringIcNS_11char_traitsIcEENS_9allocatorIcEEEC1B8ue170006Emc, symObjAddr: 0x3AB7C, symBinAddr: 0x10003EBF0, symSize: 0x3C }
  - { offsetInCU: 0x54CC9, offset: 0x54CC9, size: 0x8, addend: 0x0, symName: __ZNSt3__112basic_stringIcNS_11char_traitsIcEENS_9allocatorIcEEE4dataB8ue170006Ev, symObjAddr: 0x3ABB8, symBinAddr: 0x10003EC2C, symSize: 0x28 }
  - { offsetInCU: 0x54CEF, offset: 0x54CEF, size: 0x8, addend: 0x0, symName: __ZNSt3__18ios_base5widthB8ue170006El, symObjAddr: 0x3ABE0, symBinAddr: 0x10003EC54, symSize: 0x2C }
  - { offsetInCU: 0x54D35, offset: 0x54D35, size: 0x8, addend: 0x0, symName: __ZNSt3__112basic_stringIcNS_11char_traitsIcEENS_9allocatorIcEEEC2B8ue170006Emc, symObjAddr: 0x3AC0C, symBinAddr: 0x10003EC80, symSize: 0x4C }
  - { offsetInCU: 0x54D7D, offset: 0x54D7D, size: 0x8, addend: 0x0, symName: __ZNSt3__119ostreambuf_iteratorIcNS_11char_traitsIcEEEC2B8ue170006ERNS_13basic_ostreamIcS2_EE, symObjAddr: 0x3AC58, symBinAddr: 0x10003ECCC, symSize: 0x54 }
  - { offsetInCU: 0x54DB5, offset: 0x54DB5, size: 0x8, addend: 0x0, symName: __ZNKSt3__19basic_iosIcNS_11char_traitsIcEEE5rdbufB8ue170006Ev, symObjAddr: 0x3ACAC, symBinAddr: 0x10003ED20, symSize: 0x24 }
  - { offsetInCU: 0x54DDD, offset: 0x54DDD, size: 0x8, addend: 0x0, symName: __ZNKSt3__18ios_base5rdbufB8ue170006Ev, symObjAddr: 0x3ACD0, symBinAddr: 0x10003ED44, symSize: 0x18 }
  - { offsetInCU: 0x54E03, offset: 0x54E03, size: 0x8, addend: 0x0, symName: __ZNSt3__111char_traitsIcE11eq_int_typeB8ue170006Eii, symObjAddr: 0x3ACE8, symBinAddr: 0x10003ED5C, symSize: 0x28 }
  - { offsetInCU: 0x54E36, offset: 0x54E36, size: 0x8, addend: 0x0, symName: __ZNKSt3__19basic_iosIcNS_11char_traitsIcEEE5widenB8ue170006Ec, symObjAddr: 0x3AD10, symBinAddr: 0x10003ED84, symSize: 0x84 }
  - { offsetInCU: 0x54E9F, offset: 0x54E9F, size: 0x8, addend: 0x0, symName: __ZNKSt3__15ctypeIcE5widenB8ue170006Ec, symObjAddr: 0x3ADC0, symBinAddr: 0x10003EE34, symSize: 0x38 }
  - { offsetInCU: 0x54ED4, offset: 0x54ED4, size: 0x8, addend: 0x0, symName: __ZNKSt3__16vectorIPN2ff7ff_nodeENS_9allocatorIS3_EEEixB8ue170006Em, symObjAddr: 0x3ADF8, symBinAddr: 0x10003EE6C, symSize: 0x24 }
  - { offsetInCU: 0x54F0B, offset: 0x54F0B, size: 0x8, addend: 0x0, symName: __ZN2ff7ff_PipeIccEC2IJRNS_6ff_a2aER6MergerEEEDpOT_, symObjAddr: 0x3AE1C, symBinAddr: 0x10003EE90, symSize: 0xD0 }
  - { offsetInCU: 0x54F63, offset: 0x54F63, size: 0x8, addend: 0x0, symName: __ZN2ff11ff_pipelineC2Ebiib, symObjAddr: 0x3AEEC, symBinAddr: 0x10003EF60, symSize: 0x144 }
  - { offsetInCU: 0x54FC9, offset: 0x54FC9, size: 0x8, addend: 0x0, symName: __ZN2ff7ff_PipeIccE11add2pipeallINS_6ff_a2aEJ6MergerEEEvRT_DpRT0_, symObjAddr: 0x3B030, symBinAddr: 0x10003F0A4, symSize: 0x40 }
  - { offsetInCU: 0x55021, offset: 0x55021, size: 0x8, addend: 0x0, symName: __ZN2ff11ff_pipelineD2Ev, symObjAddr: 0x3B070, symBinAddr: 0x10003F0E4, symSize: 0x300 }
  - { offsetInCU: 0x550C7, offset: 0x550C7, size: 0x8, addend: 0x0, symName: __ZN2ff11ff_pipeline19init_input_blockingERP23_opaque_pthread_mutex_tRP22_opaque_pthread_cond_tb, symObjAddr: 0x3B370, symBinAddr: 0x10003F3E4, symSize: 0x68 }
  - { offsetInCU: 0x55117, offset: 0x55117, size: 0x8, addend: 0x0, symName: __ZN2ff11ff_pipeline20init_output_blockingERP23_opaque_pthread_mutex_tRP22_opaque_pthread_cond_tb, symObjAddr: 0x3B3D8, symBinAddr: 0x10003F44C, symSize: 0xBC }
  - { offsetInCU: 0x55176, offset: 0x55176, size: 0x8, addend: 0x0, symName: __ZN2ff11ff_pipeline19set_output_blockingERP23_opaque_pthread_mutex_tRP22_opaque_pthread_cond_tb, symObjAddr: 0x3B494, symBinAddr: 0x10003F508, symSize: 0x98 }
  - { offsetInCU: 0x551D8, offset: 0x551D8, size: 0x8, addend: 0x0, symName: __ZN2ff11ff_pipeline10get_cons_cEv, symObjAddr: 0x3B52C, symBinAddr: 0x10003F5A0, symSize: 0x3C }
  - { offsetInCU: 0x551FE, offset: 0x551FE, size: 0x8, addend: 0x0, symName: __ZN2ff11ff_pipeline12skipfirstpopEb, symObjAddr: 0x3B568, symBinAddr: 0x10003F5DC, symSize: 0xBC }
  - { offsetInCU: 0x55250, offset: 0x55250, size: 0x8, addend: 0x0, symName: __ZN2ff11ff_pipeline19create_input_bufferEib, symObjAddr: 0x3B624, symBinAddr: 0x10003F698, symSize: 0x124 }
  - { offsetInCU: 0x55294, offset: 0x55294, size: 0x8, addend: 0x0, symName: __ZN2ff11ff_pipeline20create_output_bufferEib, symObjAddr: 0x3B748, symBinAddr: 0x10003F7BC, symSize: 0x104 }
  - { offsetInCU: 0x552E7, offset: 0x552E7, size: 0x8, addend: 0x0, symName: __ZN2ff11ff_pipeline17set_output_bufferEPNS_16uSWSR_Ptr_BufferE, symObjAddr: 0x3B84C, symBinAddr: 0x10003F8C0, symSize: 0xC4 }
  - { offsetInCU: 0x5532B, offset: 0x5532B, size: 0x8, addend: 0x0, symName: __ZN2ff11ff_pipeline9set_inputERKNS_7svectorIPNS_7ff_nodeEEE, symObjAddr: 0x3B910, symBinAddr: 0x10003F984, symSize: 0x44 }
  - { offsetInCU: 0x55360, offset: 0x55360, size: 0x8, addend: 0x0, symName: __ZN2ff11ff_pipeline9set_inputEPNS_7ff_nodeE, symObjAddr: 0x3B954, symBinAddr: 0x10003F9C8, symSize: 0x44 }
  - { offsetInCU: 0x55395, offset: 0x55395, size: 0x8, addend: 0x0, symName: __ZN2ff11ff_pipeline18set_input_feedbackEPNS_7ff_nodeE, symObjAddr: 0x3B998, symBinAddr: 0x10003FA0C, symSize: 0x44 }
  - { offsetInCU: 0x553CA, offset: 0x553CA, size: 0x8, addend: 0x0, symName: __ZN2ff11ff_pipeline10set_outputERKNS_7svectorIPNS_7ff_nodeEEE, symObjAddr: 0x3B9DC, symBinAddr: 0x10003FA50, symSize: 0x60 }
  - { offsetInCU: 0x5540E, offset: 0x5540E, size: 0x8, addend: 0x0, symName: __ZN2ff11ff_pipeline10set_outputEPNS_7ff_nodeE, symObjAddr: 0x3BA3C, symBinAddr: 0x10003FAB0, symSize: 0x60 }
  - { offsetInCU: 0x55452, offset: 0x55452, size: 0x8, addend: 0x0, symName: __ZN2ff11ff_pipeline19set_output_feedbackEPNS_7ff_nodeE, symObjAddr: 0x3BA9C, symBinAddr: 0x10003FB10, symSize: 0x11C }
  - { offsetInCU: 0x55496, offset: 0x55496, size: 0x8, addend: 0x0, symName: __ZN2ff11ff_pipeline7prepareEv, symObjAddr: 0x3BBB8, symBinAddr: 0x10003FC2C, symSize: 0x29F4 }
  - { offsetInCU: 0x55A4A, offset: 0x55A4A, size: 0x8, addend: 0x0, symName: __ZN2ff11ff_pipeline6dryrunEv, symObjAddr: 0x3E5AC, symBinAddr: 0x100042620, symSize: 0x6C }
  - { offsetInCU: 0x55A70, offset: 0x55A70, size: 0x8, addend: 0x0, symName: __ZNK2ff11ff_pipeline15ondemand_bufferEv, symObjAddr: 0x3E618, symBinAddr: 0x10004268C, symSize: 0xCC }
  - { offsetInCU: 0x55AB4, offset: 0x55AB4, size: 0x8, addend: 0x0, symName: __ZN2ff11ff_pipeline3runEb, symObjAddr: 0x3E6E4, symBinAddr: 0x100042758, symSize: 0x2B4 }
  - { offsetInCU: 0x55B24, offset: 0x55B24, size: 0x8, addend: 0x0, symName: __ZN2ff11ff_pipeline14freeze_and_runEb, symObjAddr: 0x3E998, symBinAddr: 0x100042A0C, symSize: 0x23C }
  - { offsetInCU: 0x55B94, offset: 0x55B94, size: 0x8, addend: 0x0, symName: __ZN2ff11ff_pipeline4waitEv, symObjAddr: 0x3EBD4, symBinAddr: 0x100042C48, symSize: 0xE8 }
  - { offsetInCU: 0x55BE6, offset: 0x55BE6, size: 0x8, addend: 0x0, symName: __ZN2ff11ff_pipeline13wait_freezingEv, symObjAddr: 0x3ECBC, symBinAddr: 0x100042D30, symSize: 0xE8 }
  - { offsetInCU: 0x55C38, offset: 0x55C38, size: 0x8, addend: 0x0, symName: __ZN2ff11ff_pipeline4stopEv, symObjAddr: 0x3EDA4, symBinAddr: 0x100042E18, symSize: 0x8C }
  - { offsetInCU: 0x55C7B, offset: 0x55C7B, size: 0x8, addend: 0x0, symName: __ZN2ff11ff_pipeline6freezeEv, symObjAddr: 0x3EE30, symBinAddr: 0x100042EA4, symSize: 0x8C }
  - { offsetInCU: 0x55CBE, offset: 0x55CBE, size: 0x8, addend: 0x0, symName: __ZN2ff11ff_pipeline4thawEbl, symObjAddr: 0x3EEBC, symBinAddr: 0x100042F30, symSize: 0xA8 }
  - { offsetInCU: 0x55D1F, offset: 0x55D1F, size: 0x8, addend: 0x0, symName: __ZNK2ff11ff_pipeline8isfrozenEv, symObjAddr: 0x3EF64, symBinAddr: 0x100042FD8, symSize: 0xC0 }
  - { offsetInCU: 0x55D71, offset: 0x55D71, size: 0x8, addend: 0x0, symName: __ZNK2ff11ff_pipeline4doneEv, symObjAddr: 0x3F024, symBinAddr: 0x100043098, symSize: 0xC0 }
  - { offsetInCU: 0x55DC3, offset: 0x55DC3, size: 0x8, addend: 0x0, symName: __ZN2ff11ff_pipeline11cardinalityEPNS_11spinBarrierE, symObjAddr: 0x3F0E4, symBinAddr: 0x100043158, symSize: 0xA8 }
  - { offsetInCU: 0x55E24, offset: 0x55E24, size: 0x8, addend: 0x0, symName: __ZNK2ff11ff_pipeline11cardinalityEv, symObjAddr: 0x3F18C, symBinAddr: 0x100043200, symSize: 0xA0 }
  - { offsetInCU: 0x55E76, offset: 0x55E76, size: 0x8, addend: 0x0, symName: __ZN2ff7ff_PipeIccED0Ev, symObjAddr: 0x3F22C, symBinAddr: 0x1000432A0, symSize: 0x34 }
  - { offsetInCU: 0x55EA0, offset: 0x55EA0, size: 0x8, addend: 0x0, symName: __ZN2ff11ff_pipeline3svcEPv, symObjAddr: 0x3F260, symBinAddr: 0x1000432D4, symSize: 0x18 }
  - { offsetInCU: 0x55ED2, offset: 0x55ED2, size: 0x8, addend: 0x0, symName: __ZN2ff11ff_pipeline8svc_initEv, symObjAddr: 0x3F278, symBinAddr: 0x1000432EC, symSize: 0x14 }
  - { offsetInCU: 0x55EF8, offset: 0x55EF8, size: 0x8, addend: 0x0, symName: __ZN2ff11ff_pipeline7svc_endEv, symObjAddr: 0x3F28C, symBinAddr: 0x100043300, symSize: 0x10 }
  - { offsetInCU: 0x55F1E, offset: 0x55F1E, size: 0x8, addend: 0x0, symName: __ZN2ff11ff_pipeline11change_nodeEPNS_7ff_nodeES2_bb, symObjAddr: 0x3F29C, symBinAddr: 0x100043310, symSize: 0x148 }
  - { offsetInCU: 0x55F9D, offset: 0x55F9D, size: 0x8, addend: 0x0, symName: __ZN2ff11ff_pipeline13get_out_nodesERNS_7svectorIPNS_7ff_nodeEEE, symObjAddr: 0x3F3E4, symBinAddr: 0x100043458, symSize: 0xA0 }
  - { offsetInCU: 0x55FE1, offset: 0x55FE1, size: 0x8, addend: 0x0, symName: __ZN2ff11ff_pipeline22get_out_nodes_feedbackERNS_7svectorIPNS_7ff_nodeEEE, symObjAddr: 0x3F484, symBinAddr: 0x1000434F8, symSize: 0xA0 }
  - { offsetInCU: 0x56025, offset: 0x56025, size: 0x8, addend: 0x0, symName: __ZN2ff11ff_pipeline12get_in_nodesERNS_7svectorIPNS_7ff_nodeEEE, symObjAddr: 0x3F524, symBinAddr: 0x100043598, symSize: 0x88 }
  - { offsetInCU: 0x5605A, offset: 0x5605A, size: 0x8, addend: 0x0, symName: __ZN2ff11ff_pipeline11setAffinityEi, symObjAddr: 0x3F5AC, symBinAddr: 0x100043620, symSize: 0x2C }
  - { offsetInCU: 0x5608C, offset: 0x5608C, size: 0x8, addend: 0x0, symName: __ZNK2ff11ff_pipeline8getCPUIdEv, symObjAddr: 0x3F5D8, symBinAddr: 0x10004364C, symSize: 0x14 }
  - { offsetInCU: 0x560B2, offset: 0x560B2, size: 0x8, addend: 0x0, symName: __ZN2ff11ff_pipeline3putEPv, symObjAddr: 0x3F5EC, symBinAddr: 0x100043660, symSize: 0x48 }
  - { offsetInCU: 0x560E7, offset: 0x560E7, size: 0x8, addend: 0x0, symName: __ZNK2ff11ff_pipeline13get_in_bufferEv, symObjAddr: 0x3F634, symBinAddr: 0x1000436A8, symSize: 0x3C }
  - { offsetInCU: 0x5610D, offset: 0x5610D, size: 0x8, addend: 0x0, symName: __ZNK2ff11ff_pipeline12isMultiInputEv, symObjAddr: 0x3F670, symBinAddr: 0x1000436E4, symSize: 0x88 }
  - { offsetInCU: 0x56133, offset: 0x56133, size: 0x8, addend: 0x0, symName: __ZNK2ff11ff_pipeline13isMultiOutputEv, symObjAddr: 0x3F6F8, symBinAddr: 0x10004376C, symSize: 0xA0 }
  - { offsetInCU: 0x56168, offset: 0x56168, size: 0x8, addend: 0x0, symName: __ZNK2ff11ff_pipeline6isPipeEv, symObjAddr: 0x3F798, symBinAddr: 0x10004380C, symSize: 0x18 }
